
/Users/sainihome/Documents/GitHub/loop-tracks/master/target/3.3.0/argon/master.elf:     file format elf32-littlearm

Sections:
Idx Name          Size      VMA       LMA       File off  Algn
  0 .module_info  00000018  000b4000  000b4000  00004000  2**0
                  CONTENTS, ALLOC, LOAD, READONLY, DATA
  1 .dynalib      00000004  000b4018  000b4018  00004018  2**2
                  CONTENTS, ALLOC, LOAD, READONLY, DATA
  2 .text         0000b0d0  000b4020  000b4020  00004020  2**3
                  CONTENTS, ALLOC, LOAD, READONLY, CODE
  3 .note.gnu.build-id 00000024  000bf0f0  000bf0f0  0000f0f0  2**2
                  CONTENTS, ALLOC, LOAD, READONLY, DATA
  4 .backup       00000004  2003f400  000bf114  0000f400  2**2
                  CONTENTS, ALLOC, LOAD, DATA
  5 .data         000001f8  200350a8  000bf118  000150a8  2**2
                  CONTENTS, ALLOC, LOAD, DATA
  6 .bss          00009550  200352a0  200352a0  000252a0  2**2
                  ALLOC
  7 .module_info_suffix 00000028  000bf310  000bf310  0001f310  2**0
                  CONTENTS, ALLOC, LOAD, READONLY, DATA
  8 .module_info_crc 00000004  000bf338  000bf338  0001f338  2**0
                  CONTENTS, ALLOC, LOAD, READONLY, DATA
  9 .debug_info   00149521  00000000  00000000  0001f33c  2**0
                  CONTENTS, READONLY, DEBUGGING, OCTETS
 10 .debug_abbrev 00011ebb  00000000  00000000  0016885d  2**0
                  CONTENTS, READONLY, DEBUGGING, OCTETS
 11 .debug_loc    0004c35b  00000000  00000000  0017a718  2**0
                  CONTENTS, READONLY, DEBUGGING, OCTETS
 12 .debug_aranges 00003098  00000000  00000000  001c6a73  2**0
                  CONTENTS, READONLY, DEBUGGING, OCTETS
 13 .debug_ranges 0000d868  00000000  00000000  001c9b0b  2**0
                  CONTENTS, READONLY, DEBUGGING, OCTETS
 14 .debug_macro  00034efe  00000000  00000000  001d7373  2**0
                  CONTENTS, READONLY, DEBUGGING, OCTETS
 15 .debug_line   00043723  00000000  00000000  0020c271  2**0
                  CONTENTS, READONLY, DEBUGGING, OCTETS
 16 .debug_str    001568d6  00000000  00000000  0024f994  2**0
                  CONTENTS, READONLY, DEBUGGING, OCTETS
 17 .debug_frame  0000a7f0  00000000  00000000  003a626c  2**2
                  CONTENTS, READONLY, DEBUGGING, OCTETS

Disassembly of section .text:

000b4020 <module_user_pre_init>:
/**
 * Initializes this user module. Returns the start of the heap.
 */
void* module_user_pre_init() {

    if ( (&link_global_data_start!=&link_global_data_initial_values) && (link_global_data_size != 0))
   b4020:	4809      	ldr	r0, [pc, #36]	; (b4048 <module_user_pre_init+0x28>)
   b4022:	490a      	ldr	r1, [pc, #40]	; (b404c <module_user_pre_init+0x2c>)
   b4024:	4288      	cmp	r0, r1
void* module_user_pre_init() {
   b4026:	b508      	push	{r3, lr}
    if ( (&link_global_data_start!=&link_global_data_initial_values) && (link_global_data_size != 0))
   b4028:	d005      	beq.n	b4036 <module_user_pre_init+0x16>
   b402a:	4a09      	ldr	r2, [pc, #36]	; (b4050 <module_user_pre_init+0x30>)
   b402c:	4282      	cmp	r2, r0
   b402e:	d002      	beq.n	b4036 <module_user_pre_init+0x16>
    {
        memcpy(&link_global_data_start, &link_global_data_initial_values, link_global_data_size);
   b4030:	1a12      	subs	r2, r2, r0
   b4032:	f008 f899 	bl	bc168 <memcpy>
    }

    memset(&link_bss_location, 0, link_bss_size );
   b4036:	4807      	ldr	r0, [pc, #28]	; (b4054 <module_user_pre_init+0x34>)
   b4038:	4a07      	ldr	r2, [pc, #28]	; (b4058 <module_user_pre_init+0x38>)
   b403a:	2100      	movs	r1, #0
   b403c:	1a12      	subs	r2, r2, r0
   b403e:	f008 f8bb 	bl	bc1b8 <memset>
    return &link_global_data_start;
}
   b4042:	4801      	ldr	r0, [pc, #4]	; (b4048 <module_user_pre_init+0x28>)
   b4044:	bd08      	pop	{r3, pc}
   b4046:	bf00      	nop
   b4048:	200350a8 	.word	0x200350a8
   b404c:	000bf118 	.word	0x000bf118
   b4050:	200352a0 	.word	0x200352a0
   b4054:	200352a0 	.word	0x200352a0
   b4058:	2003e7ed 	.word	0x2003e7ed

000b405c <module_user_init>:
extern constructor_ptr_t link_constructors_location[];
extern constructor_ptr_t link_constructors_end;
#define link_constructors_size   ((unsigned long)&link_constructors_end  -  (unsigned long)&link_constructors_location )

void module_user_init()
{
   b405c:	b570      	push	{r4, r5, r6, lr}
    module_user_init_hook();

    // invoke constructors
    for (size_t ctor_num=0; ctor_num < link_constructors_size/sizeof(constructor_ptr_t); ctor_num++ )
   b405e:	4e07      	ldr	r6, [pc, #28]	; (b407c <module_user_init+0x20>)
   b4060:	4c07      	ldr	r4, [pc, #28]	; (b4080 <module_user_init+0x24>)
    module_user_init_hook();
   b4062:	f006 ffff 	bl	bb064 <module_user_init_hook>
    for (size_t ctor_num=0; ctor_num < link_constructors_size/sizeof(constructor_ptr_t); ctor_num++ )
   b4066:	1ba4      	subs	r4, r4, r6
   b4068:	08a4      	lsrs	r4, r4, #2
   b406a:	2500      	movs	r5, #0
   b406c:	42ac      	cmp	r4, r5
   b406e:	d100      	bne.n	b4072 <module_user_init+0x16>
    {
        link_constructors_location[ctor_num]();
    }
}
   b4070:	bd70      	pop	{r4, r5, r6, pc}
        link_constructors_location[ctor_num]();
   b4072:	f856 3b04 	ldr.w	r3, [r6], #4
   b4076:	4798      	blx	r3
    for (size_t ctor_num=0; ctor_num < link_constructors_size/sizeof(constructor_ptr_t); ctor_num++ )
   b4078:	3501      	adds	r5, #1
   b407a:	e7f7      	b.n	b406c <module_user_init+0x10>
   b407c:	000bf0c4 	.word	0x000bf0c4
   b4080:	000bf0e8 	.word	0x000bf0e8

000b4084 <module_user_setup>:

/**
 * Export these functions with a fuller name so they don't clash with the setup/loop wrappers in the system module.
 */
void module_user_setup() {
    setup();
   b4084:	f002 bdf2 	b.w	b6c6c <setup>

000b4088 <module_user_loop>:
}

void module_user_loop() {
   b4088:	b508      	push	{r3, lr}
    loop();
   b408a:	f002 ff5d 	bl	b6f48 <loop>
    _post_loop();
}
   b408e:	e8bd 4008 	ldmia.w	sp!, {r3, lr}
    _post_loop();
   b4092:	f006 bf9f 	b.w	bafd4 <_post_loop>

000b4096 <_Znwj>:
 * Implement C++ new/delete operators using the heap
 */

void *operator new(size_t size)
{
	return malloc(size);
   b4096:	f004 bd01 	b.w	b8a9c <malloc>

000b409a <_Znaj>:
   b409a:	f004 bcff 	b.w	b8a9c <malloc>

000b409e <_ZdlPv>:
	return malloc(size);
}

void operator delete(void *p)
{
	free(p);
   b409e:	f004 bd05 	b.w	b8aac <free>

000b40a2 <_ZdlPvj>:
	free(p);
}

void operator delete(void *p, size_t size)
{
	free(p);
   b40a2:	f004 bd03 	b.w	b8aac <free>

000b40a6 <__cxa_guard_acquire>:

/* Provide default implemenation for __cxa_guard_acquire() and
 * __cxa_guard_release(). Note: these must be revisited if a multitasking
 * OS is ported to this platform. */
__extension__ typedef int __guard __attribute__((mode (__DI__)));
int __cxa_guard_acquire(__guard *g) {return !*(char *)(g);};
   b40a6:	7800      	ldrb	r0, [r0, #0]
   b40a8:	fab0 f080 	clz	r0, r0
   b40ac:	0940      	lsrs	r0, r0, #5
   b40ae:	4770      	bx	lr

000b40b0 <__cxa_guard_release>:
void __cxa_guard_release (__guard *g) {*(char *)g = 1;};
   b40b0:	2301      	movs	r3, #1
   b40b2:	7003      	strb	r3, [r0, #0]
   b40b4:	4770      	bx	lr
	...

000b40b8 <_ZN16JsonParserStaticILj10000ELj1000EED1Ev>:
 *
 * @param MAX_TOKENS The maximum number of tokens you expect. Each object has a token and two for each key/value pair.
 * Each array is a token and one for each element in the array.
 */
template <size_t BUFFER_SIZE, size_t MAX_TOKENS>
class JsonParserStatic : public JsonParser {
   b40b8:	b510      	push	{r4, lr}
   b40ba:	4b03      	ldr	r3, [pc, #12]	; (b40c8 <_ZN16JsonParserStaticILj10000ELj1000EED1Ev+0x10>)
   b40bc:	6003      	str	r3, [r0, #0]
   b40be:	4604      	mov	r4, r0
   b40c0:	f003 fdea 	bl	b7c98 <_ZN10JsonParserD1Ev>
   b40c4:	4620      	mov	r0, r4
   b40c6:	bd10      	pop	{r4, pc}
   b40c8:	000be654 	.word	0x000be654

000b40cc <_ZN16JsonParserStaticILj10000ELj1000EED0Ev>:
   b40cc:	b510      	push	{r4, lr}
   b40ce:	4604      	mov	r4, r0
   b40d0:	f7ff fff2 	bl	b40b8 <_ZN16JsonParserStaticILj10000ELj1000EED1Ev>
   b40d4:	4620      	mov	r0, r4
   b40d6:	f246 51bc 	movw	r1, #26044	; 0x65bc
   b40da:	f7ff ffe2 	bl	b40a2 <_ZdlPvj>
   b40de:	4620      	mov	r0, r4
   b40e0:	bd10      	pop	{r4, pc}
	...

000b40e4 <_ZNSt12_Vector_baseISt6vectorIiSaIiEESaIS2_EE11_M_allocateEj.isra.0>:

    public:
      _Vector_impl _M_impl;

      pointer
      _M_allocate(size_t __n)
   b40e4:	b508      	push	{r3, lr}
      {
	typedef __gnu_cxx::__alloc_traits<_Tp_alloc_type> _Tr;
	return __n != 0 ? _Tr::allocate(_M_impl, __n) : pointer();
   b40e6:	4603      	mov	r3, r0
   b40e8:	b150      	cbz	r0, b4100 <_ZNSt12_Vector_baseISt6vectorIiSaIiEESaIS2_EE11_M_allocateEj.isra.0+0x1c>
      // NB: __n is permitted to be 0.  The C++ standard says nothing
      // about what the return value is when __n == 0.
      _GLIBCXX_NODISCARD _Tp*
      allocate(size_type __n, const void* = static_cast<const void*>(0))
      {
	if (__n > this->_M_max_size())
   b40ea:	4a06      	ldr	r2, [pc, #24]	; (b4104 <_ZNSt12_Vector_baseISt6vectorIiSaIiEESaIS2_EE11_M_allocateEj.isra.0+0x20>)
   b40ec:	4290      	cmp	r0, r2
   b40ee:	d901      	bls.n	b40f4 <_ZNSt12_Vector_baseISt6vectorIiSaIiEESaIS2_EE11_M_allocateEj.isra.0+0x10>
	  std::__throw_bad_alloc();
   b40f0:	f007 f852 	bl	bb198 <_ZSt17__throw_bad_allocv>
	  {
	    std::align_val_t __al = std::align_val_t(alignof(_Tp));
	    return static_cast<_Tp*>(::operator new(__n * sizeof(_Tp), __al));
	  }
#endif
	return static_cast<_Tp*>(::operator new(__n * sizeof(_Tp)));
   b40f4:	200c      	movs	r0, #12
   b40f6:	4358      	muls	r0, r3
      }
   b40f8:	e8bd 4008 	ldmia.w	sp!, {r3, lr}
   b40fc:	f7ff bfcb 	b.w	b4096 <_Znwj>
   b4100:	bd08      	pop	{r3, pc}
   b4102:	bf00      	nop
   b4104:	0aaaaaaa 	.word	0x0aaaaaaa

000b4108 <_ZNSt7__cxx1112basic_stringIcSt11char_traitsIcESaIcEEC2IS3_EEPKcRKS3_.constprop.0.isra.0>:

      pointer
      _M_local_data()
      {
#if __cplusplus >= 201103L
	return std::pointer_traits<pointer>::pointer_to(*_M_local_buf);
   b4108:	f100 0308 	add.w	r3, r0, #8
#if __cpp_deduction_guides && ! defined _GLIBCXX_DEFINING_STRING_INSTANTIATIONS
      // _GLIBCXX_RESOLVE_LIB_DEFECTS
      // 3076. basic_string CTAD ambiguity
      template<typename = _RequireAllocator<_Alloc>>
#endif
      basic_string(const _CharT* __s, const _Alloc& __a = _Alloc())
   b410c:	b573      	push	{r0, r1, r4, r5, r6, lr}
   b410e:	4604      	mov	r4, r0
	: allocator_type(__a), _M_p(__dat) { }
   b4110:	6003      	str	r3, [r0, #0]
      : _M_dataplus(_M_local_data(), __a)
      { _M_construct(__s, __s ? __s + traits_type::length(__s) : __s+npos); }
   b4112:	460d      	mov	r5, r1
   b4114:	b1d9      	cbz	r1, b414e <_ZNSt7__cxx1112basic_stringIcSt11char_traitsIcESaIcEEC2IS3_EEPKcRKS3_.constprop.0.isra.0+0x46>
      {
#if __cplusplus >= 201703L
	if (__constant_string_p(__s))
	  return __gnu_cxx::char_traits<char_type>::length(__s);
#endif
	return __builtin_strlen(__s);
   b4116:	4608      	mov	r0, r1
   b4118:	f008 f896 	bl	bc248 <strlen>
	  std::__throw_logic_error(__N("basic_string::"
				       "_M_construct null not valid"));

	size_type __dnew = static_cast<size_type>(std::distance(__beg, __end));

	if (__dnew > size_type(_S_local_capacity))
   b411c:	280f      	cmp	r0, #15
   b411e:	eb05 0600 	add.w	r6, r5, r0
	size_type __dnew = static_cast<size_type>(std::distance(__beg, __end));
   b4122:	9001      	str	r0, [sp, #4]
	if (__dnew > size_type(_S_local_capacity))
   b4124:	d907      	bls.n	b4136 <_ZNSt7__cxx1112basic_stringIcSt11char_traitsIcESaIcEEC2IS3_EEPKcRKS3_.constprop.0.isra.0+0x2e>
	  {
	    _M_data(_M_create(__dnew, size_type(0)));
   b4126:	2200      	movs	r2, #0
   b4128:	a901      	add	r1, sp, #4
   b412a:	4620      	mov	r0, r4
   b412c:	f007 f84a 	bl	bb1c4 <_ZNSt7__cxx1112basic_stringIcSt11char_traitsIcESaIcEE9_M_createERjj>
      { _M_allocated_capacity = __capacity; }
   b4130:	9b01      	ldr	r3, [sp, #4]
      { _M_dataplus._M_p = __p; }
   b4132:	6020      	str	r0, [r4, #0]
      { _M_allocated_capacity = __capacity; }
   b4134:	60a3      	str	r3, [r4, #8]
	    _M_capacity(__dnew);
	  }

	// Check for out_of_range and length_error exceptions.
	__try
	  { this->_S_copy_chars(_M_data(), __beg, __end); }
   b4136:	4632      	mov	r2, r6
   b4138:	4629      	mov	r1, r5
   b413a:	6820      	ldr	r0, [r4, #0]
   b413c:	f007 f87d 	bl	bb23a <_ZNSt7__cxx1112basic_stringIcSt11char_traitsIcESaIcEE13_S_copy_charsEPcPKcS7_>
	  {
	    _M_dispose();
	    __throw_exception_again;
	  }

	_M_set_length(__dnew);
   b4140:	9b01      	ldr	r3, [sp, #4]
      { __c1 = __c2; }
   b4142:	6822      	ldr	r2, [r4, #0]
      { _M_string_length = __length; }
   b4144:	6063      	str	r3, [r4, #4]
   b4146:	2100      	movs	r1, #0
   b4148:	54d1      	strb	r1, [r2, r3]
      { _M_construct(__s, __s ? __s + traits_type::length(__s) : __s+npos); }
   b414a:	b002      	add	sp, #8
   b414c:	bd70      	pop	{r4, r5, r6, pc}
	  std::__throw_logic_error(__N("basic_string::"
   b414e:	4801      	ldr	r0, [pc, #4]	; (b4154 <_ZNSt7__cxx1112basic_stringIcSt11char_traitsIcESaIcEEC2IS3_EEPKcRKS3_.constprop.0.isra.0+0x4c>)
   b4150:	f007 f825 	bl	bb19e <_ZSt19__throw_logic_errorPKc>
   b4154:	000be2cc 	.word	0x000be2cc

000b4158 <_ZNSt12_Vector_baseI7RailwaySaIS0_EE11_M_allocateEj.isra.0>:
      _M_allocate(size_t __n)
   b4158:	b508      	push	{r3, lr}
	return __n != 0 ? _Tr::allocate(_M_impl, __n) : pointer();
   b415a:	4603      	mov	r3, r0
   b415c:	b150      	cbz	r0, b4174 <_ZNSt12_Vector_baseI7RailwaySaIS0_EE11_M_allocateEj.isra.0+0x1c>
	if (__n > this->_M_max_size())
   b415e:	4a06      	ldr	r2, [pc, #24]	; (b4178 <_ZNSt12_Vector_baseI7RailwaySaIS0_EE11_M_allocateEj.isra.0+0x20>)
   b4160:	4290      	cmp	r0, r2
   b4162:	d901      	bls.n	b4168 <_ZNSt12_Vector_baseI7RailwaySaIS0_EE11_M_allocateEj.isra.0+0x10>
	  std::__throw_bad_alloc();
   b4164:	f007 f818 	bl	bb198 <_ZSt17__throw_bad_allocv>
	return static_cast<_Tp*>(::operator new(__n * sizeof(_Tp)));
   b4168:	206c      	movs	r0, #108	; 0x6c
   b416a:	4358      	muls	r0, r3
      }
   b416c:	e8bd 4008 	ldmia.w	sp!, {r3, lr}
   b4170:	f7ff bf91 	b.w	b4096 <_Znwj>
   b4174:	bd08      	pop	{r3, pc}
   b4176:	bf00      	nop
   b4178:	012f684b 	.word	0x012f684b

000b417c <_ZNSt12_Vector_baseINSt7__cxx1112basic_stringIcSt11char_traitsIcESaIcEEESaIS5_EE11_M_allocateEj.isra.0>:
      _M_allocate(size_t __n)
   b417c:	b508      	push	{r3, lr}
	return __n != 0 ? _Tr::allocate(_M_impl, __n) : pointer();
   b417e:	4603      	mov	r3, r0
   b4180:	b150      	cbz	r0, b4198 <_ZNSt12_Vector_baseINSt7__cxx1112basic_stringIcSt11char_traitsIcESaIcEEESaIS5_EE11_M_allocateEj.isra.0+0x1c>
	if (__n > this->_M_max_size())
   b4182:	4a06      	ldr	r2, [pc, #24]	; (b419c <_ZNSt12_Vector_baseINSt7__cxx1112basic_stringIcSt11char_traitsIcESaIcEEESaIS5_EE11_M_allocateEj.isra.0+0x20>)
   b4184:	4290      	cmp	r0, r2
   b4186:	d901      	bls.n	b418c <_ZNSt12_Vector_baseINSt7__cxx1112basic_stringIcSt11char_traitsIcESaIcEEESaIS5_EE11_M_allocateEj.isra.0+0x10>
	  std::__throw_bad_alloc();
   b4188:	f007 f806 	bl	bb198 <_ZSt17__throw_bad_allocv>
	return static_cast<_Tp*>(::operator new(__n * sizeof(_Tp)));
   b418c:	2018      	movs	r0, #24
   b418e:	4358      	muls	r0, r3
      }
   b4190:	e8bd 4008 	ldmia.w	sp!, {r3, lr}
   b4194:	f7ff bf7f 	b.w	b4096 <_Znwj>
   b4198:	bd08      	pop	{r3, pc}
   b419a:	bf00      	nop
   b419c:	05555555 	.word	0x05555555

000b41a0 <_ZNSt12_Vector_baseIiSaIiEE11_M_allocateEj.isra.0>:
      _M_allocate(size_t __n)
   b41a0:	b508      	push	{r3, lr}
	return __n != 0 ? _Tr::allocate(_M_impl, __n) : pointer();
   b41a2:	b148      	cbz	r0, b41b8 <_ZNSt12_Vector_baseIiSaIiEE11_M_allocateEj.isra.0+0x18>
	if (__n > this->_M_max_size())
   b41a4:	f1b0 5f00 	cmp.w	r0, #536870912	; 0x20000000
   b41a8:	d301      	bcc.n	b41ae <_ZNSt12_Vector_baseIiSaIiEE11_M_allocateEj.isra.0+0xe>
	  std::__throw_bad_alloc();
   b41aa:	f006 fff5 	bl	bb198 <_ZSt17__throw_bad_allocv>
      }
   b41ae:	e8bd 4008 	ldmia.w	sp!, {r3, lr}
	return static_cast<_Tp*>(::operator new(__n * sizeof(_Tp)));
   b41b2:	0080      	lsls	r0, r0, #2
   b41b4:	f7ff bf6f 	b.w	b4096 <_Znwj>
   b41b8:	bd08      	pop	{r3, pc}

000b41ba <_ZNSt12_Vector_baseI10CheckpointSaIS0_EE11_M_allocateEj.isra.0>:
      _M_allocate(size_t __n)
   b41ba:	b508      	push	{r3, lr}
	return __n != 0 ? _Tr::allocate(_M_impl, __n) : pointer();
   b41bc:	b148      	cbz	r0, b41d2 <_ZNSt12_Vector_baseI10CheckpointSaIS0_EE11_M_allocateEj.isra.0+0x18>
	if (__n > this->_M_max_size())
   b41be:	f1b0 5f80 	cmp.w	r0, #268435456	; 0x10000000
   b41c2:	d301      	bcc.n	b41c8 <_ZNSt12_Vector_baseI10CheckpointSaIS0_EE11_M_allocateEj.isra.0+0xe>
	  std::__throw_bad_alloc();
   b41c4:	f006 ffe8 	bl	bb198 <_ZSt17__throw_bad_allocv>
      }
   b41c8:	e8bd 4008 	ldmia.w	sp!, {r3, lr}
	return static_cast<_Tp*>(::operator new(__n * sizeof(_Tp)));
   b41cc:	00c0      	lsls	r0, r0, #3
   b41ce:	f7ff bf62 	b.w	b4096 <_Znwj>
   b41d2:	bd08      	pop	{r3, pc}

000b41d4 <_ZNSt7__cxx1112basic_stringIcSt11char_traitsIcESaIcEEC2ERKS4_.isra.0>:
      basic_string(const basic_string& __str)
   b41d4:	b573      	push	{r0, r1, r4, r5, r6, lr}
	return std::pointer_traits<pointer>::pointer_to(*_M_local_buf);
   b41d6:	f100 0308 	add.w	r3, r0, #8
	: allocator_type(std::move(__a)), _M_p(__dat) { }
   b41da:	6003      	str	r3, [r0, #0]

      ///  Returns the number of characters in the string, not including any
      ///  null-termination.
      size_type
      length() const _GLIBCXX_NOEXCEPT
      { return _M_string_length; }
   b41dc:	e9d1 5300 	ldrd	r5, r3, [r1]
      basic_string(const basic_string& __str)
   b41e0:	4604      	mov	r4, r0
      { _M_construct(__str._M_data(), __str._M_data() + __str.length()); }
   b41e2:	18ee      	adds	r6, r5, r3
	if (__gnu_cxx::__is_null_pointer(__beg) && __beg != __end)
   b41e4:	b91d      	cbnz	r5, b41ee <_ZNSt7__cxx1112basic_stringIcSt11char_traitsIcESaIcEEC2ERKS4_.isra.0+0x1a>
   b41e6:	b116      	cbz	r6, b41ee <_ZNSt7__cxx1112basic_stringIcSt11char_traitsIcESaIcEEC2ERKS4_.isra.0+0x1a>
	  std::__throw_logic_error(__N("basic_string::"
   b41e8:	480c      	ldr	r0, [pc, #48]	; (b421c <_ZNSt7__cxx1112basic_stringIcSt11char_traitsIcESaIcEEC2ERKS4_.isra.0+0x48>)
   b41ea:	f006 ffd8 	bl	bb19e <_ZSt19__throw_logic_errorPKc>
	if (__dnew > size_type(_S_local_capacity))
   b41ee:	2b0f      	cmp	r3, #15
	size_type __dnew = static_cast<size_type>(std::distance(__beg, __end));
   b41f0:	9301      	str	r3, [sp, #4]
	if (__dnew > size_type(_S_local_capacity))
   b41f2:	d907      	bls.n	b4204 <_ZNSt7__cxx1112basic_stringIcSt11char_traitsIcESaIcEEC2ERKS4_.isra.0+0x30>
	    _M_data(_M_create(__dnew, size_type(0)));
   b41f4:	2200      	movs	r2, #0
   b41f6:	a901      	add	r1, sp, #4
   b41f8:	4620      	mov	r0, r4
   b41fa:	f006 ffe3 	bl	bb1c4 <_ZNSt7__cxx1112basic_stringIcSt11char_traitsIcESaIcEE9_M_createERjj>
      { _M_allocated_capacity = __capacity; }
   b41fe:	9b01      	ldr	r3, [sp, #4]
      { _M_dataplus._M_p = __p; }
   b4200:	6020      	str	r0, [r4, #0]
      { _M_allocated_capacity = __capacity; }
   b4202:	60a3      	str	r3, [r4, #8]
	  { this->_S_copy_chars(_M_data(), __beg, __end); }
   b4204:	4632      	mov	r2, r6
   b4206:	4629      	mov	r1, r5
   b4208:	6820      	ldr	r0, [r4, #0]
   b420a:	f007 f811 	bl	bb230 <_ZNSt7__cxx1112basic_stringIcSt11char_traitsIcESaIcEE13_S_copy_charsEPcS5_S5_>
	_M_set_length(__dnew);
   b420e:	9b01      	ldr	r3, [sp, #4]
   b4210:	6822      	ldr	r2, [r4, #0]
      { _M_string_length = __length; }
   b4212:	6063      	str	r3, [r4, #4]
   b4214:	2100      	movs	r1, #0
   b4216:	54d1      	strb	r1, [r2, r3]
      { _M_construct(__str._M_data(), __str._M_data() + __str.length()); }
   b4218:	b002      	add	sp, #8
   b421a:	bd70      	pop	{r4, r5, r6, pc}
   b421c:	000be2cc 	.word	0x000be2cc

000b4220 <_ZN7TwoWire5writeEi.isra.0>:
  bool unlock();

  inline size_t write(unsigned long n) { return write((uint8_t)n); }
  inline size_t write(long n) { return write((uint8_t)n); }
  inline size_t write(unsigned int n) { return write((uint8_t)n); }
  inline size_t write(int n) { return write((uint8_t)n); }
   b4220:	6803      	ldr	r3, [r0, #0]
   b4222:	b2c9      	uxtb	r1, r1
   b4224:	689b      	ldr	r3, [r3, #8]
   b4226:	4718      	bx	r3

000b4228 <_ZN5Print5writeEPKc.isra.0>:

    int getWriteError() { return write_error; }
    void clearWriteError() { setWriteError(0); }

    virtual size_t write(uint8_t) = 0;
    size_t write(const char *str) {
   b4228:	b513      	push	{r0, r1, r4, lr}
   b422a:	4604      	mov	r4, r0
      if (str == NULL) return 0;
   b422c:	b161      	cbz	r1, b4248 <_ZN5Print5writeEPKc.isra.0+0x20>
      return write((const uint8_t *)str, strlen(str));
   b422e:	4608      	mov	r0, r1
   b4230:	9101      	str	r1, [sp, #4]
   b4232:	f008 f809 	bl	bc248 <strlen>
   b4236:	6823      	ldr	r3, [r4, #0]
   b4238:	9901      	ldr	r1, [sp, #4]
   b423a:	68db      	ldr	r3, [r3, #12]
   b423c:	4602      	mov	r2, r0
   b423e:	4620      	mov	r0, r4
    }
   b4240:	b002      	add	sp, #8
   b4242:	e8bd 4010 	ldmia.w	sp!, {r4, lr}
      return write((const uint8_t *)str, strlen(str));
   b4246:	4718      	bx	r3
    }
   b4248:	b002      	add	sp, #8
   b424a:	bd10      	pop	{r4, pc}

000b424c <_ZNSt6vectorI10CheckpointSaIS0_EEaSERKS2_.isra.0>:
  template<typename _Tp, typename _Alloc>
    vector<_Tp, _Alloc>&
    vector<_Tp, _Alloc>::
    operator=(const vector<_Tp, _Alloc>& __x)
    {
      if (&__x != this)
   b424c:	4281      	cmp	r1, r0
    vector<_Tp, _Alloc>::
   b424e:	b5f8      	push	{r3, r4, r5, r6, r7, lr}
   b4250:	4604      	mov	r4, r0
   b4252:	460d      	mov	r5, r1
      if (&__x != this)
   b4254:	d025      	beq.n	b42a2 <_ZNSt6vectorI10CheckpointSaIS0_EEaSERKS2_.isra.0+0x56>

      // [23.2.4.2] capacity
      /**  Returns the number of elements in the %vector.  */
      size_type
      size() const _GLIBCXX_NOEXCEPT
      { return size_type(this->_M_impl._M_finish - this->_M_impl._M_start); }
   b4256:	e9d1 7100 	ldrd	r7, r1, [r1]
       *  hold before needing to allocate more memory.
       */
      size_type
      capacity() const _GLIBCXX_NOEXCEPT
      { return size_type(this->_M_impl._M_end_of_storage
			 - this->_M_impl._M_start); }
   b425a:	6800      	ldr	r0, [r0, #0]
   b425c:	68a3      	ldr	r3, [r4, #8]
      { return size_type(this->_M_impl._M_finish - this->_M_impl._M_start); }
   b425e:	1bce      	subs	r6, r1, r7
			 - this->_M_impl._M_start); }
   b4260:	1a1b      	subs	r3, r3, r0
	      std::__alloc_on_copy(_M_get_Tp_allocator(),
				   __x._M_get_Tp_allocator());
	    }
#endif
	  const size_type __xlen = __x.size();
	  if (__xlen > capacity())
   b4262:	429e      	cmp	r6, r3
   b4264:	d91e      	bls.n	b42a4 <_ZNSt6vectorI10CheckpointSaIS0_EEaSERKS2_.isra.0+0x58>
      template<typename _ForwardIterator>
	pointer
	_M_allocate_and_copy(size_type __n,
			     _ForwardIterator __first, _ForwardIterator __last)
	{
	  pointer __result = this->_M_allocate(__n);
   b4266:	10f0      	asrs	r0, r6, #3
   b4268:	f7ff ffa7 	bl	b41ba <_ZNSt12_Vector_baseI10CheckpointSaIS0_EE11_M_allocateEj.isra.0>
   b426c:	2300      	movs	r3, #0
   b426e:	4605      	mov	r5, r0
		      _ForwardIterator __result)
        {
	  _ForwardIterator __cur = __result;
	  __try
	    {
	      for (; __first != __last; ++__first, (void)++__cur)
   b4270:	429e      	cmp	r6, r3
   b4272:	d00a      	beq.n	b428a <_ZNSt6vectorI10CheckpointSaIS0_EEaSERKS2_.isra.0+0x3e>
   */
#if __cplusplus >= 201103L
  template<typename _Tp, typename... _Args>
    inline void
    _Construct(_Tp* __p, _Args&&... __args)
    { ::new(static_cast<void*>(__p)) _Tp(std::forward<_Args>(__args)...); }
   b4274:	18ea      	adds	r2, r5, r3
   b4276:	bf1c      	itt	ne
   b4278:	18f9      	addne	r1, r7, r3
   b427a:	e9d1 0100 	ldrdne	r0, r1, [r1]
   b427e:	f103 0308 	add.w	r3, r3, #8
   b4282:	bf18      	it	ne
   b4284:	e9c2 0100 	strdne	r0, r1, [r2]
   b4288:	e7f2      	b.n	b4270 <_ZNSt6vectorI10CheckpointSaIS0_EEaSERKS2_.isra.0+0x24>
	    {
	      pointer __tmp = _M_allocate_and_copy(__xlen, __x.begin(),
						   __x.end());
	      std::_Destroy(this->_M_impl._M_start, this->_M_impl._M_finish,
   b428a:	6820      	ldr	r0, [r4, #0]
	if (__p)
   b428c:	b118      	cbz	r0, b4296 <_ZNSt6vectorI10CheckpointSaIS0_EEaSERKS2_.isra.0+0x4a>
			    _M_get_Tp_allocator());
	      _M_deallocate(this->_M_impl._M_start,
			    this->_M_impl._M_end_of_storage
			    - this->_M_impl._M_start);
   b428e:	68a1      	ldr	r1, [r4, #8]
# endif
			      std::align_val_t(alignof(_Tp)));
	    return;
	  }
#endif
	::operator delete(__p
   b4290:	1a09      	subs	r1, r1, r0
   b4292:	f7ff ff06 	bl	b40a2 <_ZdlPvj>
	      this->_M_impl._M_start = __tmp;
   b4296:	6025      	str	r5, [r4, #0]
	      this->_M_impl._M_end_of_storage = this->_M_impl._M_start + __xlen;
   b4298:	4435      	add	r5, r6
   b429a:	60a5      	str	r5, [r4, #8]
	      std::__uninitialized_copy_a(__x._M_impl._M_start + size(),
					  __x._M_impl._M_finish,
					  this->_M_impl._M_finish,
					  _M_get_Tp_allocator());
	    }
	  this->_M_impl._M_finish = this->_M_impl._M_start + __xlen;
   b429c:	6823      	ldr	r3, [r4, #0]
   b429e:	4433      	add	r3, r6
   b42a0:	6063      	str	r3, [r4, #4]
	}
      return *this;
    }
   b42a2:	bdf8      	pop	{r3, r4, r5, r6, r7, pc}
      { return size_type(this->_M_impl._M_finish - this->_M_impl._M_start); }
   b42a4:	6862      	ldr	r2, [r4, #4]
   b42a6:	1a12      	subs	r2, r2, r0
	  else if (size() >= __xlen)
   b42a8:	4296      	cmp	r6, r2
   b42aa:	d806      	bhi.n	b42ba <_ZNSt6vectorI10CheckpointSaIS0_EEaSERKS2_.isra.0+0x6e>
					   is_copy_assignable<_Tp>>;
	  // trivial types can have deleted assignment
	  static_assert( __assignable::type::value, "type is not assignable" );
#endif
	  const ptrdiff_t _Num = __last - __first;
	  if (_Num)
   b42ac:	42b9      	cmp	r1, r7
   b42ae:	d0f5      	beq.n	b429c <_ZNSt6vectorI10CheckpointSaIS0_EEaSERKS2_.isra.0+0x50>
	    __builtin_memmove(__result, __first, sizeof(_Tp) * _Num);
   b42b0:	4632      	mov	r2, r6
   b42b2:	4639      	mov	r1, r7
   b42b4:	f007 ff66 	bl	bc184 <memmove>

      _GLIBCXX_CONSTEXPR __normal_iterator() _GLIBCXX_NOEXCEPT
      : _M_current(_Iterator()) { }

      explicit _GLIBCXX20_CONSTEXPR
      __normal_iterator(const _Iterator& __i) _GLIBCXX_NOEXCEPT
   b42b8:	e7f0      	b.n	b429c <_ZNSt6vectorI10CheckpointSaIS0_EEaSERKS2_.isra.0+0x50>
	  if (_Num)
   b42ba:	b112      	cbz	r2, b42c2 <_ZNSt6vectorI10CheckpointSaIS0_EEaSERKS2_.isra.0+0x76>
	    __builtin_memmove(__result, __first, sizeof(_Tp) * _Num);
   b42bc:	4639      	mov	r1, r7
   b42be:	f007 ff61 	bl	bc184 <memmove>
   b42c2:	e9d4 2700 	ldrd	r2, r7, [r4]
   b42c6:	1abb      	subs	r3, r7, r2
	      std::__uninitialized_copy_a(__x._M_impl._M_start + size(),
   b42c8:	682a      	ldr	r2, [r5, #0]
   b42ca:	686d      	ldr	r5, [r5, #4]
   b42cc:	441a      	add	r2, r3
        __uninit_copy(_InputIterator __first, _InputIterator __last,
   b42ce:	1aad      	subs	r5, r5, r2
					  __x._M_impl._M_finish,
   b42d0:	2300      	movs	r3, #0
	      for (; __first != __last; ++__first, (void)++__cur)
   b42d2:	429d      	cmp	r5, r3
   b42d4:	d0e2      	beq.n	b429c <_ZNSt6vectorI10CheckpointSaIS0_EEaSERKS2_.isra.0+0x50>
   b42d6:	eb17 0c03 	adds.w	ip, r7, r3
   b42da:	bf1c      	itt	ne
   b42dc:	18d1      	addne	r1, r2, r3
   b42de:	e9d1 0100 	ldrdne	r0, r1, [r1]
   b42e2:	f103 0308 	add.w	r3, r3, #8
   b42e6:	bf18      	it	ne
   b42e8:	e9cc 0100 	strdne	r0, r1, [ip]
   b42ec:	e7f1      	b.n	b42d2 <_ZNSt6vectorI10CheckpointSaIS0_EEaSERKS2_.isra.0+0x86>
	...

000b42f0 <_ZNSt6vectorINSt7__cxx1112basic_stringIcSt11char_traitsIcESaIcEEESaIS5_EEaSERKS7_.isra.0>:
      if (&__x != this)
   b42f0:	4281      	cmp	r1, r0
    vector<_Tp, _Alloc>::
   b42f2:	e92d 4ff8 	stmdb	sp!, {r3, r4, r5, r6, r7, r8, r9, sl, fp, lr}
   b42f6:	4604      	mov	r4, r0
   b42f8:	468a      	mov	sl, r1
      if (&__x != this)
   b42fa:	d036      	beq.n	b436a <_ZNSt6vectorINSt7__cxx1112basic_stringIcSt11char_traitsIcESaIcEEESaIS5_EEaSERKS7_.isra.0+0x7a>
   b42fc:	e9d1 5b00 	ldrd	r5, fp, [r1]
			 - this->_M_impl._M_start); }
   b4300:	f8d0 9000 	ldr.w	r9, [r0]
   b4304:	6883      	ldr	r3, [r0, #8]
      { return size_type(this->_M_impl._M_finish - this->_M_impl._M_start); }
   b4306:	4a39      	ldr	r2, [pc, #228]	; (b43ec <_ZNSt6vectorINSt7__cxx1112basic_stringIcSt11char_traitsIcESaIcEEESaIS5_EEaSERKS7_.isra.0+0xfc>)
   b4308:	ebab 0705 	sub.w	r7, fp, r5
			 - this->_M_impl._M_start); }
   b430c:	eba3 0309 	sub.w	r3, r3, r9
      { return size_type(this->_M_impl._M_finish - this->_M_impl._M_start); }
   b4310:	ea4f 08e7 	mov.w	r8, r7, asr #3
	  if (__xlen > capacity())
   b4314:	42bb      	cmp	r3, r7
   b4316:	fb02 f808 	mul.w	r8, r2, r8
   b431a:	d228      	bcs.n	b436e <_ZNSt6vectorINSt7__cxx1112basic_stringIcSt11char_traitsIcESaIcEEESaIS5_EEaSERKS7_.isra.0+0x7e>
	  pointer __result = this->_M_allocate(__n);
   b431c:	4640      	mov	r0, r8
   b431e:	f7ff ff2d 	bl	b417c <_ZNSt12_Vector_baseINSt7__cxx1112basic_stringIcSt11char_traitsIcESaIcEEESaIS5_EE11_M_allocateEj.isra.0>
   b4322:	4606      	mov	r6, r0
	  _ForwardIterator __cur = __result;
   b4324:	4680      	mov	r8, r0
	      for (; __first != __last; ++__first, (void)++__cur)
   b4326:	45ab      	cmp	fp, r5
   b4328:	d00a      	beq.n	b4340 <_ZNSt6vectorINSt7__cxx1112basic_stringIcSt11char_traitsIcESaIcEEESaIS5_EEaSERKS7_.isra.0+0x50>
   b432a:	f1b8 0f00 	cmp.w	r8, #0
   b432e:	d003      	beq.n	b4338 <_ZNSt6vectorINSt7__cxx1112basic_stringIcSt11char_traitsIcESaIcEEESaIS5_EEaSERKS7_.isra.0+0x48>
   b4330:	4629      	mov	r1, r5
   b4332:	4640      	mov	r0, r8
   b4334:	f7ff ff4e 	bl	b41d4 <_ZNSt7__cxx1112basic_stringIcSt11char_traitsIcESaIcEEC2ERKS4_.isra.0>
   b4338:	f108 0818 	add.w	r8, r8, #24
   b433c:	3518      	adds	r5, #24
   b433e:	e7f2      	b.n	b4326 <_ZNSt6vectorINSt7__cxx1112basic_stringIcSt11char_traitsIcESaIcEEESaIS5_EEaSERKS7_.isra.0+0x36>
	      std::_Destroy(this->_M_impl._M_start, this->_M_impl._M_finish,
   b4340:	e9d4 5800 	ldrd	r5, r8, [r4]
    {
      template<typename _ForwardIterator>
	static _GLIBCXX20_CONSTEXPR void
	__destroy(_ForwardIterator __first, _ForwardIterator __last)
	{
	  for (; __first != __last; ++__first)
   b4344:	45a8      	cmp	r8, r5
   b4346:	d004      	beq.n	b4352 <_ZNSt6vectorINSt7__cxx1112basic_stringIcSt11char_traitsIcESaIcEEESaIS5_EEaSERKS7_.isra.0+0x62>
      { _M_dispose(); }
   b4348:	4628      	mov	r0, r5
   b434a:	f006 ff5d 	bl	bb208 <_ZNSt7__cxx1112basic_stringIcSt11char_traitsIcESaIcEE10_M_disposeEv>
   b434e:	3518      	adds	r5, #24
   b4350:	e7f8      	b.n	b4344 <_ZNSt6vectorINSt7__cxx1112basic_stringIcSt11char_traitsIcESaIcEEESaIS5_EEaSERKS7_.isra.0+0x54>
	      _M_deallocate(this->_M_impl._M_start,
   b4352:	6820      	ldr	r0, [r4, #0]
	if (__p)
   b4354:	b118      	cbz	r0, b435e <_ZNSt6vectorINSt7__cxx1112basic_stringIcSt11char_traitsIcESaIcEEESaIS5_EEaSERKS7_.isra.0+0x6e>
			    - this->_M_impl._M_start);
   b4356:	68a1      	ldr	r1, [r4, #8]
   b4358:	1a09      	subs	r1, r1, r0
   b435a:	f7ff fea2 	bl	b40a2 <_ZdlPvj>
	      this->_M_impl._M_start = __tmp;
   b435e:	6026      	str	r6, [r4, #0]
	      this->_M_impl._M_end_of_storage = this->_M_impl._M_start + __xlen;
   b4360:	443e      	add	r6, r7
   b4362:	60a6      	str	r6, [r4, #8]
	  this->_M_impl._M_finish = this->_M_impl._M_start + __xlen;
   b4364:	6823      	ldr	r3, [r4, #0]
   b4366:	443b      	add	r3, r7
   b4368:	6063      	str	r3, [r4, #4]
    }
   b436a:	e8bd 8ff8 	ldmia.w	sp!, {r3, r4, r5, r6, r7, r8, r9, sl, fp, pc}
      { return size_type(this->_M_impl._M_finish - this->_M_impl._M_start); }
   b436e:	6846      	ldr	r6, [r0, #4]
   b4370:	eba6 0609 	sub.w	r6, r6, r9
	  else if (size() >= __xlen)
   b4374:	42b7      	cmp	r7, r6
   b4376:	d819      	bhi.n	b43ac <_ZNSt6vectorINSt7__cxx1112basic_stringIcSt11char_traitsIcESaIcEEESaIS5_EEaSERKS7_.isra.0+0xbc>
	  for(_Distance __n = __last - __first; __n > 0; --__n)
   b4378:	4646      	mov	r6, r8
   b437a:	46ca      	mov	sl, r9
   b437c:	2e00      	cmp	r6, #0
   b437e:	dd08      	ble.n	b4392 <_ZNSt6vectorINSt7__cxx1112basic_stringIcSt11char_traitsIcESaIcEEESaIS5_EEaSERKS7_.isra.0+0xa2>
		  }
	      }
	    std::__alloc_on_copy(_M_get_allocator(), __str._M_get_allocator());
	  }
#endif
	this->_M_assign(__str);
   b4380:	4629      	mov	r1, r5
   b4382:	4650      	mov	r0, sl
   b4384:	f006 ff5e 	bl	bb244 <_ZNSt7__cxx1112basic_stringIcSt11char_traitsIcESaIcEE9_M_assignERKS4_>
	      ++__first;
   b4388:	3518      	adds	r5, #24
	      ++__result;
   b438a:	f10a 0a18 	add.w	sl, sl, #24
	  for(_Distance __n = __last - __first; __n > 0; --__n)
   b438e:	3e01      	subs	r6, #1
   b4390:	e7f4      	b.n	b437c <_ZNSt6vectorINSt7__cxx1112basic_stringIcSt11char_traitsIcESaIcEEESaIS5_EEaSERKS7_.isra.0+0x8c>
   b4392:	ea28 78e8 	bic.w	r8, r8, r8, asr #31
   b4396:	2518      	movs	r5, #24
      : _M_current(__i) { }
   b4398:	6866      	ldr	r6, [r4, #4]
	__destroy(_ForwardIterator __first, _ForwardIterator __last)
   b439a:	fb05 9508 	mla	r5, r5, r8, r9
	  for (; __first != __last; ++__first)
   b439e:	42ae      	cmp	r6, r5
   b43a0:	d0e0      	beq.n	b4364 <_ZNSt6vectorINSt7__cxx1112basic_stringIcSt11char_traitsIcESaIcEEESaIS5_EEaSERKS7_.isra.0+0x74>
      { _M_dispose(); }
   b43a2:	4628      	mov	r0, r5
   b43a4:	f006 ff30 	bl	bb208 <_ZNSt7__cxx1112basic_stringIcSt11char_traitsIcESaIcEE10_M_disposeEv>
      operator->() const _GLIBCXX_NOEXCEPT
      { return _M_current; }

      _GLIBCXX20_CONSTEXPR
      __normal_iterator&
      operator++() _GLIBCXX_NOEXCEPT
   b43a8:	3518      	adds	r5, #24
      {
	++_M_current;
	return *this;
   b43aa:	e7f8      	b.n	b439e <_ZNSt6vectorINSt7__cxx1112basic_stringIcSt11char_traitsIcESaIcEEESaIS5_EEaSERKS7_.isra.0+0xae>
   b43ac:	10f6      	asrs	r6, r6, #3
   b43ae:	4356      	muls	r6, r2
   b43b0:	2e00      	cmp	r6, #0
   b43b2:	dd08      	ble.n	b43c6 <_ZNSt6vectorINSt7__cxx1112basic_stringIcSt11char_traitsIcESaIcEEESaIS5_EEaSERKS7_.isra.0+0xd6>
	this->_M_assign(__str);
   b43b4:	4629      	mov	r1, r5
   b43b6:	4648      	mov	r0, r9
   b43b8:	f006 ff44 	bl	bb244 <_ZNSt7__cxx1112basic_stringIcSt11char_traitsIcESaIcEE9_M_assignERKS4_>
	      ++__first;
   b43bc:	3518      	adds	r5, #24
	      ++__result;
   b43be:	f109 0918 	add.w	r9, r9, #24
	  for(_Distance __n = __last - __first; __n > 0; --__n)
   b43c2:	3e01      	subs	r6, #1
   b43c4:	e7f4      	b.n	b43b0 <_ZNSt6vectorINSt7__cxx1112basic_stringIcSt11char_traitsIcESaIcEEESaIS5_EEaSERKS7_.isra.0+0xc0>
   b43c6:	e9d4 5600 	ldrd	r5, r6, [r4]
   b43ca:	1b71      	subs	r1, r6, r5
	      std::__uninitialized_copy_a(__x._M_impl._M_start + size(),
   b43cc:	f8da 5000 	ldr.w	r5, [sl]
					  __x._M_impl._M_finish,
   b43d0:	f8da 8004 	ldr.w	r8, [sl, #4]
	      std::__uninitialized_copy_a(__x._M_impl._M_start + size(),
   b43d4:	440d      	add	r5, r1
   b43d6:	45a8      	cmp	r8, r5
   b43d8:	d0c4      	beq.n	b4364 <_ZNSt6vectorINSt7__cxx1112basic_stringIcSt11char_traitsIcESaIcEEESaIS5_EEaSERKS7_.isra.0+0x74>
    { ::new(static_cast<void*>(__p)) _Tp(std::forward<_Args>(__args)...); }
   b43da:	b11e      	cbz	r6, b43e4 <_ZNSt6vectorINSt7__cxx1112basic_stringIcSt11char_traitsIcESaIcEEESaIS5_EEaSERKS7_.isra.0+0xf4>
   b43dc:	4629      	mov	r1, r5
   b43de:	4630      	mov	r0, r6
   b43e0:	f7ff fef8 	bl	b41d4 <_ZNSt7__cxx1112basic_stringIcSt11char_traitsIcESaIcEEC2ERKS4_.isra.0>
   b43e4:	3518      	adds	r5, #24
   b43e6:	3618      	adds	r6, #24
   b43e8:	e7f5      	b.n	b43d6 <_ZNSt6vectorINSt7__cxx1112basic_stringIcSt11char_traitsIcESaIcEEESaIS5_EEaSERKS7_.isra.0+0xe6>
   b43ea:	bf00      	nop
   b43ec:	aaaaaaab 	.word	0xaaaaaaab

000b43f0 <_ZN5Print6printfEPKcz>:
    size_t println(double, int = 2);
    size_t println(const Printable&);
    size_t println(void);
    size_t println(const __FlashStringHelper*);

    size_t printf(const char* format, ...) __attribute__ ((format(printf, 2, 3)))
   b43f0:	b40e      	push	{r1, r2, r3}
   b43f2:	b503      	push	{r0, r1, lr}
   b43f4:	ab03      	add	r3, sp, #12
    {
        va_list args;
        va_start(args, format);
        auto r = this->vprintf(false, format, args);
   b43f6:	2100      	movs	r1, #0
    size_t printf(const char* format, ...) __attribute__ ((format(printf, 2, 3)))
   b43f8:	f853 2b04 	ldr.w	r2, [r3], #4
        va_start(args, format);
   b43fc:	9301      	str	r3, [sp, #4]
        auto r = this->vprintf(false, format, args);
   b43fe:	f005 ffb4 	bl	ba36a <_ZN5Print7vprintfEbPKcSt9__va_list>
        va_end(args);
        return r;
    }
   b4402:	b002      	add	sp, #8
   b4404:	f85d eb04 	ldr.w	lr, [sp], #4
   b4408:	b003      	add	sp, #12
   b440a:	4770      	bx	lr

000b440c <_ZN5Print8printlnfEPKcz>:

    size_t printlnf(const char* format, ...) __attribute__ ((format(printf, 2, 3)))
   b440c:	b40e      	push	{r1, r2, r3}
   b440e:	b503      	push	{r0, r1, lr}
   b4410:	ab03      	add	r3, sp, #12
    {
        va_list args;
        va_start(args, format);
        auto r = this->vprintf(true, format, args);
   b4412:	2101      	movs	r1, #1
    size_t printlnf(const char* format, ...) __attribute__ ((format(printf, 2, 3)))
   b4414:	f853 2b04 	ldr.w	r2, [r3], #4
        va_start(args, format);
   b4418:	9301      	str	r3, [sp, #4]
        auto r = this->vprintf(true, format, args);
   b441a:	f005 ffa6 	bl	ba36a <_ZN5Print7vprintfEbPKcSt9__va_list>
        va_end(args);
        return r;
    }
   b441e:	b002      	add	sp, #8
   b4420:	f85d eb04 	ldr.w	lr, [sp], #4
   b4424:	b003      	add	sp, #12
   b4426:	4770      	bx	lr

000b4428 <_Z16randomizeAddressv>:
    Serial.println();
  }
}

//clears up conflicts with multiple i2c slaves having the same address
void randomizeAddress(){
   b4428:	e92d 4ff0 	stmdb	sp!, {r4, r5, r6, r7, r8, r9, sl, fp, lr}
	return *(this->_M_impl._M_start + __n);
   b442c:	f8df 82b4 	ldr.w	r8, [pc, #692]	; b46e4 <_Z16randomizeAddressv+0x2bc>
  while(slaveCount != cities[cityIndex].slaveCountExpected){
   b4430:	4da2      	ldr	r5, [pc, #648]	; (b46bc <_Z16randomizeAddressv+0x294>)
void randomizeAddress(){
   b4432:	b08d      	sub	sp, #52	; 0x34
  while(slaveCount != cities[cityIndex].slaveCountExpected){
   b4434:	4ba2      	ldr	r3, [pc, #648]	; (b46c0 <_Z16randomizeAddressv+0x298>)
   b4436:	681a      	ldr	r2, [r3, #0]
   b4438:	f8d8 3000 	ldr.w	r3, [r8]
   b443c:	2128      	movs	r1, #40	; 0x28
   b443e:	fb01 3302 	mla	r3, r1, r2, r3
   b4442:	6a5a      	ldr	r2, [r3, #36]	; 0x24
   b4444:	682b      	ldr	r3, [r5, #0]
   b4446:	429a      	cmp	r2, r3
   b4448:	f000 80ff 	beq.w	b464a <_Z16randomizeAddressv+0x222>
    slaveCount = 0;
   b444c:	2300      	movs	r3, #0

class StringSumHelper : public String
{
public:
	StringSumHelper(const String &s) : String(s) {}
	StringSumHelper(const char *p) : String(p) {}
   b444e:	f8df 9298 	ldr.w	r9, [pc, #664]	; b46e8 <_Z16randomizeAddressv+0x2c0>
   b4452:	f8df a298 	ldr.w	sl, [pc, #664]	; b46ec <_Z16randomizeAddressv+0x2c4>
      if(Wire.available() > 0){
        Serial.println("transmission recieved from: " + String(i));

        slaveCount++;

        String inputBuffer = "";
   b4456:	4f9b      	ldr	r7, [pc, #620]	; (b46c4 <_Z16randomizeAddressv+0x29c>)
    slaveCount = 0;
   b4458:	602b      	str	r3, [r5, #0]
    for(int i = 8; i <= 119; i++){
   b445a:	2408      	movs	r4, #8
      Serial.println("\nrequest code 1, address: " + String(i));
   b445c:	f006 fce8 	bl	bae30 <_Z16_fetch_usbserialv>
   b4460:	4649      	mov	r1, r9
   b4462:	4606      	mov	r6, r0
   b4464:	a808      	add	r0, sp, #32
   b4466:	f006 f802 	bl	ba46e <_ZN6StringC1EPK19__FlashStringHelper>
   b446a:	220a      	movs	r2, #10
   b446c:	4621      	mov	r1, r4
   b446e:	a804      	add	r0, sp, #16
   b4470:	f006 f857 	bl	ba522 <_ZN6StringC1Eih>
   b4474:	a904      	add	r1, sp, #16
   b4476:	a808      	add	r0, sp, #32
   b4478:	f006 f88e 	bl	ba598 <_ZplRK15StringSumHelperRK6String>
   b447c:	6801      	ldr	r1, [r0, #0]
   b447e:	4630      	mov	r0, r6
   b4480:	f005 ff4b 	bl	ba31a <_ZN5Print7printlnEPKc>
   b4484:	a804      	add	r0, sp, #16
   b4486:	f005 ffa7 	bl	ba3d8 <_ZN6StringD1Ev>
class StringSumHelper : public String
   b448a:	a808      	add	r0, sp, #32
   b448c:	f005 ffa4 	bl	ba3d8 <_ZN6StringD1Ev>
      Wire.beginTransmission(i);
   b4490:	f006 fe1c 	bl	bb0cc <_Z19__fetch_global_Wirev>
   b4494:	4621      	mov	r1, r4
   b4496:	f005 fdb3 	bl	ba000 <_ZN7TwoWire17beginTransmissionEi>
      Wire.write('1');
   b449a:	f006 fe17 	bl	bb0cc <_Z19__fetch_global_Wirev>
   b449e:	2131      	movs	r1, #49	; 0x31
   b44a0:	f7ff febe 	bl	b4220 <_ZN7TwoWire5writeEi.isra.0>
      Wire.endTransmission();
   b44a4:	fa5f fb84 	uxtb.w	fp, r4
   b44a8:	f006 fe10 	bl	bb0cc <_Z19__fetch_global_Wirev>
   b44ac:	f005 fdaf 	bl	ba00e <_ZN7TwoWire15endTransmissionEv>
      Wire.requestFrom(i, 24);
   b44b0:	f006 fe0c 	bl	bb0cc <_Z19__fetch_global_Wirev>
   b44b4:	2218      	movs	r2, #24
   b44b6:	4659      	mov	r1, fp
   b44b8:	f005 fd9b 	bl	b9ff2 <_ZN7TwoWire11requestFromEhj>
      if(Wire.available() > 0){
   b44bc:	f006 fe06 	bl	bb0cc <_Z19__fetch_global_Wirev>
   b44c0:	6803      	ldr	r3, [r0, #0]
   b44c2:	691b      	ldr	r3, [r3, #16]
   b44c4:	4798      	blx	r3
   b44c6:	2800      	cmp	r0, #0
   b44c8:	f340 80ba 	ble.w	b4640 <_Z16randomizeAddressv+0x218>
        Serial.println("transmission recieved from: " + String(i));
   b44cc:	f006 fcb0 	bl	bae30 <_Z16_fetch_usbserialv>
	StringSumHelper(const char *p) : String(p) {}
   b44d0:	4651      	mov	r1, sl
   b44d2:	4606      	mov	r6, r0
   b44d4:	a808      	add	r0, sp, #32
   b44d6:	f005 ffca 	bl	ba46e <_ZN6StringC1EPK19__FlashStringHelper>
   b44da:	220a      	movs	r2, #10
   b44dc:	4621      	mov	r1, r4
   b44de:	a804      	add	r0, sp, #16
   b44e0:	f006 f81f 	bl	ba522 <_ZN6StringC1Eih>
   b44e4:	a904      	add	r1, sp, #16
   b44e6:	a808      	add	r0, sp, #32
   b44e8:	f006 f856 	bl	ba598 <_ZplRK15StringSumHelperRK6String>
   b44ec:	6801      	ldr	r1, [r0, #0]
   b44ee:	4630      	mov	r0, r6
   b44f0:	f005 ff13 	bl	ba31a <_ZN5Print7printlnEPKc>
   b44f4:	a804      	add	r0, sp, #16
   b44f6:	f005 ff6f 	bl	ba3d8 <_ZN6StringD1Ev>
class StringSumHelper : public String
   b44fa:	a808      	add	r0, sp, #32
   b44fc:	f005 ff6c 	bl	ba3d8 <_ZN6StringD1Ev>
        slaveCount++;
   b4500:	682b      	ldr	r3, [r5, #0]
        String inputBuffer = "";
   b4502:	4639      	mov	r1, r7
        slaveCount++;
   b4504:	3301      	adds	r3, #1
        String inputBuffer = "";
   b4506:	4668      	mov	r0, sp
        slaveCount++;
   b4508:	602b      	str	r3, [r5, #0]
        String inputBuffer = "";
   b450a:	f005 ffb0 	bl	ba46e <_ZN6StringC1EPK19__FlashStringHelper>
   b450e:	2618      	movs	r6, #24
        char c;
        for(int j = 0; j < 24; j++){
          c = Wire.read();
   b4510:	f006 fddc 	bl	bb0cc <_Z19__fetch_global_Wirev>
   b4514:	6803      	ldr	r3, [r0, #0]
   b4516:	695b      	ldr	r3, [r3, #20]
   b4518:	4798      	blx	r3
	String & operator += (char c)			{concat(c); return (*this);}
   b451a:	b2c1      	uxtb	r1, r0
   b451c:	4668      	mov	r0, sp
   b451e:	f006 f82e 	bl	ba57e <_ZN6String6concatEc>
        for(int j = 0; j < 24; j++){
   b4522:	3e01      	subs	r6, #1
   b4524:	d1f4      	bne.n	b4510 <_Z16randomizeAddressv+0xe8>
          inputBuffer += c;
        }
        Wire.beginTransmission(i);
   b4526:	f006 fdd1 	bl	bb0cc <_Z19__fetch_global_Wirev>
   b452a:	4621      	mov	r1, r4
   b452c:	f005 fd68 	bl	ba000 <_ZN7TwoWire17beginTransmissionEi>
        Wire.write(inputBuffer);
   b4530:	f006 fdcc 	bl	bb0cc <_Z19__fetch_global_Wirev>
   b4534:	9900      	ldr	r1, [sp, #0]
   b4536:	f7ff fe77 	bl	b4228 <_ZN5Print5writeEPKc.isra.0>
        Serial.println("device id: " + inputBuffer);
   b453a:	f006 fc79 	bl	bae30 <_Z16_fetch_usbserialv>
	StringSumHelper(const char *p) : String(p) {}
   b453e:	4962      	ldr	r1, [pc, #392]	; (b46c8 <_Z16randomizeAddressv+0x2a0>)
   b4540:	4606      	mov	r6, r0
   b4542:	a808      	add	r0, sp, #32
   b4544:	f005 ff93 	bl	ba46e <_ZN6StringC1EPK19__FlashStringHelper>
   b4548:	4669      	mov	r1, sp
   b454a:	a808      	add	r0, sp, #32
   b454c:	f006 f824 	bl	ba598 <_ZplRK15StringSumHelperRK6String>
   b4550:	6801      	ldr	r1, [r0, #0]
   b4552:	4630      	mov	r0, r6
   b4554:	f005 fee1 	bl	ba31a <_ZN5Print7printlnEPKc>
class StringSumHelper : public String
   b4558:	a808      	add	r0, sp, #32
   b455a:	f005 ff3d 	bl	ba3d8 <_ZN6StringD1Ev>
        Wire.endTransmission();
   b455e:	f006 fdb5 	bl	bb0cc <_Z19__fetch_global_Wirev>
   b4562:	f005 fd54 	bl	ba00e <_ZN7TwoWire15endTransmissionEv>
        Serial.println("transmission sent to: " + String(i));
   b4566:	f006 fc63 	bl	bae30 <_Z16_fetch_usbserialv>
	StringSumHelper(const char *p) : String(p) {}
   b456a:	4958      	ldr	r1, [pc, #352]	; (b46cc <_Z16randomizeAddressv+0x2a4>)
   b456c:	4606      	mov	r6, r0
   b456e:	a808      	add	r0, sp, #32
   b4570:	f005 ff7d 	bl	ba46e <_ZN6StringC1EPK19__FlashStringHelper>
   b4574:	220a      	movs	r2, #10
   b4576:	4621      	mov	r1, r4
   b4578:	a804      	add	r0, sp, #16
   b457a:	f005 ffd2 	bl	ba522 <_ZN6StringC1Eih>
   b457e:	a904      	add	r1, sp, #16
   b4580:	a808      	add	r0, sp, #32
   b4582:	f006 f809 	bl	ba598 <_ZplRK15StringSumHelperRK6String>
   b4586:	6801      	ldr	r1, [r0, #0]
   b4588:	4630      	mov	r0, r6
   b458a:	f005 fec6 	bl	ba31a <_ZN5Print7printlnEPKc>
   b458e:	a804      	add	r0, sp, #16
   b4590:	f005 ff22 	bl	ba3d8 <_ZN6StringD1Ev>
class StringSumHelper : public String
   b4594:	a808      	add	r0, sp, #32
   b4596:	f005 ff1f 	bl	ba3d8 <_ZN6StringD1Ev>

        Wire.beginTransmission(i);
   b459a:	f006 fd97 	bl	bb0cc <_Z19__fetch_global_Wirev>
   b459e:	4621      	mov	r1, r4
   b45a0:	f005 fd2e 	bl	ba000 <_ZN7TwoWire17beginTransmissionEi>
        Wire.write('2');
   b45a4:	f006 fd92 	bl	bb0cc <_Z19__fetch_global_Wirev>
   b45a8:	2132      	movs	r1, #50	; 0x32
   b45aa:	f7ff fe39 	bl	b4220 <_ZN7TwoWire5writeEi.isra.0>
        Wire.endTransmission();
   b45ae:	f006 fd8d 	bl	bb0cc <_Z19__fetch_global_Wirev>
   b45b2:	f005 fd2c 	bl	ba00e <_ZN7TwoWire15endTransmissionEv>

        Serial.println("request code 2, address: " + String(i));
   b45b6:	f006 fc3b 	bl	bae30 <_Z16_fetch_usbserialv>
	StringSumHelper(const char *p) : String(p) {}
   b45ba:	4945      	ldr	r1, [pc, #276]	; (b46d0 <_Z16randomizeAddressv+0x2a8>)
   b45bc:	4606      	mov	r6, r0
   b45be:	a808      	add	r0, sp, #32
   b45c0:	f005 ff55 	bl	ba46e <_ZN6StringC1EPK19__FlashStringHelper>
   b45c4:	220a      	movs	r2, #10
   b45c6:	4621      	mov	r1, r4
   b45c8:	a804      	add	r0, sp, #16
   b45ca:	f005 ffaa 	bl	ba522 <_ZN6StringC1Eih>
   b45ce:	a904      	add	r1, sp, #16
   b45d0:	a808      	add	r0, sp, #32
   b45d2:	f005 ffe1 	bl	ba598 <_ZplRK15StringSumHelperRK6String>
   b45d6:	6801      	ldr	r1, [r0, #0]
   b45d8:	4630      	mov	r0, r6
   b45da:	f005 fe9e 	bl	ba31a <_ZN5Print7printlnEPKc>
   b45de:	a804      	add	r0, sp, #16
   b45e0:	f005 fefa 	bl	ba3d8 <_ZN6StringD1Ev>
class StringSumHelper : public String
   b45e4:	a808      	add	r0, sp, #32
   b45e6:	f005 fef7 	bl	ba3d8 <_ZN6StringD1Ev>
        Wire.requestFrom(i, 4);
   b45ea:	f006 fd6f 	bl	bb0cc <_Z19__fetch_global_Wirev>
   b45ee:	2204      	movs	r2, #4
   b45f0:	4659      	mov	r1, fp
   b45f2:	f005 fcfe 	bl	b9ff2 <_ZN7TwoWire11requestFromEhj>
        inputBuffer = "";
   b45f6:	4639      	mov	r1, r7
   b45f8:	4668      	mov	r0, sp
   b45fa:	f005 ff80 	bl	ba4fe <_ZN6StringaSEPKc>
   b45fe:	2604      	movs	r6, #4
        for(int j = 0; j < 4; j++){
          inputBuffer += (char)Wire.read();
   b4600:	f006 fd64 	bl	bb0cc <_Z19__fetch_global_Wirev>
   b4604:	6803      	ldr	r3, [r0, #0]
   b4606:	695b      	ldr	r3, [r3, #20]
   b4608:	4798      	blx	r3
	String & operator += (char c)			{concat(c); return (*this);}
   b460a:	b2c1      	uxtb	r1, r0
   b460c:	4668      	mov	r0, sp
   b460e:	f005 ffb6 	bl	ba57e <_ZN6String6concatEc>
        for(int j = 0; j < 4; j++){
   b4612:	3e01      	subs	r6, #1
   b4614:	d1f4      	bne.n	b4600 <_Z16randomizeAddressv+0x1d8>
        }
        
        Serial.println("conflict verification: " + inputBuffer);
   b4616:	f006 fc0b 	bl	bae30 <_Z16_fetch_usbserialv>
	StringSumHelper(const char *p) : String(p) {}
   b461a:	492e      	ldr	r1, [pc, #184]	; (b46d4 <_Z16randomizeAddressv+0x2ac>)
   b461c:	4606      	mov	r6, r0
   b461e:	a808      	add	r0, sp, #32
   b4620:	f005 ff25 	bl	ba46e <_ZN6StringC1EPK19__FlashStringHelper>
   b4624:	4669      	mov	r1, sp
   b4626:	a808      	add	r0, sp, #32
   b4628:	f005 ffb6 	bl	ba598 <_ZplRK15StringSumHelperRK6String>
   b462c:	6801      	ldr	r1, [r0, #0]
   b462e:	4630      	mov	r0, r6
   b4630:	f005 fe73 	bl	ba31a <_ZN5Print7printlnEPKc>
class StringSumHelper : public String
   b4634:	a808      	add	r0, sp, #32
   b4636:	f005 fecf 	bl	ba3d8 <_ZN6StringD1Ev>
        String inputBuffer = "";
   b463a:	4668      	mov	r0, sp
   b463c:	f005 fecc 	bl	ba3d8 <_ZN6StringD1Ev>
    for(int i = 8; i <= 119; i++){
   b4640:	3401      	adds	r4, #1
   b4642:	2c78      	cmp	r4, #120	; 0x78
   b4644:	f47f af0a 	bne.w	b445c <_Z16randomizeAddressv+0x34>
   b4648:	e6f4      	b.n	b4434 <_Z16randomizeAddressv+0xc>
      }
    }
  }

  Serial.println("\nConnected to: ");
   b464a:	f006 fbf1 	bl	bae30 <_Z16_fetch_usbserialv>
   b464e:	4922      	ldr	r1, [pc, #136]	; (b46d8 <_Z16randomizeAddressv+0x2b0>)
    Wire.endTransmission();

    Wire.requestFrom(i, 24);
    if(Wire.available() > 0){
      Serial.print(i);
      Serial.print(", ");
   b4650:	4e22      	ldr	r6, [pc, #136]	; (b46dc <_Z16randomizeAddressv+0x2b4>)
   b4652:	4f23      	ldr	r7, [pc, #140]	; (b46e0 <_Z16randomizeAddressv+0x2b8>)
  Serial.println("\nConnected to: ");
   b4654:	f005 fe61 	bl	ba31a <_ZN5Print7printlnEPKc>
  for(int i = 8; i<= 119; i++){
   b4658:	2408      	movs	r4, #8
  int count = 0;
   b465a:	2500      	movs	r5, #0
    Wire.beginTransmission(i);
   b465c:	f006 fd36 	bl	bb0cc <_Z19__fetch_global_Wirev>
   b4660:	4621      	mov	r1, r4
   b4662:	f005 fccd 	bl	ba000 <_ZN7TwoWire17beginTransmissionEi>
    Wire.write('1');
   b4666:	f006 fd31 	bl	bb0cc <_Z19__fetch_global_Wirev>
   b466a:	2131      	movs	r1, #49	; 0x31
   b466c:	f7ff fdd8 	bl	b4220 <_ZN7TwoWire5writeEi.isra.0>
    Wire.endTransmission();
   b4670:	f006 fd2c 	bl	bb0cc <_Z19__fetch_global_Wirev>
   b4674:	f005 fccb 	bl	ba00e <_ZN7TwoWire15endTransmissionEv>
    Wire.requestFrom(i, 24);
   b4678:	f006 fd28 	bl	bb0cc <_Z19__fetch_global_Wirev>
   b467c:	2218      	movs	r2, #24
   b467e:	b2e1      	uxtb	r1, r4
   b4680:	f005 fcb7 	bl	b9ff2 <_ZN7TwoWire11requestFromEhj>
    if(Wire.available() > 0){
   b4684:	f006 fd22 	bl	bb0cc <_Z19__fetch_global_Wirev>
   b4688:	6803      	ldr	r3, [r0, #0]
   b468a:	691b      	ldr	r3, [r3, #16]
   b468c:	4798      	blx	r3
   b468e:	2800      	cmp	r0, #0
   b4690:	dd0e      	ble.n	b46b0 <_Z16randomizeAddressv+0x288>
      Serial.print(i);
   b4692:	f006 fbcd 	bl	bae30 <_Z16_fetch_usbserialv>
            val = n;
        }
#if __GNUC__ >= 9
#pragma GCC diagnostic pop
#endif // __GNUC__ >= 9
        return printNumber(val, base) + t;
   b4696:	220a      	movs	r2, #10
   b4698:	4621      	mov	r1, r4
   b469a:	f005 fe48 	bl	ba32e <_ZN5Print11printNumberEmh>
      Serial.print(", ");
   b469e:	f006 fbc7 	bl	bae30 <_Z16_fetch_usbserialv>
   b46a2:	4631      	mov	r1, r6
   b46a4:	f005 fe26 	bl	ba2f4 <_ZN5Print5printEPKc>

      addressArr[count++] = i;
   b46a8:	683b      	ldr	r3, [r7, #0]
   b46aa:	f843 4025 	str.w	r4, [r3, r5, lsl #2]
   b46ae:	3501      	adds	r5, #1
  for(int i = 8; i<= 119; i++){
   b46b0:	3401      	adds	r4, #1
   b46b2:	2c78      	cmp	r4, #120	; 0x78
   b46b4:	d1d2      	bne.n	b465c <_Z16randomizeAddressv+0x234>
    }
  }
}
   b46b6:	b00d      	add	sp, #52	; 0x34
   b46b8:	e8bd 8ff0 	ldmia.w	sp!, {r4, r5, r6, r7, r8, r9, sl, fp, pc}
   b46bc:	2003e6a8 	.word	0x2003e6a8
   b46c0:	200350a8 	.word	0x200350a8
   b46c4:	000be7fe 	.word	0x000be7fe
   b46c8:	000be32e 	.word	0x000be32e
   b46cc:	000be33a 	.word	0x000be33a
   b46d0:	000be351 	.word	0x000be351
   b46d4:	000be36b 	.word	0x000be36b
   b46d8:	000be383 	.word	0x000be383
   b46dc:	000be5bf 	.word	0x000be5bf
   b46e0:	200352f8 	.word	0x200352f8
   b46e4:	20035450 	.word	0x20035450
   b46e8:	000be2f6 	.word	0x000be2f6
   b46ec:	000be311 	.word	0x000be311

000b46f0 <_Z17acquireWireBufferv>:
    userInput = false;
    Serial.println("reset done");
  }
}

hal_i2c_config_t acquireWireBuffer() {
   b46f0:	b538      	push	{r3, r4, r5, lr}
    hal_i2c_config_t config = {
   b46f2:	f44f 7500 	mov.w	r5, #512	; 0x200
   b46f6:	2314      	movs	r3, #20
hal_i2c_config_t acquireWireBuffer() {
   b46f8:	4604      	mov	r4, r0
    hal_i2c_config_t config = {
   b46fa:	6003      	str	r3, [r0, #0]
   b46fc:	6085      	str	r5, [r0, #8]
   b46fe:	6105      	str	r5, [r0, #16]
        .size = sizeof(hal_i2c_config_t),
        .version = HAL_I2C_CONFIG_VERSION_1,
        .rx_buffer = new (std::nothrow) uint8_t[I2C_BUFFER_SIZE],
   b4700:	4905      	ldr	r1, [pc, #20]	; (b4718 <_Z17acquireWireBufferv+0x28>)
   b4702:	4628      	mov	r0, r5
   b4704:	f006 fd46 	bl	bb194 <_ZnajRKSt9nothrow_t>
        .rx_buffer_size = I2C_BUFFER_SIZE,
        .tx_buffer = new (std::nothrow) uint8_t[I2C_BUFFER_SIZE],
   b4708:	4903      	ldr	r1, [pc, #12]	; (b4718 <_Z17acquireWireBufferv+0x28>)
        .tx_buffer_size = I2C_BUFFER_SIZE
    };
   b470a:	6060      	str	r0, [r4, #4]
        .tx_buffer = new (std::nothrow) uint8_t[I2C_BUFFER_SIZE],
   b470c:	4628      	mov	r0, r5
   b470e:	f006 fd41 	bl	bb194 <_ZnajRKSt9nothrow_t>
    };
   b4712:	60e0      	str	r0, [r4, #12]
    return config;
   b4714:	4620      	mov	r0, r4
   b4716:	bd38      	pop	{r3, r4, r5, pc}
   b4718:	000bec04 	.word	0x000bec04

000b471c <_ZNSt12_Vector_baseI10CheckpointSaIS0_EED1Ev>:
      ~_Vector_base() _GLIBCXX_NOEXCEPT
   b471c:	b510      	push	{r4, lr}
   b471e:	4604      	mov	r4, r0
	_M_deallocate(_M_impl._M_start,
   b4720:	6800      	ldr	r0, [r0, #0]
	if (__p)
   b4722:	b118      	cbz	r0, b472c <_ZNSt12_Vector_baseI10CheckpointSaIS0_EED1Ev+0x10>
		      _M_impl._M_end_of_storage - _M_impl._M_start);
   b4724:	68a1      	ldr	r1, [r4, #8]
   b4726:	1a09      	subs	r1, r1, r0
   b4728:	f7ff fcbb 	bl	b40a2 <_ZdlPvj>
      }
   b472c:	4620      	mov	r0, r4
   b472e:	bd10      	pop	{r4, pc}

000b4730 <_ZNSt12_Vector_baseIfSaIfEED1Ev>:
      ~_Vector_base() _GLIBCXX_NOEXCEPT
   b4730:	b510      	push	{r4, lr}
   b4732:	4604      	mov	r4, r0
	_M_deallocate(_M_impl._M_start,
   b4734:	6800      	ldr	r0, [r0, #0]
	if (__p)
   b4736:	b118      	cbz	r0, b4740 <_ZNSt12_Vector_baseIfSaIfEED1Ev+0x10>
		      _M_impl._M_end_of_storage - _M_impl._M_start);
   b4738:	68a1      	ldr	r1, [r4, #8]
   b473a:	1a09      	subs	r1, r1, r0
   b473c:	f7ff fcb1 	bl	b40a2 <_ZdlPvj>
      }
   b4740:	4620      	mov	r0, r4
   b4742:	bd10      	pop	{r4, pc}

000b4744 <_ZNSt12_Vector_baseIiSaIiEED1Ev>:
      ~_Vector_base() _GLIBCXX_NOEXCEPT
   b4744:	b510      	push	{r4, lr}
   b4746:	4604      	mov	r4, r0
	_M_deallocate(_M_impl._M_start,
   b4748:	6800      	ldr	r0, [r0, #0]
	if (__p)
   b474a:	b118      	cbz	r0, b4754 <_ZNSt12_Vector_baseIiSaIiEED1Ev+0x10>
		      _M_impl._M_end_of_storage - _M_impl._M_start);
   b474c:	68a1      	ldr	r1, [r4, #8]
   b474e:	1a09      	subs	r1, r1, r0
   b4750:	f7ff fca7 	bl	b40a2 <_ZdlPvj>
      }
   b4754:	4620      	mov	r0, r4
   b4756:	bd10      	pop	{r4, pc}

000b4758 <_ZNSt6vectorIiSaIiEEaSEOS1_.isra.0>:
      operator=(vector&& __x) noexcept(_Alloc_traits::_S_nothrow_move())
   b4758:	b530      	push	{r4, r5, lr}
	  _M_start = __x._M_start;
   b475a:	680d      	ldr	r5, [r1, #0]
	  _M_end_of_storage = __x._M_end_of_storage;
   b475c:	6883      	ldr	r3, [r0, #8]
	  _M_finish = __x._M_finish;
   b475e:	e9d0 4200 	ldrd	r4, r2, [r0]
	  _M_start = __x._M_start;
   b4762:	6005      	str	r5, [r0, #0]
      operator=(vector&& __x) noexcept(_Alloc_traits::_S_nothrow_move())
   b4764:	b085      	sub	sp, #20
	  _M_finish = __x._M_finish;
   b4766:	684d      	ldr	r5, [r1, #4]
   b4768:	6045      	str	r5, [r0, #4]
	  _M_end_of_storage = __x._M_end_of_storage;
   b476a:	688d      	ldr	r5, [r1, #8]
   b476c:	9303      	str	r3, [sp, #12]
	  _M_start = __x._M_start;
   b476e:	2300      	movs	r3, #0
	  _M_end_of_storage = __x._M_end_of_storage;
   b4770:	6085      	str	r5, [r0, #8]
	  _M_finish = __x._M_finish;
   b4772:	e9c1 3300 	strd	r3, r3, [r1]
	  _M_end_of_storage = __x._M_end_of_storage;
   b4776:	608b      	str	r3, [r1, #8]
      }
   b4778:	a801      	add	r0, sp, #4
	  _M_finish = __x._M_finish;
   b477a:	e9cd 4201 	strd	r4, r2, [sp, #4]
      }
   b477e:	f7ff ffe1 	bl	b4744 <_ZNSt12_Vector_baseIiSaIiEED1Ev>
      }
   b4782:	b005      	add	sp, #20
   b4784:	bd30      	pop	{r4, r5, pc}

000b4786 <_ZNSt6vectorINSt7__cxx1112basic_stringIcSt11char_traitsIcESaIcEEESaIS5_EED1Ev>:
      ~vector() _GLIBCXX_NOEXCEPT
   b4786:	b570      	push	{r4, r5, r6, lr}
	std::_Destroy(this->_M_impl._M_start, this->_M_impl._M_finish,
   b4788:	e9d0 5600 	ldrd	r5, r6, [r0]
      ~vector() _GLIBCXX_NOEXCEPT
   b478c:	4604      	mov	r4, r0
	  for (; __first != __last; ++__first)
   b478e:	42ae      	cmp	r6, r5
   b4790:	d004      	beq.n	b479c <_ZNSt6vectorINSt7__cxx1112basic_stringIcSt11char_traitsIcESaIcEEESaIS5_EED1Ev+0x16>
      { _M_dispose(); }
   b4792:	4628      	mov	r0, r5
   b4794:	f006 fd38 	bl	bb208 <_ZNSt7__cxx1112basic_stringIcSt11char_traitsIcESaIcEE10_M_disposeEv>
   b4798:	3518      	adds	r5, #24
   b479a:	e7f8      	b.n	b478e <_ZNSt6vectorINSt7__cxx1112basic_stringIcSt11char_traitsIcESaIcEEESaIS5_EED1Ev+0x8>
	_M_deallocate(_M_impl._M_start,
   b479c:	6820      	ldr	r0, [r4, #0]
	if (__p)
   b479e:	b118      	cbz	r0, b47a8 <_ZNSt6vectorINSt7__cxx1112basic_stringIcSt11char_traitsIcESaIcEEESaIS5_EED1Ev+0x22>
		      _M_impl._M_end_of_storage - _M_impl._M_start);
   b47a0:	68a1      	ldr	r1, [r4, #8]
   b47a2:	1a09      	subs	r1, r1, r0
   b47a4:	f7ff fc7d 	bl	b40a2 <_ZdlPvj>
      }
   b47a8:	4620      	mov	r0, r4
   b47aa:	bd70      	pop	{r4, r5, r6, pc}

000b47ac <_ZNSt6vectorIiSaIiEEC1EjRKiRKS0_>:

      // Called by constructors to check initial size.
      static size_type
      _S_check_init_len(size_type __n, const allocator_type& __a)
      {
	if (__n > _S_max_size(_Tp_alloc_type(__a)))
   b47ac:	f1b1 5f00 	cmp.w	r1, #536870912	; 0x20000000
      vector(size_type __n, const value_type& __value,
   b47b0:	b570      	push	{r4, r5, r6, lr}
   b47b2:	4604      	mov	r4, r0
   b47b4:	460d      	mov	r5, r1
   b47b6:	4616      	mov	r6, r2
	if (__n > _S_max_size(_Tp_alloc_type(__a)))
   b47b8:	d302      	bcc.n	b47c0 <_ZNSt6vectorIiSaIiEEC1EjRKiRKS0_+0x14>
	  __throw_length_error(
   b47ba:	480c      	ldr	r0, [pc, #48]	; (b47ec <_ZNSt6vectorIiSaIiEEC1EjRKiRKS0_+0x40>)
   b47bc:	f006 fcf2 	bl	bb1a4 <_ZSt20__throw_length_errorPKc>
	: _M_start(), _M_finish(), _M_end_of_storage()
   b47c0:	2300      	movs	r3, #0
   b47c2:	e9c0 3300 	strd	r3, r3, [r0]
   b47c6:	6083      	str	r3, [r0, #8]
	this->_M_impl._M_start = this->_M_allocate(__n);
   b47c8:	4608      	mov	r0, r1
   b47ca:	f7ff fce9 	bl	b41a0 <_ZNSt12_Vector_baseIiSaIiEE11_M_allocateEj.isra.0>
	this->_M_impl._M_end_of_storage = this->_M_impl._M_start + __n;
   b47ce:	eb00 0385 	add.w	r3, r0, r5, lsl #2
	this->_M_impl._M_finish = this->_M_impl._M_start;
   b47d2:	e9c4 0000 	strd	r0, r0, [r4]
	this->_M_impl._M_end_of_storage = this->_M_impl._M_start + __n;
   b47d6:	60a3      	str	r3, [r4, #8]
	       std::random_access_iterator_tag)
    {
#if __cplusplus >= 201103L
      static_assert(is_integral<_Size>{}, "fill_n must pass integral size");
#endif
      if (__n <= 0)
   b47d8:	b12d      	cbz	r5, b47e6 <_ZNSt6vectorIiSaIiEEC1EjRKiRKS0_+0x3a>
    __fill_a(_FIte __first, _FIte __last, const _Tp& __value)
   b47da:	6832      	ldr	r2, [r6, #0]
      for (; __first != __last; ++__first)
   b47dc:	4283      	cmp	r3, r0
   b47de:	d002      	beq.n	b47e6 <_ZNSt6vectorIiSaIiEEC1EjRKiRKS0_+0x3a>
	*__first = __tmp;
   b47e0:	f840 2b04 	str.w	r2, [r0], #4
      for (; __first != __last; ++__first)
   b47e4:	e7fa      	b.n	b47dc <_ZNSt6vectorIiSaIiEEC1EjRKiRKS0_+0x30>
	this->_M_impl._M_finish =
   b47e6:	6060      	str	r0, [r4, #4]
      { _M_fill_initialize(__n, __value); }
   b47e8:	4620      	mov	r0, r4
   b47ea:	bd70      	pop	{r4, r5, r6, pc}
   b47ec:	000be393 	.word	0x000be393

000b47f0 <_ZNSt6vectorI10CheckpointSaIS0_EEC1ESt16initializer_listIS0_ERKS1_>:
      vector(initializer_list<value_type> __l,
   b47f0:	e92d 41f3 	stmdb	sp!, {r0, r1, r4, r5, r6, r7, r8, lr}
	: _M_start(), _M_finish(), _M_end_of_storage()
   b47f4:	2400      	movs	r4, #0
      vector(initializer_list<value_type> __l,
   b47f6:	ab02      	add	r3, sp, #8
   b47f8:	e903 0006 	stmdb	r3, {r1, r2}
	: _M_start(), _M_finish(), _M_end_of_storage()
   b47fc:	e9c0 4400 	strd	r4, r4, [r0]
      constexpr const_iterator
      begin() const noexcept { return _M_array; }

      // One past the last element.
      constexpr const_iterator
      end() const noexcept { return begin() + size(); }
   b4800:	4613      	mov	r3, r2
      vector(initializer_list<value_type> __l,
   b4802:	4605      	mov	r5, r0
	: _M_start(), _M_finish(), _M_end_of_storage()
   b4804:	6084      	str	r4, [r0, #8]
   b4806:	00d7      	lsls	r7, r2, #3
               random_access_iterator_tag)
    {
      // concept requirements
      __glibcxx_function_requires(_RandomAccessIteratorConcept<
				  _RandomAccessIterator>)
      return __last - __first;
   b4808:	f342 001c 	sbfx	r0, r2, #0, #29
	if (__n > _S_max_size(_Tp_alloc_type(__a)))
   b480c:	4a10      	ldr	r2, [pc, #64]	; (b4850 <_ZNSt6vectorI10CheckpointSaIS0_EEC1ESt16initializer_listIS0_ERKS1_+0x60>)
   b480e:	ebb2 0fc3 	cmp.w	r2, r3, lsl #3
   b4812:	4688      	mov	r8, r1
   b4814:	d202      	bcs.n	b481c <_ZNSt6vectorI10CheckpointSaIS0_EEC1ESt16initializer_listIS0_ERKS1_+0x2c>
	  __throw_length_error(
   b4816:	480f      	ldr	r0, [pc, #60]	; (b4854 <_ZNSt6vectorI10CheckpointSaIS0_EEC1ESt16initializer_listIS0_ERKS1_+0x64>)
   b4818:	f006 fcc4 	bl	bb1a4 <_ZSt20__throw_length_errorPKc>
	    = this->_M_allocate(_S_check_init_len(__n, _M_get_Tp_allocator()));
   b481c:	f7ff fccd 	bl	b41ba <_ZNSt12_Vector_baseI10CheckpointSaIS0_EE11_M_allocateEj.isra.0>
	  this->_M_impl._M_end_of_storage = this->_M_impl._M_start + __n;
   b4820:	19c6      	adds	r6, r0, r7
	    = this->_M_allocate(_S_check_init_len(__n, _M_get_Tp_allocator()));
   b4822:	4602      	mov	r2, r0
   b4824:	6028      	str	r0, [r5, #0]
	  this->_M_impl._M_end_of_storage = this->_M_impl._M_start + __n;
   b4826:	60ae      	str	r6, [r5, #8]
   b4828:	4623      	mov	r3, r4
   b482a:	429f      	cmp	r7, r3
   b482c:	d00b      	beq.n	b4846 <_ZNSt6vectorI10CheckpointSaIS0_EEC1ESt16initializer_listIS0_ERKS1_+0x56>
    { ::new(static_cast<void*>(__p)) _Tp(std::forward<_Args>(__args)...); }
   b482e:	18d4      	adds	r4, r2, r3
   b4830:	bf1c      	itt	ne
   b4832:	eb08 0103 	addne.w	r1, r8, r3
   b4836:	e9d1 0100 	ldrdne	r0, r1, [r1]
   b483a:	f103 0308 	add.w	r3, r3, #8
   b483e:	bf18      	it	ne
   b4840:	e9c4 0100 	strdne	r0, r1, [r4]
   b4844:	e7f1      	b.n	b482a <_ZNSt6vectorI10CheckpointSaIS0_EEC1ESt16initializer_listIS0_ERKS1_+0x3a>
      }
   b4846:	4628      	mov	r0, r5
	  this->_M_impl._M_finish =
   b4848:	606e      	str	r6, [r5, #4]
      }
   b484a:	b002      	add	sp, #8
   b484c:	e8bd 81f0 	ldmia.w	sp!, {r4, r5, r6, r7, r8, pc}
   b4850:	7ffffff8 	.word	0x7ffffff8
   b4854:	000be393 	.word	0x000be393

000b4858 <_ZNSt6vectorINSt7__cxx1112basic_stringIcSt11char_traitsIcESaIcEEESaIS5_EEC1ESt16initializer_listIS5_ERKS6_>:
      vector(initializer_list<value_type> __l,
   b4858:	e92d 41f3 	stmdb	sp!, {r0, r1, r4, r5, r6, r7, r8, lr}
   b485c:	ab02      	add	r3, sp, #8
   b485e:	e903 0006 	stmdb	r3, {r1, r2}
	: _M_start(), _M_finish(), _M_end_of_storage()
   b4862:	2300      	movs	r3, #0
   b4864:	e9c0 3300 	strd	r3, r3, [r0]
   b4868:	6083      	str	r3, [r0, #8]
   b486a:	4616      	mov	r6, r2
   b486c:	2318      	movs	r3, #24
   b486e:	435e      	muls	r6, r3
   b4870:	4b10      	ldr	r3, [pc, #64]	; (b48b4 <_ZNSt6vectorINSt7__cxx1112basic_stringIcSt11char_traitsIcESaIcEEESaIS5_EEC1ESt16initializer_listIS5_ERKS6_+0x5c>)
      vector(initializer_list<value_type> __l,
   b4872:	4604      	mov	r4, r0
   b4874:	10f0      	asrs	r0, r6, #3
   b4876:	4358      	muls	r0, r3
	if (__n > _S_max_size(_Tp_alloc_type(__a)))
   b4878:	4b0f      	ldr	r3, [pc, #60]	; (b48b8 <_ZNSt6vectorINSt7__cxx1112basic_stringIcSt11char_traitsIcESaIcEEESaIS5_EEC1ESt16initializer_listIS5_ERKS6_+0x60>)
   b487a:	429e      	cmp	r6, r3
   b487c:	460f      	mov	r7, r1
   b487e:	eb01 0806 	add.w	r8, r1, r6
   b4882:	d902      	bls.n	b488a <_ZNSt6vectorINSt7__cxx1112basic_stringIcSt11char_traitsIcESaIcEEESaIS5_EEC1ESt16initializer_listIS5_ERKS6_+0x32>
	  __throw_length_error(
   b4884:	480d      	ldr	r0, [pc, #52]	; (b48bc <_ZNSt6vectorINSt7__cxx1112basic_stringIcSt11char_traitsIcESaIcEEESaIS5_EEC1ESt16initializer_listIS5_ERKS6_+0x64>)
   b4886:	f006 fc8d 	bl	bb1a4 <_ZSt20__throw_length_errorPKc>
	    = this->_M_allocate(_S_check_init_len(__n, _M_get_Tp_allocator()));
   b488a:	f7ff fc77 	bl	b417c <_ZNSt12_Vector_baseINSt7__cxx1112basic_stringIcSt11char_traitsIcESaIcEEESaIS5_EE11_M_allocateEj.isra.0>
	  this->_M_impl._M_end_of_storage = this->_M_impl._M_start + __n;
   b488e:	4406      	add	r6, r0
	    = this->_M_allocate(_S_check_init_len(__n, _M_get_Tp_allocator()));
   b4890:	4605      	mov	r5, r0
   b4892:	6020      	str	r0, [r4, #0]
	  this->_M_impl._M_end_of_storage = this->_M_impl._M_start + __n;
   b4894:	60a6      	str	r6, [r4, #8]
   b4896:	45b8      	cmp	r8, r7
   b4898:	d007      	beq.n	b48aa <_ZNSt6vectorINSt7__cxx1112basic_stringIcSt11char_traitsIcESaIcEEESaIS5_EEC1ESt16initializer_listIS5_ERKS6_+0x52>
   b489a:	b11d      	cbz	r5, b48a4 <_ZNSt6vectorINSt7__cxx1112basic_stringIcSt11char_traitsIcESaIcEEESaIS5_EEC1ESt16initializer_listIS5_ERKS6_+0x4c>
   b489c:	4639      	mov	r1, r7
   b489e:	4628      	mov	r0, r5
   b48a0:	f7ff fc98 	bl	b41d4 <_ZNSt7__cxx1112basic_stringIcSt11char_traitsIcESaIcEEC2ERKS4_.isra.0>
   b48a4:	3718      	adds	r7, #24
   b48a6:	3518      	adds	r5, #24
   b48a8:	e7f5      	b.n	b4896 <_ZNSt6vectorINSt7__cxx1112basic_stringIcSt11char_traitsIcESaIcEEESaIS5_EEC1ESt16initializer_listIS5_ERKS6_+0x3e>
      }
   b48aa:	4620      	mov	r0, r4
	  this->_M_impl._M_finish =
   b48ac:	6065      	str	r5, [r4, #4]
      }
   b48ae:	b002      	add	sp, #8
   b48b0:	e8bd 81f0 	ldmia.w	sp!, {r4, r5, r6, r7, r8, pc}
   b48b4:	aaaaaaab 	.word	0xaaaaaaab
   b48b8:	7ffffff8 	.word	0x7ffffff8
   b48bc:	000be393 	.word	0x000be393

000b48c0 <_ZNSt6vectorI10CheckpointSaIS0_EEC1ERKS2_>:
      vector(const vector& __x)
   b48c0:	b5f8      	push	{r3, r4, r5, r6, r7, lr}
      { return size_type(this->_M_impl._M_finish - this->_M_impl._M_start); }
   b48c2:	e9d1 3700 	ldrd	r3, r7, [r1]
	: _M_start(), _M_finish(), _M_end_of_storage()
   b48c6:	2500      	movs	r5, #0
      { return size_type(this->_M_impl._M_finish - this->_M_impl._M_start); }
   b48c8:	1aff      	subs	r7, r7, r3
      vector(const vector& __x)
   b48ca:	4604      	mov	r4, r0
	: _M_start(), _M_finish(), _M_end_of_storage()
   b48cc:	e9c0 5500 	strd	r5, r5, [r0]
   b48d0:	6085      	str	r5, [r0, #8]
	this->_M_impl._M_start = this->_M_allocate(__n);
   b48d2:	10f8      	asrs	r0, r7, #3
      vector(const vector& __x)
   b48d4:	460e      	mov	r6, r1
	this->_M_impl._M_start = this->_M_allocate(__n);
   b48d6:	f7ff fc70 	bl	b41ba <_ZNSt12_Vector_baseI10CheckpointSaIS0_EE11_M_allocateEj.isra.0>
	this->_M_impl._M_finish = this->_M_impl._M_start;
   b48da:	e9c4 0000 	strd	r0, r0, [r4]
	this->_M_impl._M_end_of_storage = this->_M_impl._M_start + __n;
   b48de:	4407      	add	r7, r0
   b48e0:	60a7      	str	r7, [r4, #8]
      __normal_iterator(const _Iterator& __i) _GLIBCXX_NOEXCEPT
   b48e2:	e9d6 7600 	ldrd	r7, r6, [r6]
	this->_M_impl._M_start = this->_M_allocate(__n);
   b48e6:	4602      	mov	r2, r0
   b48e8:	1bf6      	subs	r6, r6, r7
      : _M_current(__i) { }
   b48ea:	462b      	mov	r3, r5
   b48ec:	42b3      	cmp	r3, r6
   b48ee:	eb02 0503 	add.w	r5, r2, r3
   b48f2:	d006      	beq.n	b4902 <_ZNSt6vectorI10CheckpointSaIS0_EEC1ERKS2_+0x42>
   b48f4:	b11d      	cbz	r5, b48fe <_ZNSt6vectorI10CheckpointSaIS0_EEC1ERKS2_+0x3e>
   b48f6:	18f9      	adds	r1, r7, r3
   b48f8:	c903      	ldmia	r1, {r0, r1}
   b48fa:	e885 0003 	stmia.w	r5, {r0, r1}
   b48fe:	3308      	adds	r3, #8
   b4900:	e7f4      	b.n	b48ec <_ZNSt6vectorI10CheckpointSaIS0_EEC1ERKS2_+0x2c>
	this->_M_impl._M_finish =
   b4902:	6065      	str	r5, [r4, #4]
      }
   b4904:	4620      	mov	r0, r4
   b4906:	bdf8      	pop	{r3, r4, r5, r6, r7, pc}

000b4908 <_ZSteqIcEN9__gnu_cxx11__enable_ifIXsrSt9__is_charIT_E7__valueEbE6__typeERKNSt7__cxx1112basic_stringIS3_St11char_traitsIS3_ESaIS3_EEESE_>:
    { return __lhs.compare(__rhs) == 0; }

  template<typename _CharT>
    inline
    typename __gnu_cxx::__enable_if<__is_char<_CharT>::__value, bool>::__type
    operator==(const basic_string<_CharT>& __lhs,
   b4908:	b508      	push	{r3, lr}
      { return _M_string_length; }
   b490a:	6842      	ldr	r2, [r0, #4]
	       const basic_string<_CharT>& __rhs) _GLIBCXX_NOEXCEPT
    { return (__lhs.size() == __rhs.size()
	      && !std::char_traits<_CharT>::compare(__lhs.data(), __rhs.data(),
   b490c:	684b      	ldr	r3, [r1, #4]
   b490e:	429a      	cmp	r2, r3
   b4910:	d108      	bne.n	b4924 <_ZSteqIcEN9__gnu_cxx11__enable_ifIXsrSt9__is_charIT_E7__valueEbE6__typeERKNSt7__cxx1112basic_stringIS3_St11char_traitsIS3_ESaIS3_EEESE_+0x1c>
	if (__n == 0)
   b4912:	b14a      	cbz	r2, b4928 <_ZSteqIcEN9__gnu_cxx11__enable_ifIXsrSt9__is_charIT_E7__valueEbE6__typeERKNSt7__cxx1112basic_stringIS3_St11char_traitsIS3_ESaIS3_EEESE_+0x20>
	return __builtin_memcmp(__s1, __s2, __n);
   b4914:	6809      	ldr	r1, [r1, #0]
   b4916:	6800      	ldr	r0, [r0, #0]
   b4918:	f007 fc16 	bl	bc148 <memcmp>
   b491c:	fab0 f080 	clz	r0, r0
   b4920:	0940      	lsrs	r0, r0, #5
						    __lhs.size())); }
   b4922:	bd08      	pop	{r3, pc}
	      && !std::char_traits<_CharT>::compare(__lhs.data(), __rhs.data(),
   b4924:	2000      	movs	r0, #0
   b4926:	e7fc      	b.n	b4922 <_ZSteqIcEN9__gnu_cxx11__enable_ifIXsrSt9__is_charIT_E7__valueEbE6__typeERKNSt7__cxx1112basic_stringIS3_St11char_traitsIS3_ESaIS3_EEESE_+0x1a>
   b4928:	2001      	movs	r0, #1
   b492a:	e7fa      	b.n	b4922 <_ZSteqIcEN9__gnu_cxx11__enable_ifIXsrSt9__is_charIT_E7__valueEbE6__typeERKNSt7__cxx1112basic_stringIS3_St11char_traitsIS3_ESaIS3_EEESE_+0x1a>

000b492c <_Z14onDataReceivedPKhjRKN8particle13BlePeerDeviceEPv>:
void onDataReceived(const uint8_t* data, size_t len, const BlePeerDevice& peer, void* context){
   b492c:	e92d 4ff0 	stmdb	sp!, {r4, r5, r6, r7, r8, r9, sl, fp, lr}
  txCharacteristic.setValue("ok");
   b4930:	2200      	movs	r2, #0
void onDataReceived(const uint8_t* data, size_t len, const BlePeerDevice& peer, void* context){
   b4932:	b0a3      	sub	sp, #140	; 0x8c
   b4934:	4604      	mov	r4, r0
   b4936:	460d      	mov	r5, r1
  txCharacteristic.setValue("ok");
   b4938:	4895      	ldr	r0, [pc, #596]	; (b4b90 <_Z14onDataReceivedPKhjRKN8particle13BlePeerDeviceEPv+0x264>)
   b493a:	4996      	ldr	r1, [pc, #600]	; (b4b94 <_Z14onDataReceivedPKhjRKN8particle13BlePeerDeviceEPv+0x268>)
   b493c:	f004 fba8 	bl	b9090 <_ZN8particle17BleCharacteristic8setValueEPKcNS_11BleTxRxTypeE>
  String inputBuffer = "";
   b4940:	4995      	ldr	r1, [pc, #596]	; (b4b98 <_Z14onDataReceivedPKhjRKN8particle13BlePeerDeviceEPv+0x26c>)
   b4942:	a803      	add	r0, sp, #12
   b4944:	f005 fd93 	bl	ba46e <_ZN6StringC1EPK19__FlashStringHelper>
  String nameBuffer;
   b4948:	4993      	ldr	r1, [pc, #588]	; (b4b98 <_Z14onDataReceivedPKhjRKN8particle13BlePeerDeviceEPv+0x26c>)
   b494a:	a807      	add	r0, sp, #28
   b494c:	f005 fd8f 	bl	ba46e <_ZN6StringC1EPK19__FlashStringHelper>
  for(int i = 0; i < len; i++){
   b4950:	4425      	add	r5, r4
   b4952:	42a5      	cmp	r5, r4
   b4954:	d005      	beq.n	b4962 <_Z14onDataReceivedPKhjRKN8particle13BlePeerDeviceEPv+0x36>
	String & operator += (char c)			{concat(c); return (*this);}
   b4956:	f814 1b01 	ldrb.w	r1, [r4], #1
   b495a:	a803      	add	r0, sp, #12
   b495c:	f005 fe0f 	bl	ba57e <_ZN6String6concatEc>
   b4960:	e7f7      	b.n	b4952 <_Z14onDataReceivedPKhjRKN8particle13BlePeerDeviceEPv+0x26>
  Serial.println(inputBuffer);
   b4962:	f006 fa65 	bl	bae30 <_Z16_fetch_usbserialv>
   b4966:	9903      	ldr	r1, [sp, #12]
   b4968:	f005 fcd7 	bl	ba31a <_ZN5Print7printlnEPKc>
  if(inputBuffer.indexOf("wifi:") == 0){
   b496c:	498b      	ldr	r1, [pc, #556]	; (b4b9c <_Z14onDataReceivedPKhjRKN8particle13BlePeerDeviceEPv+0x270>)
   b496e:	a80f      	add	r0, sp, #60	; 0x3c
   b4970:	f005 fd7d 	bl	ba46e <_ZN6StringC1EPK19__FlashStringHelper>
   b4974:	a90f      	add	r1, sp, #60	; 0x3c
   b4976:	a803      	add	r0, sp, #12
   b4978:	f005 fe72 	bl	ba660 <_ZNK6String7indexOfERKS_>
   b497c:	4604      	mov	r4, r0
   b497e:	a80f      	add	r0, sp, #60	; 0x3c
   b4980:	f005 fd2a 	bl	ba3d8 <_ZN6StringD1Ev>
   b4984:	2c00      	cmp	r4, #0
   b4986:	d15b      	bne.n	b4a40 <_Z14onDataReceivedPKhjRKN8particle13BlePeerDeviceEPv+0x114>
    int commaIndex = inputBuffer.indexOf(",");
   b4988:	4985      	ldr	r1, [pc, #532]	; (b4ba0 <_Z14onDataReceivedPKhjRKN8particle13BlePeerDeviceEPv+0x274>)
    SSID = inputBuffer.substring(5, commaIndex);
   b498a:	4d86      	ldr	r5, [pc, #536]	; (b4ba4 <_Z14onDataReceivedPKhjRKN8particle13BlePeerDeviceEPv+0x278>)
    int commaIndex = inputBuffer.indexOf(",");
   b498c:	a80f      	add	r0, sp, #60	; 0x3c
   b498e:	f005 fd6e 	bl	ba46e <_ZN6StringC1EPK19__FlashStringHelper>
   b4992:	a90f      	add	r1, sp, #60	; 0x3c
   b4994:	a803      	add	r0, sp, #12
   b4996:	f005 fe63 	bl	ba660 <_ZNK6String7indexOfERKS_>
   b499a:	4604      	mov	r4, r0
   b499c:	a80f      	add	r0, sp, #60	; 0x3c
   b499e:	f005 fd1b 	bl	ba3d8 <_ZN6StringD1Ev>
    SSID = inputBuffer.substring(5, commaIndex);
   b49a2:	4623      	mov	r3, r4
   b49a4:	2205      	movs	r2, #5
   b49a6:	a903      	add	r1, sp, #12
   b49a8:	a80f      	add	r0, sp, #60	; 0x3c
   b49aa:	f005 fe5d 	bl	ba668 <_ZNK6String9substringEjj>
   b49ae:	a90f      	add	r1, sp, #60	; 0x3c
   b49b0:	4628      	mov	r0, r5
   b49b2:	f005 fd9c 	bl	ba4ee <_ZN6StringaSEOS_>
   b49b6:	a80f      	add	r0, sp, #60	; 0x3c
   b49b8:	f005 fd0e 	bl	ba3d8 <_ZN6StringD1Ev>
    password = inputBuffer.substring(commaIndex + 1);
   b49bc:	1c62      	adds	r2, r4, #1
   b49be:	4c7a      	ldr	r4, [pc, #488]	; (b4ba8 <_Z14onDataReceivedPKhjRKN8particle13BlePeerDeviceEPv+0x27c>)
   b49c0:	a903      	add	r1, sp, #12
   b49c2:	a80f      	add	r0, sp, #60	; 0x3c
   b49c4:	f005 fe70 	bl	ba6a8 <_ZNK6String9substringEj>
   b49c8:	a90f      	add	r1, sp, #60	; 0x3c
   b49ca:	4620      	mov	r0, r4
   b49cc:	f005 fd8f 	bl	ba4ee <_ZN6StringaSEOS_>
   b49d0:	a80f      	add	r0, sp, #60	; 0x3c
   b49d2:	f005 fd01 	bl	ba3d8 <_ZN6StringD1Ev>
    Serial.printlnf("SSID: %s, password: %s", SSID.c_str(), password.c_str());
   b49d6:	f006 fa2b 	bl	bae30 <_Z16_fetch_usbserialv>
   b49da:	682a      	ldr	r2, [r5, #0]
   b49dc:	6823      	ldr	r3, [r4, #0]
   b49de:	4973      	ldr	r1, [pc, #460]	; (b4bac <_Z14onDataReceivedPKhjRKN8particle13BlePeerDeviceEPv+0x280>)
   b49e0:	f7ff fd14 	bl	b440c <_ZN5Print8printlnfEPKcz>
	const char * c_str() const { return buffer; }
   b49e4:	682f      	ldr	r7, [r5, #0]
   b49e6:	6825      	ldr	r5, [r4, #0]
    bool setCredentials(const char *ssid, const char *password) {
        return setCredentials(ssid, password, WPA2);
    }

    bool setCredentials(const char *ssid, const char *password, unsigned long security, unsigned long cipher=WLAN_CIPHER_NOT_SET) {
        return setCredentials(ssid, ssid ? strlen(ssid) : 0, password, password ? strlen(password) : 0, security, cipher);
   b49e8:	b337      	cbz	r7, b4a38 <_Z14onDataReceivedPKhjRKN8particle13BlePeerDeviceEPv+0x10c>
   b49ea:	4638      	mov	r0, r7
   b49ec:	f007 fc2c 	bl	bc248 <strlen>
   b49f0:	4606      	mov	r6, r0
   b49f2:	b31d      	cbz	r5, b4a3c <_Z14onDataReceivedPKhjRKN8particle13BlePeerDeviceEPv+0x110>
   b49f4:	4628      	mov	r0, r5
   b49f6:	f007 fc27 	bl	bc248 <strlen>
   b49fa:	4604      	mov	r4, r0

    bool setCredentials(const char *ssid, unsigned int ssidLen, const char *password,
            unsigned int passwordLen, unsigned long security=WLAN_SEC_UNSEC, unsigned long cipher=WLAN_CIPHER_NOT_SET) {

        WLanCredentials creds;
        memset(&creds, 0, sizeof(creds));
   b49fc:	2238      	movs	r2, #56	; 0x38
   b49fe:	2100      	movs	r1, #0
   b4a00:	a814      	add	r0, sp, #80	; 0x50
   b4a02:	f007 fbd9 	bl	bc1b8 <memset>
        creds.size = sizeof(creds);
   b4a06:	234c      	movs	r3, #76	; 0x4c
        creds.ssid = ssid;
   b4a08:	e9cd 370f 	strd	r3, r7, [sp, #60]	; 0x3c
        creds.ssid_len = ssidLen;
        creds.password = password;
        creds.password_len = passwordLen;
        creds.security = WLanSecurityType(security);
        creds.cipher = WLanSecurityCipher(cipher);
        return (network_set_credentials(*this, 0, &creds, NULL) == 0);
   b4a0c:	4868      	ldr	r0, [pc, #416]	; (b4bb0 <_Z14onDataReceivedPKhjRKN8particle13BlePeerDeviceEPv+0x284>)
        creds.password_len = passwordLen;
   b4a0e:	9413      	str	r4, [sp, #76]	; 0x4c
        creds.security = WLanSecurityType(security);
   b4a10:	2303      	movs	r3, #3
   b4a12:	f88d 3050 	strb.w	r3, [sp, #80]	; 0x50
        return (network_set_credentials(*this, 0, &creds, NULL) == 0);
   b4a16:	2300      	movs	r3, #0
   b4a18:	6840      	ldr	r0, [r0, #4]
   b4a1a:	aa0f      	add	r2, sp, #60	; 0x3c
   b4a1c:	4619      	mov	r1, r3
        creds.password = password;
   b4a1e:	e9cd 6511 	strd	r6, r5, [sp, #68]	; 0x44
        return (network_set_credentials(*this, 0, &creds, NULL) == 0);
   b4a22:	f004 f813 	bl	b8a4c <network_set_credentials>
  String nameBuffer;
   b4a26:	a807      	add	r0, sp, #28
   b4a28:	f005 fcd6 	bl	ba3d8 <_ZN6StringD1Ev>
  String inputBuffer = "";
   b4a2c:	a803      	add	r0, sp, #12
   b4a2e:	f005 fcd3 	bl	ba3d8 <_ZN6StringD1Ev>
}
   b4a32:	b023      	add	sp, #140	; 0x8c
   b4a34:	e8bd 8ff0 	ldmia.w	sp!, {r4, r5, r6, r7, r8, r9, sl, fp, pc}
        return setCredentials(ssid, ssid ? strlen(ssid) : 0, password, password ? strlen(password) : 0, security, cipher);
   b4a38:	463e      	mov	r6, r7
   b4a3a:	e7da      	b.n	b49f2 <_Z14onDataReceivedPKhjRKN8particle13BlePeerDeviceEPv+0xc6>
   b4a3c:	462c      	mov	r4, r5
   b4a3e:	e7dd      	b.n	b49fc <_Z14onDataReceivedPKhjRKN8particle13BlePeerDeviceEPv+0xd0>
  else if(inputBuffer.indexOf("city:") == 0){
   b4a40:	495c      	ldr	r1, [pc, #368]	; (b4bb4 <_Z14onDataReceivedPKhjRKN8particle13BlePeerDeviceEPv+0x288>)
   b4a42:	a80f      	add	r0, sp, #60	; 0x3c
   b4a44:	f005 fd13 	bl	ba46e <_ZN6StringC1EPK19__FlashStringHelper>
   b4a48:	a90f      	add	r1, sp, #60	; 0x3c
   b4a4a:	a803      	add	r0, sp, #12
   b4a4c:	f005 fe08 	bl	ba660 <_ZNK6String7indexOfERKS_>
   b4a50:	4604      	mov	r4, r0
   b4a52:	a80f      	add	r0, sp, #60	; 0x3c
   b4a54:	f005 fcc0 	bl	ba3d8 <_ZN6StringD1Ev>
   b4a58:	2c00      	cmp	r4, #0
   b4a5a:	f040 8083 	bne.w	b4b64 <_Z14onDataReceivedPKhjRKN8particle13BlePeerDeviceEPv+0x238>
    inputBuffer = inputBuffer.substring(5);
   b4a5e:	2205      	movs	r2, #5
   b4a60:	a903      	add	r1, sp, #12
   b4a62:	a80f      	add	r0, sp, #60	; 0x3c
   b4a64:	f005 fe20 	bl	ba6a8 <_ZNK6String9substringEj>
   b4a68:	a90f      	add	r1, sp, #60	; 0x3c
   b4a6a:	a803      	add	r0, sp, #12
   b4a6c:	f005 fd3f 	bl	ba4ee <_ZN6StringaSEOS_>
   b4a70:	a80f      	add	r0, sp, #60	; 0x3c
   b4a72:	f005 fcb1 	bl	ba3d8 <_ZN6StringD1Ev>
      { return size_type(this->_M_impl._M_finish - this->_M_impl._M_start); }
   b4a76:	4d50      	ldr	r5, [pc, #320]	; (b4bb8 <_Z14onDataReceivedPKhjRKN8particle13BlePeerDeviceEPv+0x28c>)
   b4a78:	4f50      	ldr	r7, [pc, #320]	; (b4bbc <_Z14onDataReceivedPKhjRKN8particle13BlePeerDeviceEPv+0x290>)
        cityIndex = i;
   b4a7a:	f8df 8144 	ldr.w	r8, [pc, #324]	; b4bc0 <_Z14onDataReceivedPKhjRKN8particle13BlePeerDeviceEPv+0x294>
   b4a7e:	e9d5 2300 	ldrd	r2, r3, [r5]
   b4a82:	1a9b      	subs	r3, r3, r2
   b4a84:	10db      	asrs	r3, r3, #3
   b4a86:	437b      	muls	r3, r7
    for(int i = 0; i < cities.size(); i++){
   b4a88:	42a3      	cmp	r3, r4
   b4a8a:	d913      	bls.n	b4ab4 <_Z14onDataReceivedPKhjRKN8particle13BlePeerDeviceEPv+0x188>
      { return _M_dataplus._M_p; }
   b4a8c:	2328      	movs	r3, #40	; 0x28
   b4a8e:	fb03 2204 	mla	r2, r3, r4, r2
      if(inputBuffer == String(cities[i].name.c_str())){
   b4a92:	a80f      	add	r0, sp, #60	; 0x3c
   b4a94:	68d1      	ldr	r1, [r2, #12]
   b4a96:	f005 fcea 	bl	ba46e <_ZN6StringC1EPK19__FlashStringHelper>
	unsigned char operator == (const String &rhs) const {return equals(rhs);}
   b4a9a:	a90f      	add	r1, sp, #60	; 0x3c
   b4a9c:	a803      	add	r0, sp, #12
   b4a9e:	f005 fdb1 	bl	ba604 <_ZNK6String6equalsERKS_>
   b4aa2:	4606      	mov	r6, r0
   b4aa4:	a80f      	add	r0, sp, #60	; 0x3c
   b4aa6:	f005 fc97 	bl	ba3d8 <_ZN6StringD1Ev>
   b4aaa:	b10e      	cbz	r6, b4ab0 <_Z14onDataReceivedPKhjRKN8particle13BlePeerDeviceEPv+0x184>
        cityIndex = i;
   b4aac:	f8c8 4000 	str.w	r4, [r8]
    for(int i = 0; i < cities.size(); i++){
   b4ab0:	3401      	adds	r4, #1
   b4ab2:	e7e4      	b.n	b4a7e <_Z14onDataReceivedPKhjRKN8particle13BlePeerDeviceEPv+0x152>
    if(cityIndex == -1){
   b4ab4:	4e42      	ldr	r6, [pc, #264]	; (b4bc0 <_Z14onDataReceivedPKhjRKN8particle13BlePeerDeviceEPv+0x294>)
   b4ab6:	6833      	ldr	r3, [r6, #0]
   b4ab8:	1c59      	adds	r1, r3, #1
   b4aba:	d105      	bne.n	b4ac8 <_Z14onDataReceivedPKhjRKN8particle13BlePeerDeviceEPv+0x19c>
      txCharacteristic.setValue("incorrect city name");
   b4abc:	4941      	ldr	r1, [pc, #260]	; (b4bc4 <_Z14onDataReceivedPKhjRKN8particle13BlePeerDeviceEPv+0x298>)
   b4abe:	2200      	movs	r2, #0
        txCharacteristic.setValue("incorrect railway color");
   b4ac0:	4833      	ldr	r0, [pc, #204]	; (b4b90 <_Z14onDataReceivedPKhjRKN8particle13BlePeerDeviceEPv+0x264>)
   b4ac2:	f004 fae5 	bl	b9090 <_ZN8particle17BleCharacteristic8setValueEPKcNS_11BleTxRxTypeE>
        return;
   b4ac6:	e7ae      	b.n	b4a26 <_Z14onDataReceivedPKhjRKN8particle13BlePeerDeviceEPv+0xfa>
	return *(this->_M_impl._M_start + __n);
   b4ac8:	2428      	movs	r4, #40	; 0x28
   b4aca:	4363      	muls	r3, r4
   b4acc:	18d1      	adds	r1, r2, r3
      { return size_type(this->_M_impl._M_finish - this->_M_impl._M_start); }
   b4ace:	58d3      	ldr	r3, [r2, r3]
   b4ad0:	6849      	ldr	r1, [r1, #4]
    addressArr = std::vector<int>(cities[cityIndex].slaveCountExpected, 0);
   b4ad2:	f8df 810c 	ldr.w	r8, [pc, #268]	; b4be0 <_Z14onDataReceivedPKhjRKN8particle13BlePeerDeviceEPv+0x2b4>
   b4ad6:	1ac9      	subs	r1, r1, r3
   b4ad8:	4b3b      	ldr	r3, [pc, #236]	; (b4bc8 <_Z14onDataReceivedPKhjRKN8particle13BlePeerDeviceEPv+0x29c>)
   b4ada:	1089      	asrs	r1, r1, #2
   b4adc:	4359      	muls	r1, r3
    sequenceArr = std::vector<int>(cities[cityIndex].railways.size() * 2, 0);
   b4ade:	aa0b      	add	r2, sp, #44	; 0x2c
   b4ae0:	ab02      	add	r3, sp, #8
   b4ae2:	2700      	movs	r7, #0
   b4ae4:	0049      	lsls	r1, r1, #1
   b4ae6:	a80f      	add	r0, sp, #60	; 0x3c
   b4ae8:	970b      	str	r7, [sp, #44]	; 0x2c
   b4aea:	f7ff fe5f 	bl	b47ac <_ZNSt6vectorIiSaIiEEC1EjRKiRKS0_>
   b4aee:	a90f      	add	r1, sp, #60	; 0x3c
   b4af0:	4836      	ldr	r0, [pc, #216]	; (b4bcc <_Z14onDataReceivedPKhjRKN8particle13BlePeerDeviceEPv+0x2a0>)
   b4af2:	f7ff fe31 	bl	b4758 <_ZNSt6vectorIiSaIiEEaSEOS1_.isra.0>
      }
   b4af6:	a80f      	add	r0, sp, #60	; 0x3c
   b4af8:	f7ff fe24 	bl	b4744 <_ZNSt12_Vector_baseIiSaIiEED1Ev>
	return *(this->_M_impl._M_start + __n);
   b4afc:	6832      	ldr	r2, [r6, #0]
    addressArr = std::vector<int>(cities[cityIndex].slaveCountExpected, 0);
   b4afe:	682b      	ldr	r3, [r5, #0]
   b4b00:	fb04 3302 	mla	r3, r4, r2, r3
   b4b04:	a80f      	add	r0, sp, #60	; 0x3c
   b4b06:	aa0b      	add	r2, sp, #44	; 0x2c
   b4b08:	6a59      	ldr	r1, [r3, #36]	; 0x24
   b4b0a:	970b      	str	r7, [sp, #44]	; 0x2c
   b4b0c:	ab02      	add	r3, sp, #8
   b4b0e:	f7ff fe4d 	bl	b47ac <_ZNSt6vectorIiSaIiEEC1EjRKiRKS0_>
   b4b12:	a90f      	add	r1, sp, #60	; 0x3c
   b4b14:	4640      	mov	r0, r8
   b4b16:	f7ff fe1f 	bl	b4758 <_ZNSt6vectorIiSaIiEEaSEOS1_.isra.0>
      }
   b4b1a:	a80f      	add	r0, sp, #60	; 0x3c
   b4b1c:	f7ff fe12 	bl	b4744 <_ZNSt12_Vector_baseIiSaIiEED1Ev>
    randomizeAddress();
   b4b20:	f7ff fc82 	bl	b4428 <_Z16randomizeAddressv>
    txCharacteristic.setValue("slave addresses sorted");
   b4b24:	463a      	mov	r2, r7
   b4b26:	492a      	ldr	r1, [pc, #168]	; (b4bd0 <_Z14onDataReceivedPKhjRKN8particle13BlePeerDeviceEPv+0x2a4>)
   b4b28:	4819      	ldr	r0, [pc, #100]	; (b4b90 <_Z14onDataReceivedPKhjRKN8particle13BlePeerDeviceEPv+0x264>)
   b4b2a:	f004 fab1 	bl	b9090 <_ZN8particle17BleCharacteristic8setValueEPKcNS_11BleTxRxTypeE>
    Wire.beginTransmission(addressArr[0]);
   b4b2e:	f006 facd 	bl	bb0cc <_Z19__fetch_global_Wirev>
   b4b32:	f8d8 3000 	ldr.w	r3, [r8]
   b4b36:	6819      	ldr	r1, [r3, #0]
   b4b38:	f005 fa62 	bl	ba000 <_ZN7TwoWire17beginTransmissionEi>
    Wire.write('3');
   b4b3c:	f006 fac6 	bl	bb0cc <_Z19__fetch_global_Wirev>
   b4b40:	2133      	movs	r1, #51	; 0x33
   b4b42:	f7ff fb6d 	bl	b4220 <_ZN7TwoWire5writeEi.isra.0>
    Wire.endTransmission();
   b4b46:	f006 fac1 	bl	bb0cc <_Z19__fetch_global_Wirev>
   b4b4a:	f005 fa60 	bl	ba00e <_ZN7TwoWire15endTransmissionEv>
    Serial.printlnf("city: %s", cities[cityIndex].name.c_str());
   b4b4e:	f006 f96f 	bl	bae30 <_Z16_fetch_usbserialv>
	return *(this->_M_impl._M_start + __n);
   b4b52:	6832      	ldr	r2, [r6, #0]
   b4b54:	682b      	ldr	r3, [r5, #0]
   b4b56:	491f      	ldr	r1, [pc, #124]	; (b4bd4 <_Z14onDataReceivedPKhjRKN8particle13BlePeerDeviceEPv+0x2a8>)
   b4b58:	fb04 3402 	mla	r4, r4, r2, r3
   b4b5c:	68e2      	ldr	r2, [r4, #12]
   b4b5e:	f7ff fc55 	bl	b440c <_ZN5Print8printlnfEPKcz>
   b4b62:	e760      	b.n	b4a26 <_Z14onDataReceivedPKhjRKN8particle13BlePeerDeviceEPv+0xfa>
  else if(inputBuffer.indexOf("color:") == 0){
   b4b64:	491c      	ldr	r1, [pc, #112]	; (b4bd8 <_Z14onDataReceivedPKhjRKN8particle13BlePeerDeviceEPv+0x2ac>)
   b4b66:	a80f      	add	r0, sp, #60	; 0x3c
   b4b68:	f005 fc81 	bl	ba46e <_ZN6StringC1EPK19__FlashStringHelper>
   b4b6c:	a90f      	add	r1, sp, #60	; 0x3c
   b4b6e:	a803      	add	r0, sp, #12
   b4b70:	f005 fd76 	bl	ba660 <_ZNK6String7indexOfERKS_>
   b4b74:	4604      	mov	r4, r0
   b4b76:	a80f      	add	r0, sp, #60	; 0x3c
   b4b78:	f005 fc2e 	bl	ba3d8 <_ZN6StringD1Ev>
   b4b7c:	2c00      	cmp	r4, #0
   b4b7e:	f040 81a9 	bne.w	b4ed4 <_Z14onDataReceivedPKhjRKN8particle13BlePeerDeviceEPv+0x5a8>
    if(cityIndex == -1){
   b4b82:	4f0f      	ldr	r7, [pc, #60]	; (b4bc0 <_Z14onDataReceivedPKhjRKN8particle13BlePeerDeviceEPv+0x294>)
   b4b84:	683b      	ldr	r3, [r7, #0]
   b4b86:	3301      	adds	r3, #1
   b4b88:	d12c      	bne.n	b4be4 <_Z14onDataReceivedPKhjRKN8particle13BlePeerDeviceEPv+0x2b8>
      txCharacteristic.setValue("city not set");
   b4b8a:	4914      	ldr	r1, [pc, #80]	; (b4bdc <_Z14onDataReceivedPKhjRKN8particle13BlePeerDeviceEPv+0x2b0>)
   b4b8c:	4622      	mov	r2, r4
   b4b8e:	e797      	b.n	b4ac0 <_Z14onDataReceivedPKhjRKN8particle13BlePeerDeviceEPv+0x194>
   b4b90:	2003e6ac 	.word	0x2003e6ac
   b4b94:	000be3c4 	.word	0x000be3c4
   b4b98:	000be7fe 	.word	0x000be7fe
   b4b9c:	000be3c7 	.word	0x000be3c7
   b4ba0:	000be3cd 	.word	0x000be3cd
   b4ba4:	200352a0 	.word	0x200352a0
   b4ba8:	2003e474 	.word	0x2003e474
   b4bac:	000be3cf 	.word	0x000be3cf
   b4bb0:	2003e718 	.word	0x2003e718
   b4bb4:	000be3e6 	.word	0x000be3e6
   b4bb8:	20035450 	.word	0x20035450
   b4bbc:	cccccccd 	.word	0xcccccccd
   b4bc0:	200350a8 	.word	0x200350a8
   b4bc4:	000be3ec 	.word	0x000be3ec
   b4bc8:	684bda13 	.word	0x684bda13
   b4bcc:	2003e69c 	.word	0x2003e69c
   b4bd0:	000be400 	.word	0x000be400
   b4bd4:	000be417 	.word	0x000be417
   b4bd8:	000be420 	.word	0x000be420
   b4bdc:	000be427 	.word	0x000be427
   b4be0:	200352f8 	.word	0x200352f8
    inputBuffer = inputBuffer.substring(6);
   b4be4:	2206      	movs	r2, #6
   b4be6:	a903      	add	r1, sp, #12
   b4be8:	a80f      	add	r0, sp, #60	; 0x3c
   b4bea:	f005 fd5d 	bl	ba6a8 <_ZNK6String9substringEj>
   b4bee:	a90f      	add	r1, sp, #60	; 0x3c
   b4bf0:	a803      	add	r0, sp, #12
   b4bf2:	f005 fc7c 	bl	ba4ee <_ZN6StringaSEOS_>
   b4bf6:	a80f      	add	r0, sp, #60	; 0x3c
   b4bf8:	f005 fbee 	bl	ba3d8 <_ZN6StringD1Ev>
   b4bfc:	f8df 82c8 	ldr.w	r8, [pc, #712]	; b4ec8 <_Z14onDataReceivedPKhjRKN8particle13BlePeerDeviceEPv+0x59c>
    if(bleCount < cities[cityIndex].railways.size()){
   b4c00:	4ea1      	ldr	r6, [pc, #644]	; (b4e88 <_Z14onDataReceivedPKhjRKN8particle13BlePeerDeviceEPv+0x55c>)
      { return size_type(this->_M_impl._M_finish - this->_M_impl._M_start); }
   b4c02:	f8df a2c8 	ldr.w	sl, [pc, #712]	; b4ecc <_Z14onDataReceivedPKhjRKN8particle13BlePeerDeviceEPv+0x5a0>
    nameBuffer = inputBuffer;
   b4c06:	a903      	add	r1, sp, #12
   b4c08:	a807      	add	r0, sp, #28
   b4c0a:	f005 fc61 	bl	ba4d0 <_ZN6StringaSERKS_>
    if(bleCount < cities[cityIndex].railways.size()){
   b4c0e:	6839      	ldr	r1, [r7, #0]
	return *(this->_M_impl._M_start + __n);
   b4c10:	f8d8 0000 	ldr.w	r0, [r8]
   b4c14:	2228      	movs	r2, #40	; 0x28
   b4c16:	434a      	muls	r2, r1
   b4c18:	1883      	adds	r3, r0, r2
      { return size_type(this->_M_impl._M_finish - this->_M_impl._M_start); }
   b4c1a:	5882      	ldr	r2, [r0, r2]
   b4c1c:	685b      	ldr	r3, [r3, #4]
   b4c1e:	1a9b      	subs	r3, r3, r2
   b4c20:	109b      	asrs	r3, r3, #2
   b4c22:	6832      	ldr	r2, [r6, #0]
   b4c24:	fb0a f303 	mul.w	r3, sl, r3
   b4c28:	429a      	cmp	r2, r3
   b4c2a:	f080 80bb 	bcs.w	b4da4 <_Z14onDataReceivedPKhjRKN8particle13BlePeerDeviceEPv+0x478>
      if((cityIndex == 0 || cityIndex == 1) && (inputBuffer == "green1" || inputBuffer == "green2")){
   b4c2e:	2901      	cmp	r1, #1
   b4c30:	d808      	bhi.n	b4c44 <_Z14onDataReceivedPKhjRKN8particle13BlePeerDeviceEPv+0x318>
	unsigned char operator == (const char *cstr) const {return equals(cstr);}
   b4c32:	4996      	ldr	r1, [pc, #600]	; (b4e8c <_Z14onDataReceivedPKhjRKN8particle13BlePeerDeviceEPv+0x560>)
   b4c34:	a803      	add	r0, sp, #12
   b4c36:	f005 fcf2 	bl	ba61e <_ZNK6String6equalsEPKc>
   b4c3a:	b328      	cbz	r0, b4c88 <_Z14onDataReceivedPKhjRKN8particle13BlePeerDeviceEPv+0x35c>
        nameBuffer = "green";
   b4c3c:	4994      	ldr	r1, [pc, #592]	; (b4e90 <_Z14onDataReceivedPKhjRKN8particle13BlePeerDeviceEPv+0x564>)
   b4c3e:	a807      	add	r0, sp, #28
   b4c40:	f005 fc5d 	bl	ba4fe <_ZN6StringaSEPKc>
   b4c44:	f04f 0b00 	mov.w	fp, #0
	return *(this->_M_impl._M_start + __n);
   b4c48:	f04f 0928 	mov.w	r9, #40	; 0x28
      for(int i = 0; i < cities[cityIndex].railways.size(); i++){
   b4c4c:	683d      	ldr	r5, [r7, #0]
   b4c4e:	f8d8 0000 	ldr.w	r0, [r8]
   b4c52:	fb09 f105 	mul.w	r1, r9, r5
   b4c56:	1842      	adds	r2, r0, r1
      { return size_type(this->_M_impl._M_finish - this->_M_impl._M_start); }
   b4c58:	5841      	ldr	r1, [r0, r1]
   b4c5a:	6852      	ldr	r2, [r2, #4]
   b4c5c:	1a52      	subs	r2, r2, r1
   b4c5e:	1092      	asrs	r2, r2, #2
   b4c60:	fb0a f202 	mul.w	r2, sl, r2
   b4c64:	455a      	cmp	r2, fp
   b4c66:	d93b      	bls.n	b4ce0 <_Z14onDataReceivedPKhjRKN8particle13BlePeerDeviceEPv+0x3b4>
        if((cityIndex != 0 || nameBuffer != String(purpleLineCTA.name.c_str())) && String(cities[cityIndex].railways[i].name.c_str()) == nameBuffer){
   b4c68:	b9ad      	cbnz	r5, b4c96 <_Z14onDataReceivedPKhjRKN8particle13BlePeerDeviceEPv+0x36a>
   b4c6a:	4b8a      	ldr	r3, [pc, #552]	; (b4e94 <_Z14onDataReceivedPKhjRKN8particle13BlePeerDeviceEPv+0x568>)
   b4c6c:	a80b      	add	r0, sp, #44	; 0x2c
   b4c6e:	6b19      	ldr	r1, [r3, #48]	; 0x30
   b4c70:	f005 fbfd 	bl	ba46e <_ZN6StringC1EPK19__FlashStringHelper>
	unsigned char operator != (const String &rhs) const {return !equals(rhs);}
   b4c74:	a90b      	add	r1, sp, #44	; 0x2c
   b4c76:	a807      	add	r0, sp, #28
   b4c78:	f005 fcc4 	bl	ba604 <_ZNK6String6equalsERKS_>
   b4c7c:	2800      	cmp	r0, #0
   b4c7e:	d02d      	beq.n	b4cdc <_Z14onDataReceivedPKhjRKN8particle13BlePeerDeviceEPv+0x3b0>
   b4c80:	a80b      	add	r0, sp, #44	; 0x2c
   b4c82:	f005 fba9 	bl	ba3d8 <_ZN6StringD1Ev>
   b4c86:	e022      	b.n	b4cce <_Z14onDataReceivedPKhjRKN8particle13BlePeerDeviceEPv+0x3a2>
	unsigned char operator == (const char *cstr) const {return equals(cstr);}
   b4c88:	4983      	ldr	r1, [pc, #524]	; (b4e98 <_Z14onDataReceivedPKhjRKN8particle13BlePeerDeviceEPv+0x56c>)
   b4c8a:	a803      	add	r0, sp, #12
   b4c8c:	f005 fcc7 	bl	ba61e <_ZNK6String6equalsEPKc>
      if((cityIndex == 0 || cityIndex == 1) && (inputBuffer == "green1" || inputBuffer == "green2")){
   b4c90:	2800      	cmp	r0, #0
   b4c92:	d1d3      	bne.n	b4c3c <_Z14onDataReceivedPKhjRKN8particle13BlePeerDeviceEPv+0x310>
   b4c94:	e7d6      	b.n	b4c44 <_Z14onDataReceivedPKhjRKN8particle13BlePeerDeviceEPv+0x318>
        if((cityIndex != 0 || nameBuffer != String(purpleLineCTA.name.c_str())) && String(cities[cityIndex].railways[i].name.c_str()) == nameBuffer){
   b4c96:	2200      	movs	r2, #0
	return *(this->_M_impl._M_start + __n);
   b4c98:	6839      	ldr	r1, [r7, #0]
   b4c9a:	f8d8 0000 	ldr.w	r0, [r8]
   b4c9e:	9201      	str	r2, [sp, #4]
   b4ca0:	fb09 f101 	mul.w	r1, r9, r1
   b4ca4:	5841      	ldr	r1, [r0, r1]
   b4ca6:	206c      	movs	r0, #108	; 0x6c
   b4ca8:	fb00 110b 	mla	r1, r0, fp, r1
   b4cac:	a80f      	add	r0, sp, #60	; 0x3c
   b4cae:	6b09      	ldr	r1, [r1, #48]	; 0x30
   b4cb0:	f005 fbdd 	bl	ba46e <_ZN6StringC1EPK19__FlashStringHelper>
	unsigned char operator == (const String &rhs) const {return equals(rhs);}
   b4cb4:	a907      	add	r1, sp, #28
   b4cb6:	a80f      	add	r0, sp, #60	; 0x3c
   b4cb8:	f005 fca4 	bl	ba604 <_ZNK6String6equalsERKS_>
   b4cbc:	1e05      	subs	r5, r0, #0
   b4cbe:	a80f      	add	r0, sp, #60	; 0x3c
   b4cc0:	bf18      	it	ne
   b4cc2:	2501      	movne	r5, #1
   b4cc4:	f005 fb88 	bl	ba3d8 <_ZN6StringD1Ev>
   b4cc8:	9a01      	ldr	r2, [sp, #4]
   b4cca:	2a00      	cmp	r2, #0
   b4ccc:	d1d8      	bne.n	b4c80 <_Z14onDataReceivedPKhjRKN8particle13BlePeerDeviceEPv+0x354>
   b4cce:	b115      	cbz	r5, b4cd6 <_Z14onDataReceivedPKhjRKN8particle13BlePeerDeviceEPv+0x3aa>
          railwayIndex = i;
   b4cd0:	4b72      	ldr	r3, [pc, #456]	; (b4e9c <_Z14onDataReceivedPKhjRKN8particle13BlePeerDeviceEPv+0x570>)
   b4cd2:	f8c3 b000 	str.w	fp, [r3]
      for(int i = 0; i < cities[cityIndex].railways.size(); i++){
   b4cd6:	f10b 0b01 	add.w	fp, fp, #1
   b4cda:	e7b7      	b.n	b4c4c <_Z14onDataReceivedPKhjRKN8particle13BlePeerDeviceEPv+0x320>
        if((cityIndex != 0 || nameBuffer != String(purpleLineCTA.name.c_str())) && String(cities[cityIndex].railways[i].name.c_str()) == nameBuffer){
   b4cdc:	2201      	movs	r2, #1
   b4cde:	e7db      	b.n	b4c98 <_Z14onDataReceivedPKhjRKN8particle13BlePeerDeviceEPv+0x36c>
      if(cityIndex == 1 && inputBuffer == "green1"){
   b4ce0:	2d01      	cmp	r5, #1
   b4ce2:	4d6e      	ldr	r5, [pc, #440]	; (b4e9c <_Z14onDataReceivedPKhjRKN8particle13BlePeerDeviceEPv+0x570>)
   b4ce4:	d107      	bne.n	b4cf6 <_Z14onDataReceivedPKhjRKN8particle13BlePeerDeviceEPv+0x3ca>
	unsigned char operator == (const char *cstr) const {return equals(cstr);}
   b4ce6:	4969      	ldr	r1, [pc, #420]	; (b4e8c <_Z14onDataReceivedPKhjRKN8particle13BlePeerDeviceEPv+0x560>)
   b4ce8:	a803      	add	r0, sp, #12
   b4cea:	f005 fc98 	bl	ba61e <_ZNK6String6equalsEPKc>
   b4cee:	b110      	cbz	r0, b4cf6 <_Z14onDataReceivedPKhjRKN8particle13BlePeerDeviceEPv+0x3ca>
        railwayIndex--;
   b4cf0:	682b      	ldr	r3, [r5, #0]
   b4cf2:	3b01      	subs	r3, #1
   b4cf4:	602b      	str	r3, [r5, #0]
      Serial.printlnf("railway index: %i", railwayIndex);
   b4cf6:	f006 f89b 	bl	bae30 <_Z16_fetch_usbserialv>
   b4cfa:	682a      	ldr	r2, [r5, #0]
   b4cfc:	4968      	ldr	r1, [pc, #416]	; (b4ea0 <_Z14onDataReceivedPKhjRKN8particle13BlePeerDeviceEPv+0x574>)
   b4cfe:	f7ff fb85 	bl	b440c <_ZN5Print8printlnfEPKcz>
      if(railwayIndex == -1){
   b4d02:	682b      	ldr	r3, [r5, #0]
   b4d04:	3301      	adds	r3, #1
   b4d06:	d076      	beq.n	b4df6 <_Z14onDataReceivedPKhjRKN8particle13BlePeerDeviceEPv+0x4ca>
   b4d08:	f8df 91c4 	ldr.w	r9, [pc, #452]	; b4ed0 <_Z14onDataReceivedPKhjRKN8particle13BlePeerDeviceEPv+0x5a4>
        if(cities[cityIndex].railways[railwayIndex].outputs[i].size() == 0 || (cityIndex == 0 && cities[cityIndex].railways[railwayIndex].name == purpleLineCTA.name)){
   b4d0c:	6839      	ldr	r1, [r7, #0]
   b4d0e:	f8d8 2000 	ldr.w	r2, [r8]
   b4d12:	682b      	ldr	r3, [r5, #0]
   b4d14:	2028      	movs	r0, #40	; 0x28
   b4d16:	4348      	muls	r0, r1
   b4d18:	ea4f 0b43 	mov.w	fp, r3, lsl #1
   b4d1c:	5810      	ldr	r0, [r2, r0]
   b4d1e:	226c      	movs	r2, #108	; 0x6c
   b4d20:	fb02 0003 	mla	r0, r2, r3, r0
   b4d24:	220c      	movs	r2, #12
   b4d26:	f8d0 c024 	ldr.w	ip, [r0, #36]	; 0x24
   b4d2a:	4362      	muls	r2, r4
   b4d2c:	eb0c 0e02 	add.w	lr, ip, r2
   b4d30:	f85c 2002 	ldr.w	r2, [ip, r2]
   b4d34:	f8de e004 	ldr.w	lr, [lr, #4]
   b4d38:	4596      	cmp	lr, r2
   b4d3a:	d007      	beq.n	b4d4c <_Z14onDataReceivedPKhjRKN8particle13BlePeerDeviceEPv+0x420>
   b4d3c:	2900      	cmp	r1, #0
   b4d3e:	d15f      	bne.n	b4e00 <_Z14onDataReceivedPKhjRKN8particle13BlePeerDeviceEPv+0x4d4>
   b4d40:	4958      	ldr	r1, [pc, #352]	; (b4ea4 <_Z14onDataReceivedPKhjRKN8particle13BlePeerDeviceEPv+0x578>)
   b4d42:	3030      	adds	r0, #48	; 0x30
   b4d44:	f7ff fde0 	bl	b4908 <_ZSteqIcEN9__gnu_cxx11__enable_ifIXsrSt9__is_charIT_E7__valueEbE6__typeERKNSt7__cxx1112basic_stringIS3_St11char_traitsIS3_ESaIS3_EEESE_>
   b4d48:	2800      	cmp	r0, #0
   b4d4a:	d059      	beq.n	b4e00 <_Z14onDataReceivedPKhjRKN8particle13BlePeerDeviceEPv+0x4d4>
          sequenceArr[2 * railwayIndex + i] = 0;
   b4d4c:	f8d9 2000 	ldr.w	r2, [r9]
   b4d50:	44a3      	add	fp, r4
   b4d52:	2100      	movs	r1, #0
   b4d54:	f842 102b 	str.w	r1, [r2, fp, lsl #2]
      for(int i = 0; i < 2; i++){
   b4d58:	2c01      	cmp	r4, #1
   b4d5a:	d14f      	bne.n	b4dfc <_Z14onDataReceivedPKhjRKN8particle13BlePeerDeviceEPv+0x4d0>
   b4d5c:	4c52      	ldr	r4, [pc, #328]	; (b4ea8 <_Z14onDataReceivedPKhjRKN8particle13BlePeerDeviceEPv+0x57c>)
      Wire.beginTransmission(addressArr[bleCount]);
   b4d5e:	f006 f9b5 	bl	bb0cc <_Z19__fetch_global_Wirev>
   b4d62:	6832      	ldr	r2, [r6, #0]
   b4d64:	6823      	ldr	r3, [r4, #0]
   b4d66:	f853 1022 	ldr.w	r1, [r3, r2, lsl #2]
   b4d6a:	f005 f949 	bl	ba000 <_ZN7TwoWire17beginTransmissionEi>
      Wire.write('4');
   b4d6e:	f006 f9ad 	bl	bb0cc <_Z19__fetch_global_Wirev>
   b4d72:	2134      	movs	r1, #52	; 0x34
   b4d74:	f7ff fa54 	bl	b4220 <_ZN7TwoWire5writeEi.isra.0>
      Wire.endTransmission();
   b4d78:	f006 f9a8 	bl	bb0cc <_Z19__fetch_global_Wirev>
   b4d7c:	f005 f947 	bl	ba00e <_ZN7TwoWire15endTransmissionEv>
      Wire.beginTransmission(addressArr[bleCount + 1]);
   b4d80:	f006 f9a4 	bl	bb0cc <_Z19__fetch_global_Wirev>
   b4d84:	6833      	ldr	r3, [r6, #0]
   b4d86:	6822      	ldr	r2, [r4, #0]
   b4d88:	3301      	adds	r3, #1
   b4d8a:	f852 1023 	ldr.w	r1, [r2, r3, lsl #2]
   b4d8e:	f005 f937 	bl	ba000 <_ZN7TwoWire17beginTransmissionEi>
      Wire.write('3');
   b4d92:	f006 f99b 	bl	bb0cc <_Z19__fetch_global_Wirev>
   b4d96:	2133      	movs	r1, #51	; 0x33
   b4d98:	f7ff fa42 	bl	b4220 <_ZN7TwoWire5writeEi.isra.0>
      Wire.endTransmission();
   b4d9c:	f006 f996 	bl	bb0cc <_Z19__fetch_global_Wirev>
   b4da0:	f005 f935 	bl	ba00e <_ZN7TwoWire15endTransmissionEv>
   b4da4:	683a      	ldr	r2, [r7, #0]
   b4da6:	f8d8 1000 	ldr.w	r1, [r8]
   b4daa:	2328      	movs	r3, #40	; 0x28
   b4dac:	435a      	muls	r2, r3
   b4dae:	188b      	adds	r3, r1, r2
      { return size_type(this->_M_impl._M_finish - this->_M_impl._M_start); }
   b4db0:	588a      	ldr	r2, [r1, r2]
   b4db2:	685b      	ldr	r3, [r3, #4]
   b4db4:	1a9b      	subs	r3, r3, r2
   b4db6:	109b      	asrs	r3, r3, #2
    if(bleCount == cities[cityIndex].railways.size() - 1){
   b4db8:	6832      	ldr	r2, [r6, #0]
   b4dba:	fb0a f303 	mul.w	r3, sl, r3
   b4dbe:	3b01      	subs	r3, #1
   b4dc0:	4293      	cmp	r3, r2
   b4dc2:	d114      	bne.n	b4dee <_Z14onDataReceivedPKhjRKN8particle13BlePeerDeviceEPv+0x4c2>
      Serial.println("BLE finished");
   b4dc4:	f006 f834 	bl	bae30 <_Z16_fetch_usbserialv>
   b4dc8:	4938      	ldr	r1, [pc, #224]	; (b4eac <_Z14onDataReceivedPKhjRKN8particle13BlePeerDeviceEPv+0x580>)
    virtual void setListenTimeout(uint16_t timeout);
    virtual uint16_t getListenTimeout();
    virtual bool listening();

    operator network_interface_t() const {
        return iface_;
   b4dca:	4c39      	ldr	r4, [pc, #228]	; (b4eb0 <_Z14onDataReceivedPKhjRKN8particle13BlePeerDeviceEPv+0x584>)
   b4dcc:	f005 faa5 	bl	ba31a <_ZN5Print7printlnEPKc>
      userInput = true;
   b4dd0:	4b38      	ldr	r3, [pc, #224]	; (b4eb4 <_Z14onDataReceivedPKhjRKN8particle13BlePeerDeviceEPv+0x588>)
        network_on(*this, 0, 0, NULL);
   b4dd2:	6860      	ldr	r0, [r4, #4]
   b4dd4:	2201      	movs	r2, #1
   b4dd6:	701a      	strb	r2, [r3, #0]
   b4dd8:	2300      	movs	r3, #0
   b4dda:	461a      	mov	r2, r3
   b4ddc:	4619      	mov	r1, r3
   b4dde:	f003 fe0d 	bl	b89fc <network_on>
        network_connect(*this, flags, 0, NULL);
   b4de2:	2300      	movs	r3, #0
   b4de4:	6860      	ldr	r0, [r4, #4]
   b4de6:	461a      	mov	r2, r3
   b4de8:	4619      	mov	r1, r3
   b4dea:	f003 fde7 	bl	b89bc <network_connect>
    bleCount++;
   b4dee:	6833      	ldr	r3, [r6, #0]
   b4df0:	3301      	adds	r3, #1
   b4df2:	6033      	str	r3, [r6, #0]
   b4df4:	e617      	b.n	b4a26 <_Z14onDataReceivedPKhjRKN8particle13BlePeerDeviceEPv+0xfa>
        txCharacteristic.setValue("incorrect railway color");
   b4df6:	4930      	ldr	r1, [pc, #192]	; (b4eb8 <_Z14onDataReceivedPKhjRKN8particle13BlePeerDeviceEPv+0x58c>)
   b4df8:	2200      	movs	r2, #0
   b4dfa:	e661      	b.n	b4ac0 <_Z14onDataReceivedPKhjRKN8particle13BlePeerDeviceEPv+0x194>
   b4dfc:	2401      	movs	r4, #1
   b4dfe:	e785      	b.n	b4d0c <_Z14onDataReceivedPKhjRKN8particle13BlePeerDeviceEPv+0x3e0>
          sequenceArr[2 * railwayIndex + i] = addressArr[bleCount];
   b4e00:	4b29      	ldr	r3, [pc, #164]	; (b4ea8 <_Z14onDataReceivedPKhjRKN8particle13BlePeerDeviceEPv+0x57c>)
	return *(this->_M_impl._M_start + __n);
   b4e02:	6831      	ldr	r1, [r6, #0]
   b4e04:	681a      	ldr	r2, [r3, #0]
   b4e06:	44a3      	add	fp, r4
   b4e08:	f852 1021 	ldr.w	r1, [r2, r1, lsl #2]
   b4e0c:	f8d9 2000 	ldr.w	r2, [r9]
   b4e10:	f842 102b 	str.w	r1, [r2, fp, lsl #2]
          if(cityIndex == 0){
   b4e14:	683a      	ldr	r2, [r7, #0]
   b4e16:	2a00      	cmp	r2, #0
   b4e18:	d19e      	bne.n	b4d58 <_Z14onDataReceivedPKhjRKN8particle13BlePeerDeviceEPv+0x42c>
            if(inputBuffer == String(brownLineCTA.name.c_str())){
   b4e1a:	4b28      	ldr	r3, [pc, #160]	; (b4ebc <_Z14onDataReceivedPKhjRKN8particle13BlePeerDeviceEPv+0x590>)
   b4e1c:	a80f      	add	r0, sp, #60	; 0x3c
   b4e1e:	6b19      	ldr	r1, [r3, #48]	; 0x30
   b4e20:	f005 fb25 	bl	ba46e <_ZN6StringC1EPK19__FlashStringHelper>
	unsigned char operator == (const String &rhs) const {return equals(rhs);}
   b4e24:	a90f      	add	r1, sp, #60	; 0x3c
   b4e26:	a803      	add	r0, sp, #12
   b4e28:	f005 fbec 	bl	ba604 <_ZNK6String6equalsERKS_>
   b4e2c:	4683      	mov	fp, r0
   b4e2e:	a80f      	add	r0, sp, #60	; 0x3c
   b4e30:	f005 fad2 	bl	ba3d8 <_ZN6StringD1Ev>
   b4e34:	f1bb 0f00 	cmp.w	fp, #0
   b4e38:	d009      	beq.n	b4e4e <_Z14onDataReceivedPKhjRKN8particle13BlePeerDeviceEPv+0x522>
            brownLineCTAAdr = sequenceArr[2 * railwayIndex + i];
   b4e3a:	682a      	ldr	r2, [r5, #0]
   b4e3c:	f8d9 1000 	ldr.w	r1, [r9]
   b4e40:	eb04 0242 	add.w	r2, r4, r2, lsl #1
   b4e44:	f851 1022 	ldr.w	r1, [r1, r2, lsl #2]
   b4e48:	4a1d      	ldr	r2, [pc, #116]	; (b4ec0 <_Z14onDataReceivedPKhjRKN8particle13BlePeerDeviceEPv+0x594>)
              greenLineCTAAdr[0] = sequenceArr[2 * railwayIndex];
   b4e4a:	6011      	str	r1, [r2, #0]
   b4e4c:	e784      	b.n	b4d58 <_Z14onDataReceivedPKhjRKN8particle13BlePeerDeviceEPv+0x42c>
	unsigned char operator == (const char *cstr) const {return equals(cstr);}
   b4e4e:	490f      	ldr	r1, [pc, #60]	; (b4e8c <_Z14onDataReceivedPKhjRKN8particle13BlePeerDeviceEPv+0x560>)
   b4e50:	a803      	add	r0, sp, #12
   b4e52:	f005 fbe4 	bl	ba61e <_ZNK6String6equalsEPKc>
            }else if(inputBuffer == "green1"){
   b4e56:	b130      	cbz	r0, b4e66 <_Z14onDataReceivedPKhjRKN8particle13BlePeerDeviceEPv+0x53a>
              greenLineCTAAdr[0] = sequenceArr[2 * railwayIndex];
   b4e58:	f8d9 2000 	ldr.w	r2, [r9]
   b4e5c:	6829      	ldr	r1, [r5, #0]
   b4e5e:	f852 1031 	ldr.w	r1, [r2, r1, lsl #3]
   b4e62:	4a18      	ldr	r2, [pc, #96]	; (b4ec4 <_Z14onDataReceivedPKhjRKN8particle13BlePeerDeviceEPv+0x598>)
   b4e64:	e7f1      	b.n	b4e4a <_Z14onDataReceivedPKhjRKN8particle13BlePeerDeviceEPv+0x51e>
   b4e66:	490c      	ldr	r1, [pc, #48]	; (b4e98 <_Z14onDataReceivedPKhjRKN8particle13BlePeerDeviceEPv+0x56c>)
   b4e68:	a803      	add	r0, sp, #12
   b4e6a:	f005 fbd8 	bl	ba61e <_ZNK6String6equalsEPKc>
            }else if(inputBuffer == "green2"){
   b4e6e:	2800      	cmp	r0, #0
   b4e70:	f43f af72 	beq.w	b4d58 <_Z14onDataReceivedPKhjRKN8particle13BlePeerDeviceEPv+0x42c>
              greenLineCTAAdr[1] = sequenceArr[2 * railwayIndex + 1];
   b4e74:	682a      	ldr	r2, [r5, #0]
   b4e76:	f8d9 1000 	ldr.w	r1, [r9]
   b4e7a:	0052      	lsls	r2, r2, #1
   b4e7c:	3201      	adds	r2, #1
   b4e7e:	f851 1022 	ldr.w	r1, [r1, r2, lsl #2]
   b4e82:	4a10      	ldr	r2, [pc, #64]	; (b4ec4 <_Z14onDataReceivedPKhjRKN8particle13BlePeerDeviceEPv+0x598>)
   b4e84:	6051      	str	r1, [r2, #4]
   b4e86:	e767      	b.n	b4d58 <_Z14onDataReceivedPKhjRKN8particle13BlePeerDeviceEPv+0x42c>
   b4e88:	20035304 	.word	0x20035304
   b4e8c:	000be434 	.word	0x000be434
   b4e90:	000be43b 	.word	0x000be43b
   b4e94:	2003e4f0 	.word	0x2003e4f0
   b4e98:	000be441 	.word	0x000be441
   b4e9c:	200350bc 	.word	0x200350bc
   b4ea0:	000be448 	.word	0x000be448
   b4ea4:	2003e520 	.word	0x2003e520
   b4ea8:	200352f8 	.word	0x200352f8
   b4eac:	000be472 	.word	0x000be472
   b4eb0:	2003e718 	.word	0x2003e718
   b4eb4:	2003e6b4 	.word	0x2003e6b4
   b4eb8:	000be45a 	.word	0x000be45a
   b4ebc:	200353e0 	.word	0x200353e0
   b4ec0:	2003544c 	.word	0x2003544c
   b4ec4:	200355b0 	.word	0x200355b0
   b4ec8:	20035450 	.word	0x20035450
   b4ecc:	684bda13 	.word	0x684bda13
   b4ed0:	2003e69c 	.word	0x2003e69c
  }else if(inputBuffer.indexOf("reset") == 0){
   b4ed4:	491f      	ldr	r1, [pc, #124]	; (b4f54 <_Z14onDataReceivedPKhjRKN8particle13BlePeerDeviceEPv+0x628>)
   b4ed6:	a80f      	add	r0, sp, #60	; 0x3c
   b4ed8:	f005 fac9 	bl	ba46e <_ZN6StringC1EPK19__FlashStringHelper>
   b4edc:	a90f      	add	r1, sp, #60	; 0x3c
   b4ede:	a803      	add	r0, sp, #12
   b4ee0:	f005 fbbe 	bl	ba660 <_ZNK6String7indexOfERKS_>
   b4ee4:	4604      	mov	r4, r0
   b4ee6:	a80f      	add	r0, sp, #60	; 0x3c
   b4ee8:	f005 fa76 	bl	ba3d8 <_ZN6StringD1Ev>
   b4eec:	2c00      	cmp	r4, #0
   b4eee:	f47f ad9a 	bne.w	b4a26 <_Z14onDataReceivedPKhjRKN8particle13BlePeerDeviceEPv+0xfa>
      { return size_type(this->_M_impl._M_finish - this->_M_impl._M_start); }
   b4ef2:	4d19      	ldr	r5, [pc, #100]	; (b4f58 <_Z14onDataReceivedPKhjRKN8particle13BlePeerDeviceEPv+0x62c>)
      Serial.printlnf("turning off: %i", i);
   b4ef4:	4e19      	ldr	r6, [pc, #100]	; (b4f5c <_Z14onDataReceivedPKhjRKN8particle13BlePeerDeviceEPv+0x630>)
   b4ef6:	e9d5 2300 	ldrd	r2, r3, [r5]
   b4efa:	1a9b      	subs	r3, r3, r2
    for(int i = 0; i < addressArr.size(); i++){
   b4efc:	ebb4 0fa3 	cmp.w	r4, r3, asr #2
   b4f00:	d217      	bcs.n	b4f32 <_Z14onDataReceivedPKhjRKN8particle13BlePeerDeviceEPv+0x606>
      Serial.printlnf("turning off: %i", i);
   b4f02:	f005 ff95 	bl	bae30 <_Z16_fetch_usbserialv>
   b4f06:	4622      	mov	r2, r4
   b4f08:	4631      	mov	r1, r6
   b4f0a:	f7ff fa7f 	bl	b440c <_ZN5Print8printlnfEPKcz>
      Wire.beginTransmission(addressArr[i]);
   b4f0e:	f006 f8dd 	bl	bb0cc <_Z19__fetch_global_Wirev>
   b4f12:	682b      	ldr	r3, [r5, #0]
   b4f14:	f853 1024 	ldr.w	r1, [r3, r4, lsl #2]
   b4f18:	f005 f872 	bl	ba000 <_ZN7TwoWire17beginTransmissionEi>
      Wire.write('4');
   b4f1c:	f006 f8d6 	bl	bb0cc <_Z19__fetch_global_Wirev>
   b4f20:	2134      	movs	r1, #52	; 0x34
   b4f22:	f7ff f97d 	bl	b4220 <_ZN7TwoWire5writeEi.isra.0>
      Wire.endTransmission();
   b4f26:	f006 f8d1 	bl	bb0cc <_Z19__fetch_global_Wirev>
   b4f2a:	f005 f870 	bl	ba00e <_ZN7TwoWire15endTransmissionEv>
    for(int i = 0; i < addressArr.size(); i++){
   b4f2e:	3401      	adds	r4, #1
   b4f30:	e7e1      	b.n	b4ef6 <_Z14onDataReceivedPKhjRKN8particle13BlePeerDeviceEPv+0x5ca>
    bleCount = 0;
   b4f32:	4a0b      	ldr	r2, [pc, #44]	; (b4f60 <_Z14onDataReceivedPKhjRKN8particle13BlePeerDeviceEPv+0x634>)
    cityIndex = -1;
   b4f34:	490b      	ldr	r1, [pc, #44]	; (b4f64 <_Z14onDataReceivedPKhjRKN8particle13BlePeerDeviceEPv+0x638>)
    bleCount = 0;
   b4f36:	2300      	movs	r3, #0
   b4f38:	6013      	str	r3, [r2, #0]
    cityIndex = -1;
   b4f3a:	f04f 32ff 	mov.w	r2, #4294967295	; 0xffffffff
   b4f3e:	600a      	str	r2, [r1, #0]
    railwayIndex = -1;
   b4f40:	4909      	ldr	r1, [pc, #36]	; (b4f68 <_Z14onDataReceivedPKhjRKN8particle13BlePeerDeviceEPv+0x63c>)
   b4f42:	600a      	str	r2, [r1, #0]
    userInput = false;
   b4f44:	4a09      	ldr	r2, [pc, #36]	; (b4f6c <_Z14onDataReceivedPKhjRKN8particle13BlePeerDeviceEPv+0x640>)
   b4f46:	7013      	strb	r3, [r2, #0]
    Serial.println("reset done");
   b4f48:	f005 ff72 	bl	bae30 <_Z16_fetch_usbserialv>
   b4f4c:	4908      	ldr	r1, [pc, #32]	; (b4f70 <_Z14onDataReceivedPKhjRKN8particle13BlePeerDeviceEPv+0x644>)
   b4f4e:	f005 f9e4 	bl	ba31a <_ZN5Print7printlnEPKc>
   b4f52:	e568      	b.n	b4a26 <_Z14onDataReceivedPKhjRKN8particle13BlePeerDeviceEPv+0xfa>
   b4f54:	000be47f 	.word	0x000be47f
   b4f58:	200352f8 	.word	0x200352f8
   b4f5c:	000be485 	.word	0x000be485
   b4f60:	20035304 	.word	0x20035304
   b4f64:	200350a8 	.word	0x200350a8
   b4f68:	200350bc 	.word	0x200350bc
   b4f6c:	2003e6b4 	.word	0x2003e6b4
   b4f70:	000be495 	.word	0x000be495

000b4f74 <_ZNSt12_Vector_baseIfSaIfEE17_M_create_storageEj>:
	return __n != 0 ? _Tr::allocate(_M_impl, __n) : pointer();
   b4f74:	2900      	cmp	r1, #0
      _M_create_storage(size_t __n)
   b4f76:	b538      	push	{r3, r4, r5, lr}
   b4f78:	4604      	mov	r4, r0
      _M_allocate(size_t __n)
   b4f7a:	ea4f 0581 	mov.w	r5, r1, lsl #2
	return __n != 0 ? _Tr::allocate(_M_impl, __n) : pointer();
   b4f7e:	d00c      	beq.n	b4f9a <_ZNSt12_Vector_baseIfSaIfEE17_M_create_storageEj+0x26>
	if (__n > this->_M_max_size())
   b4f80:	f1b1 5f00 	cmp.w	r1, #536870912	; 0x20000000
   b4f84:	d301      	bcc.n	b4f8a <_ZNSt12_Vector_baseIfSaIfEE17_M_create_storageEj+0x16>
	  std::__throw_bad_alloc();
   b4f86:	f006 f907 	bl	bb198 <_ZSt17__throw_bad_allocv>
	return static_cast<_Tp*>(::operator new(__n * sizeof(_Tp)));
   b4f8a:	4628      	mov	r0, r5
   b4f8c:	f7ff f883 	bl	b4096 <_Znwj>
	this->_M_impl._M_finish = this->_M_impl._M_start;
   b4f90:	e9c4 0000 	strd	r0, r0, [r4]
	this->_M_impl._M_end_of_storage = this->_M_impl._M_start + __n;
   b4f94:	4428      	add	r0, r5
   b4f96:	60a0      	str	r0, [r4, #8]
      }
   b4f98:	bd38      	pop	{r3, r4, r5, pc}
	return __n != 0 ? _Tr::allocate(_M_impl, __n) : pointer();
   b4f9a:	4608      	mov	r0, r1
   b4f9c:	e7f8      	b.n	b4f90 <_ZNSt12_Vector_baseIfSaIfEE17_M_create_storageEj+0x1c>

000b4f9e <_ZNSt12_Destroy_auxILb0EE9__destroyIPSt6vectorIiSaIiEEEEvT_S6_>:
	__destroy(_ForwardIterator __first, _ForwardIterator __last)
   b4f9e:	b538      	push	{r3, r4, r5, lr}
   b4fa0:	4604      	mov	r4, r0
   b4fa2:	460d      	mov	r5, r1
	  for (; __first != __last; ++__first)
   b4fa4:	42ac      	cmp	r4, r5
   b4fa6:	d004      	beq.n	b4fb2 <_ZNSt12_Destroy_auxILb0EE9__destroyIPSt6vectorIiSaIiEEEEvT_S6_+0x14>
      }
   b4fa8:	4620      	mov	r0, r4
   b4faa:	f7ff fbcb 	bl	b4744 <_ZNSt12_Vector_baseIiSaIiEED1Ev>
   b4fae:	340c      	adds	r4, #12
   b4fb0:	e7f8      	b.n	b4fa4 <_ZNSt12_Destroy_auxILb0EE9__destroyIPSt6vectorIiSaIiEEEEvT_S6_+0x6>
	    std::_Destroy(std::__addressof(*__first));
	}
   b4fb2:	bd38      	pop	{r3, r4, r5, pc}

000b4fb4 <_ZN7RailwayD1Ev>:
#include "Checkpoint.cpp"
#include <string>

//container for all data for each rail line
class Railway{
   b4fb4:	b510      	push	{r4, lr}
   b4fb6:	4604      	mov	r4, r0
   b4fb8:	3048      	adds	r0, #72	; 0x48
   b4fba:	f7ff fbe4 	bl	b4786 <_ZNSt6vectorINSt7__cxx1112basic_stringIcSt11char_traitsIcESaIcEEESaIS5_EED1Ev>
      { _M_dispose(); }
   b4fbe:	f104 0030 	add.w	r0, r4, #48	; 0x30
   b4fc2:	f006 f921 	bl	bb208 <_ZNSt7__cxx1112basic_stringIcSt11char_traitsIcESaIcEE10_M_disposeEv>
#if __cplusplus > 201703L && defined __cpp_lib_is_constant_evaluated
      if (std::is_constant_evaluated())
	return _Destroy_aux<false>::__destroy(__first, __last);
#endif
      std::_Destroy_aux<__has_trivial_destructor(_Value_type)>::
	__destroy(__first, __last);
   b4fc6:	e9d4 0109 	ldrd	r0, r1, [r4, #36]	; 0x24
   b4fca:	f7ff ffe8 	bl	b4f9e <_ZNSt12_Destroy_auxILb0EE9__destroyIPSt6vectorIiSaIiEEEEvT_S6_>
	_M_deallocate(_M_impl._M_start,
   b4fce:	6a60      	ldr	r0, [r4, #36]	; 0x24
	if (__p)
   b4fd0:	b118      	cbz	r0, b4fda <_ZN7RailwayD1Ev+0x26>
		      _M_impl._M_end_of_storage - _M_impl._M_start);
   b4fd2:	6ae1      	ldr	r1, [r4, #44]	; 0x2c
	::operator delete(__p
   b4fd4:	1a09      	subs	r1, r1, r0
   b4fd6:	f7ff f864 	bl	b40a2 <_ZdlPvj>
      }
   b4fda:	f104 0018 	add.w	r0, r4, #24
   b4fde:	f7ff fbb1 	bl	b4744 <_ZNSt12_Vector_baseIiSaIiEED1Ev>
   b4fe2:	f104 000c 	add.w	r0, r4, #12
   b4fe6:	f7ff fba3 	bl	b4730 <_ZNSt12_Vector_baseIfSaIfEED1Ev>
   b4fea:	4620      	mov	r0, r4
   b4fec:	f7ff fb96 	bl	b471c <_ZNSt12_Vector_baseI10CheckpointSaIS0_EED1Ev>
   b4ff0:	4620      	mov	r0, r4
   b4ff2:	bd10      	pop	{r4, pc}

000b4ff4 <_ZNSt12_Destroy_auxILb0EE9__destroyIP7RailwayEEvT_S4_>:
	__destroy(_ForwardIterator __first, _ForwardIterator __last)
   b4ff4:	b538      	push	{r3, r4, r5, lr}
   b4ff6:	4604      	mov	r4, r0
   b4ff8:	460d      	mov	r5, r1
	  for (; __first != __last; ++__first)
   b4ffa:	42ac      	cmp	r4, r5
   b4ffc:	d004      	beq.n	b5008 <_ZNSt12_Destroy_auxILb0EE9__destroyIP7RailwayEEvT_S4_+0x14>
      __pointer->~_Tp();
   b4ffe:	4620      	mov	r0, r4
   b5000:	f7ff ffd8 	bl	b4fb4 <_ZN7RailwayD1Ev>
	  for (; __first != __last; ++__first)
   b5004:	346c      	adds	r4, #108	; 0x6c
   b5006:	e7f8      	b.n	b4ffa <_ZNSt12_Destroy_auxILb0EE9__destroyIP7RailwayEEvT_S4_+0x6>
	}
   b5008:	bd38      	pop	{r3, r4, r5, pc}

000b500a <_ZNSt6vectorI7RailwaySaIS0_EED1Ev>:
      ~vector() _GLIBCXX_NOEXCEPT
   b500a:	b510      	push	{r4, lr}
   b500c:	4604      	mov	r4, r0
	__destroy(__first, __last);
   b500e:	e9d0 0100 	ldrd	r0, r1, [r0]
   b5012:	f7ff ffef 	bl	b4ff4 <_ZNSt12_Destroy_auxILb0EE9__destroyIP7RailwayEEvT_S4_>
	_M_deallocate(_M_impl._M_start,
   b5016:	6820      	ldr	r0, [r4, #0]
	if (__p)
   b5018:	b118      	cbz	r0, b5022 <_ZNSt6vectorI7RailwaySaIS0_EED1Ev+0x18>
		      _M_impl._M_end_of_storage - _M_impl._M_start);
   b501a:	68a1      	ldr	r1, [r4, #8]
   b501c:	1a09      	subs	r1, r1, r0
   b501e:	f7ff f840 	bl	b40a2 <_ZdlPvj>
      }
   b5022:	4620      	mov	r0, r4
   b5024:	bd10      	pop	{r4, pc}

000b5026 <_ZNSt12_Destroy_auxILb0EE9__destroyIP4CityEEvT_S4_>:
	__destroy(_ForwardIterator __first, _ForwardIterator __last)
   b5026:	b538      	push	{r3, r4, r5, lr}
   b5028:	4604      	mov	r4, r0
   b502a:	460d      	mov	r5, r1
	  for (; __first != __last; ++__first)
   b502c:	42ac      	cmp	r4, r5
   b502e:	d008      	beq.n	b5042 <_ZNSt12_Destroy_auxILb0EE9__destroyIP4CityEEvT_S4_+0x1c>
   b5030:	f104 000c 	add.w	r0, r4, #12
   b5034:	f006 f8e8 	bl	bb208 <_ZNSt7__cxx1112basic_stringIcSt11char_traitsIcESaIcEE10_M_disposeEv>
#include "Railway.cpp"

class City{
   b5038:	4620      	mov	r0, r4
   b503a:	f7ff ffe6 	bl	b500a <_ZNSt6vectorI7RailwaySaIS0_EED1Ev>
   b503e:	3428      	adds	r4, #40	; 0x28
   b5040:	e7f4      	b.n	b502c <_ZNSt12_Destroy_auxILb0EE9__destroyIP4CityEEvT_S4_+0x6>
	}
   b5042:	bd38      	pop	{r3, r4, r5, pc}

000b5044 <_ZNSt11__copy_moveILb0ELb1ESt26random_access_iterator_tagE8__copy_mIiEEPT_PKS3_S6_S4_>:
	  if (_Num)
   b5044:	4281      	cmp	r1, r0
	__copy_m(const _Tp* __first, const _Tp* __last, _Tp* __result)
   b5046:	b510      	push	{r4, lr}
   b5048:	4613      	mov	r3, r2
	  const ptrdiff_t _Num = __last - __first;
   b504a:	eba1 0400 	sub.w	r4, r1, r0
	  if (_Num)
   b504e:	d005      	beq.n	b505c <_ZNSt11__copy_moveILb0ELb1ESt26random_access_iterator_tagE8__copy_mIiEEPT_PKS3_S6_S4_+0x18>
	    __builtin_memmove(__result, __first, sizeof(_Tp) * _Num);
   b5050:	4601      	mov	r1, r0
   b5052:	4622      	mov	r2, r4
   b5054:	4618      	mov	r0, r3
   b5056:	f007 f895 	bl	bc184 <memmove>
   b505a:	4603      	mov	r3, r0
	}
   b505c:	1918      	adds	r0, r3, r4
   b505e:	bd10      	pop	{r4, pc}

000b5060 <_ZNSt6vectorIiSaIiEEC1ERKS1_>:
      vector(const vector& __x)
   b5060:	b570      	push	{r4, r5, r6, lr}
      { return size_type(this->_M_impl._M_finish - this->_M_impl._M_start); }
   b5062:	e9d1 3600 	ldrd	r3, r6, [r1]
   b5066:	1af6      	subs	r6, r6, r3
	: _M_start(), _M_finish(), _M_end_of_storage()
   b5068:	2300      	movs	r3, #0
      vector(const vector& __x)
   b506a:	4604      	mov	r4, r0
	: _M_start(), _M_finish(), _M_end_of_storage()
   b506c:	e9c0 3300 	strd	r3, r3, [r0]
   b5070:	6083      	str	r3, [r0, #8]
	this->_M_impl._M_start = this->_M_allocate(__n);
   b5072:	10b0      	asrs	r0, r6, #2
      vector(const vector& __x)
   b5074:	460d      	mov	r5, r1
	this->_M_impl._M_start = this->_M_allocate(__n);
   b5076:	f7ff f893 	bl	b41a0 <_ZNSt12_Vector_baseIiSaIiEE11_M_allocateEj.isra.0>
	this->_M_impl._M_finish = this->_M_impl._M_start;
   b507a:	e9c4 0000 	strd	r0, r0, [r4]
	this->_M_impl._M_end_of_storage = this->_M_impl._M_start + __n;
   b507e:	4406      	add	r6, r0
   b5080:	60a6      	str	r6, [r4, #8]
	this->_M_impl._M_start = this->_M_allocate(__n);
   b5082:	4602      	mov	r2, r0
			      _Category>::__copy_m(__first, __last, __result);
   b5084:	e9d5 0100 	ldrd	r0, r1, [r5]
   b5088:	f7ff ffdc 	bl	b5044 <_ZNSt11__copy_moveILb0ELb1ESt26random_access_iterator_tagE8__copy_mIiEEPT_PKS3_S6_S4_>
	this->_M_impl._M_finish =
   b508c:	6060      	str	r0, [r4, #4]
      }
   b508e:	4620      	mov	r0, r4
   b5090:	bd70      	pop	{r4, r5, r6, pc}
	...

000b5094 <_ZNSt6vectorIiSaIiEEC2ESt16initializer_listIiERKS0_.constprop.0.isra.0>:
      vector(initializer_list<value_type> __l,
   b5094:	b57f      	push	{r0, r1, r2, r3, r4, r5, r6, lr}
   b5096:	ab04      	add	r3, sp, #16
   b5098:	e903 0006 	stmdb	r3, {r1, r2}
	: _M_start(), _M_finish(), _M_end_of_storage()
   b509c:	2300      	movs	r3, #0
   b509e:	e9c0 3300 	strd	r3, r3, [r0]
   b50a2:	6083      	str	r3, [r0, #8]
      vector(initializer_list<value_type> __l,
   b50a4:	4604      	mov	r4, r0
   b50a6:	4613      	mov	r3, r2
   b50a8:	460e      	mov	r6, r1
   b50aa:	0095      	lsls	r5, r2, #2
   b50ac:	eb01 0182 	add.w	r1, r1, r2, lsl #2
   b50b0:	f342 001d 	sbfx	r0, r2, #0, #30
	if (__n > _S_max_size(_Tp_alloc_type(__a)))
   b50b4:	4a0a      	ldr	r2, [pc, #40]	; (b50e0 <_ZNSt6vectorIiSaIiEEC2ESt16initializer_listIiERKS0_.constprop.0.isra.0+0x4c>)
   b50b6:	ebb2 0f83 	cmp.w	r2, r3, lsl #2
   b50ba:	d202      	bcs.n	b50c2 <_ZNSt6vectorIiSaIiEEC2ESt16initializer_listIiERKS0_.constprop.0.isra.0+0x2e>
	  __throw_length_error(
   b50bc:	4809      	ldr	r0, [pc, #36]	; (b50e4 <_ZNSt6vectorIiSaIiEEC2ESt16initializer_listIiERKS0_.constprop.0.isra.0+0x50>)
   b50be:	f006 f871 	bl	bb1a4 <_ZSt20__throw_length_errorPKc>
   b50c2:	9101      	str	r1, [sp, #4]
	    = this->_M_allocate(_S_check_init_len(__n, _M_get_Tp_allocator()));
   b50c4:	f7ff f86c 	bl	b41a0 <_ZNSt12_Vector_baseIiSaIiEE11_M_allocateEj.isra.0>
	  this->_M_impl._M_end_of_storage = this->_M_impl._M_start + __n;
   b50c8:	4405      	add	r5, r0
	    = this->_M_allocate(_S_check_init_len(__n, _M_get_Tp_allocator()));
   b50ca:	4602      	mov	r2, r0
   b50cc:	6020      	str	r0, [r4, #0]
   b50ce:	9901      	ldr	r1, [sp, #4]
	  this->_M_impl._M_end_of_storage = this->_M_impl._M_start + __n;
   b50d0:	60a5      	str	r5, [r4, #8]
   b50d2:	4630      	mov	r0, r6
   b50d4:	f7ff ffb6 	bl	b5044 <_ZNSt11__copy_moveILb0ELb1ESt26random_access_iterator_tagE8__copy_mIiEEPT_PKS3_S6_S4_>
	  this->_M_impl._M_finish =
   b50d8:	6060      	str	r0, [r4, #4]
      }
   b50da:	b004      	add	sp, #16
   b50dc:	bd70      	pop	{r4, r5, r6, pc}
   b50de:	bf00      	nop
   b50e0:	7ffffffc 	.word	0x7ffffffc
   b50e4:	000be393 	.word	0x000be393

000b50e8 <_ZNSt6vectorIiSaIiEEaSERKS1_.isra.0>:
      if (&__x != this)
   b50e8:	4281      	cmp	r1, r0
    vector<_Tp, _Alloc>::
   b50ea:	b5f7      	push	{r0, r1, r2, r4, r5, r6, r7, lr}
   b50ec:	4604      	mov	r4, r0
   b50ee:	460d      	mov	r5, r1
      if (&__x != this)
   b50f0:	d01d      	beq.n	b512e <_ZNSt6vectorIiSaIiEEaSERKS1_.isra.0+0x46>
      { return size_type(this->_M_impl._M_finish - this->_M_impl._M_start); }
   b50f2:	e9d1 7100 	ldrd	r7, r1, [r1]
			 - this->_M_impl._M_start); }
   b50f6:	6802      	ldr	r2, [r0, #0]
   b50f8:	6883      	ldr	r3, [r0, #8]
      { return size_type(this->_M_impl._M_finish - this->_M_impl._M_start); }
   b50fa:	1bce      	subs	r6, r1, r7
			 - this->_M_impl._M_start); }
   b50fc:	1a9b      	subs	r3, r3, r2
	  if (__xlen > capacity())
   b50fe:	429e      	cmp	r6, r3
   b5100:	d917      	bls.n	b5132 <_ZNSt6vectorIiSaIiEEaSERKS1_.isra.0+0x4a>
	  pointer __result = this->_M_allocate(__n);
   b5102:	10b0      	asrs	r0, r6, #2
   b5104:	9101      	str	r1, [sp, #4]
   b5106:	f7ff f84b 	bl	b41a0 <_ZNSt12_Vector_baseIiSaIiEE11_M_allocateEj.isra.0>
   b510a:	9901      	ldr	r1, [sp, #4]
   b510c:	4602      	mov	r2, r0
   b510e:	4605      	mov	r5, r0
   b5110:	4638      	mov	r0, r7
   b5112:	f7ff ff97 	bl	b5044 <_ZNSt11__copy_moveILb0ELb1ESt26random_access_iterator_tagE8__copy_mIiEEPT_PKS3_S6_S4_>
	      std::_Destroy(this->_M_impl._M_start, this->_M_impl._M_finish,
   b5116:	6820      	ldr	r0, [r4, #0]
	if (__p)
   b5118:	b118      	cbz	r0, b5122 <_ZNSt6vectorIiSaIiEEaSERKS1_.isra.0+0x3a>
			    - this->_M_impl._M_start);
   b511a:	68a1      	ldr	r1, [r4, #8]
   b511c:	1a09      	subs	r1, r1, r0
   b511e:	f7fe ffc0 	bl	b40a2 <_ZdlPvj>
	      this->_M_impl._M_start = __tmp;
   b5122:	6025      	str	r5, [r4, #0]
	      this->_M_impl._M_end_of_storage = this->_M_impl._M_start + __xlen;
   b5124:	4435      	add	r5, r6
   b5126:	60a5      	str	r5, [r4, #8]
	  this->_M_impl._M_finish = this->_M_impl._M_start + __xlen;
   b5128:	6823      	ldr	r3, [r4, #0]
   b512a:	4433      	add	r3, r6
   b512c:	6063      	str	r3, [r4, #4]
    }
   b512e:	b003      	add	sp, #12
   b5130:	bdf0      	pop	{r4, r5, r6, r7, pc}
      { return size_type(this->_M_impl._M_finish - this->_M_impl._M_start); }
   b5132:	6843      	ldr	r3, [r0, #4]
   b5134:	1a9b      	subs	r3, r3, r2
	  else if (size() >= __xlen)
   b5136:	429e      	cmp	r6, r3
   b5138:	d803      	bhi.n	b5142 <_ZNSt6vectorIiSaIiEEaSERKS1_.isra.0+0x5a>
   b513a:	4638      	mov	r0, r7
   b513c:	f7ff ff82 	bl	b5044 <_ZNSt11__copy_moveILb0ELb1ESt26random_access_iterator_tagE8__copy_mIiEEPT_PKS3_S6_S4_>

  template<typename _InputIterator, typename _ForwardIterator, typename _Tp>
    inline _ForwardIterator
    __uninitialized_copy_a(_InputIterator __first, _InputIterator __last,
			   _ForwardIterator __result, allocator<_Tp>&)
    { return std::uninitialized_copy(__first, __last, __result); }
   b5140:	e7f2      	b.n	b5128 <_ZNSt6vectorIiSaIiEEaSERKS1_.isra.0+0x40>
   b5142:	18f9      	adds	r1, r7, r3
   b5144:	4638      	mov	r0, r7
   b5146:	f7ff ff7d 	bl	b5044 <_ZNSt11__copy_moveILb0ELb1ESt26random_access_iterator_tagE8__copy_mIiEEPT_PKS3_S6_S4_>
   b514a:	e9d4 0200 	ldrd	r0, r2, [r4]
   b514e:	e9d5 3100 	ldrd	r3, r1, [r5]
   b5152:	1a10      	subs	r0, r2, r0
   b5154:	4418      	add	r0, r3
   b5156:	e7f1      	b.n	b513c <_ZNSt6vectorIiSaIiEEaSERKS1_.isra.0+0x54>

000b5158 <_ZNSt11__copy_moveILb0ELb0ESt26random_access_iterator_tagE8__copy_mIPKSt6vectorIiSaIiEEPS5_EET0_T_SA_S9_>:
	__copy_m(_II __first, _II __last, _OI __result)
   b5158:	e92d 41f0 	stmdb	sp!, {r4, r5, r6, r7, r8, lr}
	  for(_Distance __n = __last - __first; __n > 0; --__n)
   b515c:	1a0c      	subs	r4, r1, r0
	__copy_m(_II __first, _II __last, _OI __result)
   b515e:	4605      	mov	r5, r0
	  for(_Distance __n = __last - __first; __n > 0; --__n)
   b5160:	480b      	ldr	r0, [pc, #44]	; (b5190 <_ZNSt11__copy_moveILb0ELb0ESt26random_access_iterator_tagE8__copy_mIPKSt6vectorIiSaIiEEPS5_EET0_T_SA_S9_+0x38>)
   b5162:	10a4      	asrs	r4, r4, #2
   b5164:	4344      	muls	r4, r0
	__copy_m(_II __first, _II __last, _OI __result)
   b5166:	4616      	mov	r6, r2
	  for(_Distance __n = __last - __first; __n > 0; --__n)
   b5168:	4627      	mov	r7, r4
   b516a:	4690      	mov	r8, r2
   b516c:	2f00      	cmp	r7, #0
   b516e:	dd08      	ble.n	b5182 <_ZNSt11__copy_moveILb0ELb0ESt26random_access_iterator_tagE8__copy_mIPKSt6vectorIiSaIiEEPS5_EET0_T_SA_S9_+0x2a>
	      *__result = *__first;
   b5170:	4629      	mov	r1, r5
   b5172:	4640      	mov	r0, r8
   b5174:	f7ff ffb8 	bl	b50e8 <_ZNSt6vectorIiSaIiEEaSERKS1_.isra.0>
	      ++__first;
   b5178:	350c      	adds	r5, #12
	      ++__result;
   b517a:	f108 080c 	add.w	r8, r8, #12
	  for(_Distance __n = __last - __first; __n > 0; --__n)
   b517e:	3f01      	subs	r7, #1
   b5180:	e7f4      	b.n	b516c <_ZNSt11__copy_moveILb0ELb0ESt26random_access_iterator_tagE8__copy_mIPKSt6vectorIiSaIiEEPS5_EET0_T_SA_S9_+0x14>
	  return __result;
   b5182:	ea24 74e4 	bic.w	r4, r4, r4, asr #31
	}
   b5186:	200c      	movs	r0, #12
   b5188:	fb00 6004 	mla	r0, r0, r4, r6
   b518c:	e8bd 81f0 	ldmia.w	sp!, {r4, r5, r6, r7, r8, pc}
   b5190:	aaaaaaab 	.word	0xaaaaaaab

000b5194 <_ZN7RailwayC1ESt6vectorI10CheckpointSaIS1_EES0_IiSaIiEES5_NSt7__cxx1112basic_stringIcSt11char_traitsIcESaIcEEES0_ISB_SaISB_EES5_>:
    std::vector<std::string> colors;
    int tripleIndex = -1;
    int loopIndex = -1;
    int lowerLoopBound, upperLoopBound, lowerGreenBound, upperGreenBound;

    Railway(std::vector<Checkpoint> checkpointInput, std::vector<int> scalerInput, std::vector<int> outputSize, std::string nameInput, std::vector<std::string> colorInput, std::vector<int> boundInput = {0, 0, 0, 0}){
   b5194:	e92d 4ff0 	stmdb	sp!, {r4, r5, r6, r7, r8, r9, sl, fp, lr}
	: _M_start(), _M_finish(), _M_end_of_storage()
   b5198:	2500      	movs	r5, #0
   b519a:	4699      	mov	r9, r3
	return std::pointer_traits<pointer>::pointer_to(*_M_local_buf);
   b519c:	f100 0338 	add.w	r3, r0, #56	; 0x38
      { _M_string_length = __length; }
   b51a0:	e9c0 350c 	strd	r3, r5, [r0, #48]	; 0x30
   b51a4:	f04f 33ff 	mov.w	r3, #4294967295	; 0xffffffff
   b51a8:	e9c0 3315 	strd	r3, r3, [r0, #84]	; 0x54
   b51ac:	4604      	mov	r4, r0
   b51ae:	e9c0 5500 	strd	r5, r5, [r0]
   b51b2:	e9c0 5502 	strd	r5, r5, [r0, #8]
   b51b6:	e9c0 5504 	strd	r5, r5, [r0, #16]
   b51ba:	e9c0 5506 	strd	r5, r5, [r0, #24]
   b51be:	e9c0 5508 	strd	r5, r5, [r0, #32]
   b51c2:	e9c0 550a 	strd	r5, r5, [r0, #40]	; 0x28
   b51c6:	e9c0 5512 	strd	r5, r5, [r0, #72]	; 0x48
   b51ca:	b099      	sub	sp, #100	; 0x64
      { __c1 = __c2; }
   b51cc:	f880 5038 	strb.w	r5, [r0, #56]	; 0x38
   b51d0:	6505      	str	r5, [r0, #80]	; 0x50
   b51d2:	4692      	mov	sl, r2
   b51d4:	f100 0b18 	add.w	fp, r0, #24
   b51d8:	f100 0830 	add.w	r8, r0, #48	; 0x30
   b51dc:	f100 0748 	add.w	r7, r0, #72	; 0x48
      checkpoints = checkpointInput;
   b51e0:	f7ff f834 	bl	b424c <_ZNSt6vectorI10CheckpointSaIS0_EEaSERKS2_.isra.0>
      { return size_type(this->_M_impl._M_finish - this->_M_impl._M_start); }
   b51e4:	e9d4 2300 	ldrd	r2, r3, [r4]
   b51e8:	1a9b      	subs	r3, r3, r2
	if (__n > _S_max_size(_Tp_alloc_type(__a)))
   b51ea:	42ab      	cmp	r3, r5
      { return size_type(this->_M_impl._M_finish - this->_M_impl._M_start); }
   b51ec:	ea4f 01e3 	mov.w	r1, r3, asr #3
	if (__n > _S_max_size(_Tp_alloc_type(__a)))
   b51f0:	da02      	bge.n	b51f8 <_ZN7RailwayC1ESt6vectorI10CheckpointSaIS1_EES0_IiSaIiEES5_NSt7__cxx1112basic_stringIcSt11char_traitsIcESaIcEEES0_ISB_SaISB_EES5_+0x64>
	  __throw_length_error(
   b51f2:	485f      	ldr	r0, [pc, #380]	; (b5370 <_ZN7RailwayC1ESt6vectorI10CheckpointSaIS1_EES0_IiSaIiEES5_NSt7__cxx1112basic_stringIcSt11char_traitsIcESaIcEEES0_ISB_SaISB_EES5_+0x1dc>)
   b51f4:	f005 ffd6 	bl	bb1a4 <_ZSt20__throw_length_errorPKc>
      { _M_create_storage(__n); }
   b51f8:	a809      	add	r0, sp, #36	; 0x24
   b51fa:	9101      	str	r1, [sp, #4]
	: _M_start(), _M_finish(), _M_end_of_storage()
   b51fc:	e9cd 5509 	strd	r5, r5, [sp, #36]	; 0x24
   b5200:	950b      	str	r5, [sp, #44]	; 0x2c
      { _M_create_storage(__n); }
   b5202:	f7ff feb7 	bl	b4f74 <_ZNSt12_Vector_baseIfSaIfEE17_M_create_storageEj>
      if (__n <= 0)
   b5206:	9901      	ldr	r1, [sp, #4]
	  std::__uninitialized_fill_n_a(this->_M_impl._M_start, __n, __value,
   b5208:	9809      	ldr	r0, [sp, #36]	; 0x24
   b520a:	b131      	cbz	r1, b521a <_ZN7RailwayC1ESt6vectorI10CheckpointSaIS1_EES0_IiSaIiEES5_NSt7__cxx1112basic_stringIcSt11char_traitsIcESaIcEEES0_ISB_SaISB_EES5_+0x86>
	return __first;

      __glibcxx_requires_can_increment(__first, __n);

      std::__fill_a(__first, __first + __n, __value);
   b520c:	eb00 0681 	add.w	r6, r0, r1, lsl #2
	*__first = __tmp;
   b5210:	008a      	lsls	r2, r1, #2
   b5212:	4629      	mov	r1, r5
   b5214:	f006 ffd0 	bl	bc1b8 <memset>
   b5218:	4630      	mov	r0, r6
	  _M_finish = __x._M_finish;
   b521a:	e9d4 5203 	ldrd	r5, r2, [r4, #12]
	  _M_start = __x._M_start;
   b521e:	9909      	ldr	r1, [sp, #36]	; 0x24
	  _M_end_of_storage = __x._M_end_of_storage;
   b5220:	6963      	ldr	r3, [r4, #20]
   b5222:	930e      	str	r3, [sp, #56]	; 0x38
	  _M_finish = __x._M_finish;
   b5224:	e9c4 1003 	strd	r1, r0, [r4, #12]
      }
   b5228:	ae0c      	add	r6, sp, #48	; 0x30
	  _M_end_of_storage = __x._M_end_of_storage;
   b522a:	990b      	ldr	r1, [sp, #44]	; 0x2c
   b522c:	6161      	str	r1, [r4, #20]
	  _M_finish = __x._M_finish;
   b522e:	e9cd 520c 	strd	r5, r2, [sp, #48]	; 0x30
      }
   b5232:	4630      	mov	r0, r6
	  _M_start = __x._M_start;
   b5234:	2500      	movs	r5, #0
	  _M_finish = __x._M_finish;
   b5236:	e9cd 5509 	strd	r5, r5, [sp, #36]	; 0x24
	  _M_end_of_storage = __x._M_end_of_storage;
   b523a:	950b      	str	r5, [sp, #44]	; 0x2c
      }
   b523c:	f7ff fa78 	bl	b4730 <_ZNSt12_Vector_baseIfSaIfEED1Ev>
   b5240:	a809      	add	r0, sp, #36	; 0x24
   b5242:	f7ff fa75 	bl	b4730 <_ZNSt12_Vector_baseIfSaIfEED1Ev>
      distances = std::vector<float>(checkpoints.size(), 0);
      scalers = scalerInput;
   b5246:	4651      	mov	r1, sl
   b5248:	4658      	mov	r0, fp
   b524a:	f7ff ff4d 	bl	b50e8 <_ZNSt6vectorIiSaIiEEaSERKS1_.isra.0>
      outputs = {std::vector<int>(outputSize[0], 0), std::vector<int>(outputSize[1], 0), std::vector<int>(outputSize[2], 0), std::vector<int>(outputSize[3], 0)};
   b524e:	f8d9 1000 	ldr.w	r1, [r9]
   b5252:	9506      	str	r5, [sp, #24]
   b5254:	6809      	ldr	r1, [r1, #0]
   b5256:	ab02      	add	r3, sp, #8
   b5258:	aa06      	add	r2, sp, #24
   b525a:	4630      	mov	r0, r6
   b525c:	f7ff faa6 	bl	b47ac <_ZNSt6vectorIiSaIiEEC1EjRKiRKS0_>
   b5260:	f8d9 1000 	ldr.w	r1, [r9]
   b5264:	9507      	str	r5, [sp, #28]
   b5266:	6849      	ldr	r1, [r1, #4]
   b5268:	ab03      	add	r3, sp, #12
   b526a:	aa07      	add	r2, sp, #28
   b526c:	a80f      	add	r0, sp, #60	; 0x3c
   b526e:	f7ff fa9d 	bl	b47ac <_ZNSt6vectorIiSaIiEEC1EjRKiRKS0_>
   b5272:	f8d9 1000 	ldr.w	r1, [r9]
   b5276:	9508      	str	r5, [sp, #32]
   b5278:	6889      	ldr	r1, [r1, #8]
   b527a:	ab04      	add	r3, sp, #16
   b527c:	aa08      	add	r2, sp, #32
   b527e:	a812      	add	r0, sp, #72	; 0x48
   b5280:	f7ff fa94 	bl	b47ac <_ZNSt6vectorIiSaIiEEC1EjRKiRKS0_>
   b5284:	f8d9 1000 	ldr.w	r1, [r9]
   b5288:	9509      	str	r5, [sp, #36]	; 0x24
   b528a:	ab05      	add	r3, sp, #20
   b528c:	aa09      	add	r2, sp, #36	; 0x24
   b528e:	68c9      	ldr	r1, [r1, #12]
   b5290:	a815      	add	r0, sp, #84	; 0x54
   b5292:	f7ff fa8b 	bl	b47ac <_ZNSt6vectorIiSaIiEEC1EjRKiRKS0_>
			 - this->_M_impl._M_start); }
   b5296:	6a62      	ldr	r2, [r4, #36]	; 0x24
   b5298:	6ae3      	ldr	r3, [r4, #44]	; 0x2c
   b529a:	1a9b      	subs	r3, r3, r2
      _M_assign_aux(_ForwardIterator __first, _ForwardIterator __last,
		    std::forward_iterator_tag)
      {
	const size_type __len = std::distance(__first, __last);

	if (__len > capacity())
   b529c:	2b2f      	cmp	r3, #47	; 0x2f
   b529e:	d83f      	bhi.n	b5320 <_ZN7RailwayC1ESt6vectorI10CheckpointSaIS1_EES0_IiSaIiEES5_NSt7__cxx1112basic_stringIcSt11char_traitsIcESaIcEEES0_ISB_SaISB_EES5_+0x18c>
	  pointer __result = this->_M_allocate(__n);
   b52a0:	2004      	movs	r0, #4
   b52a2:	f7fe ff1f 	bl	b40e4 <_ZNSt12_Vector_baseISt6vectorIiSaIiEESaIS2_EE11_M_allocateEj.isra.0>
   b52a6:	46b3      	mov	fp, r6
   b52a8:	4605      	mov	r5, r0
	      for (; __first != __last; ++__first, (void)++__cur)
   b52aa:	f100 0a30 	add.w	sl, r0, #48	; 0x30
	  _ForwardIterator __cur = __result;
   b52ae:	4681      	mov	r9, r0
    { ::new(static_cast<void*>(__p)) _Tp(std::forward<_Args>(__args)...); }
   b52b0:	f1b9 0f00 	cmp.w	r9, #0
   b52b4:	d003      	beq.n	b52be <_ZN7RailwayC1ESt6vectorI10CheckpointSaIS1_EES0_IiSaIiEES5_NSt7__cxx1112basic_stringIcSt11char_traitsIcESaIcEEES0_ISB_SaISB_EES5_+0x12a>
   b52b6:	4659      	mov	r1, fp
   b52b8:	4648      	mov	r0, r9
   b52ba:	f7ff fed1 	bl	b5060 <_ZNSt6vectorIiSaIiEEC1ERKS1_>
	      for (; __first != __last; ++__first, (void)++__cur)
   b52be:	f109 090c 	add.w	r9, r9, #12
   b52c2:	45d1      	cmp	r9, sl
   b52c4:	f10b 0b0c 	add.w	fp, fp, #12
   b52c8:	d1f2      	bne.n	b52b0 <_ZN7RailwayC1ESt6vectorI10CheckpointSaIS1_EES0_IiSaIiEES5_NSt7__cxx1112basic_stringIcSt11char_traitsIcESaIcEEES0_ISB_SaISB_EES5_+0x11c>
	__destroy(__first, __last);
   b52ca:	e9d4 0109 	ldrd	r0, r1, [r4, #36]	; 0x24
   b52ce:	f7ff fe66 	bl	b4f9e <_ZNSt12_Destroy_auxILb0EE9__destroyIPSt6vectorIiSaIiEEEEvT_S6_>
	    _S_check_init_len(__len, _M_get_Tp_allocator());
	    pointer __tmp(_M_allocate_and_copy(__len, __first, __last));
	    std::_Destroy(this->_M_impl._M_start, this->_M_impl._M_finish,
			  _M_get_Tp_allocator());
	    _GLIBCXX_ASAN_ANNOTATE_REINIT;
	    _M_deallocate(this->_M_impl._M_start,
   b52d2:	6a60      	ldr	r0, [r4, #36]	; 0x24
	if (__p)
   b52d4:	b118      	cbz	r0, b52de <_ZN7RailwayC1ESt6vectorI10CheckpointSaIS1_EES0_IiSaIiEES5_NSt7__cxx1112basic_stringIcSt11char_traitsIcESaIcEEES0_ISB_SaISB_EES5_+0x14a>
			  this->_M_impl._M_end_of_storage
			  - this->_M_impl._M_start);
   b52d6:	6ae1      	ldr	r1, [r4, #44]	; 0x2c
   b52d8:	1a09      	subs	r1, r1, r0
   b52da:	f7fe fee2 	bl	b40a2 <_ZdlPvj>
	    this->_M_impl._M_start = __tmp;
	    this->_M_impl._M_finish = this->_M_impl._M_start + __len;
   b52de:	e9c4 5a09 	strd	r5, sl, [r4, #36]	; 0x24
	    this->_M_impl._M_end_of_storage = this->_M_impl._M_finish;
   b52e2:	f8c4 a02c 	str.w	sl, [r4, #44]	; 0x2c
   b52e6:	ad18      	add	r5, sp, #96	; 0x60
   b52e8:	3d0c      	subs	r5, #12
      }
   b52ea:	4628      	mov	r0, r5
   b52ec:	f7ff fa2a 	bl	b4744 <_ZNSt12_Vector_baseIiSaIiEED1Ev>
   b52f0:	42b5      	cmp	r5, r6
   b52f2:	d1f9      	bne.n	b52e8 <_ZN7RailwayC1ESt6vectorI10CheckpointSaIS1_EES0_IiSaIiEES5_NSt7__cxx1112basic_stringIcSt11char_traitsIcESaIcEEES0_ISB_SaISB_EES5_+0x154>
	this->_M_assign(__str);
   b52f4:	9922      	ldr	r1, [sp, #136]	; 0x88
   b52f6:	4640      	mov	r0, r8
   b52f8:	f005 ffa4 	bl	bb244 <_ZNSt7__cxx1112basic_stringIcSt11char_traitsIcESaIcEE9_M_assignERKS4_>
      name = nameInput;
      colors = colorInput;
   b52fc:	4638      	mov	r0, r7
   b52fe:	9923      	ldr	r1, [sp, #140]	; 0x8c
   b5300:	f7fe fff6 	bl	b42f0 <_ZNSt6vectorINSt7__cxx1112basic_stringIcSt11char_traitsIcESaIcEEESaIS5_EEaSERKS7_.isra.0>
	return *(this->_M_impl._M_start + __n);
   b5304:	9b24      	ldr	r3, [sp, #144]	; 0x90
   b5306:	681b      	ldr	r3, [r3, #0]
      lowerLoopBound = boundInput[0];
   b5308:	681a      	ldr	r2, [r3, #0]
   b530a:	65e2      	str	r2, [r4, #92]	; 0x5c
      upperLoopBound = boundInput[1];
   b530c:	685a      	ldr	r2, [r3, #4]
   b530e:	6622      	str	r2, [r4, #96]	; 0x60
      lowerGreenBound = boundInput[2];
   b5310:	689a      	ldr	r2, [r3, #8]
      upperGreenBound = boundInput[3];
   b5312:	68db      	ldr	r3, [r3, #12]
      lowerGreenBound = boundInput[2];
   b5314:	6662      	str	r2, [r4, #100]	; 0x64
    }
   b5316:	4620      	mov	r0, r4
      upperGreenBound = boundInput[3];
   b5318:	66a3      	str	r3, [r4, #104]	; 0x68
    }
   b531a:	b019      	add	sp, #100	; 0x64
   b531c:	e8bd 8ff0 	ldmia.w	sp!, {r4, r5, r6, r7, r8, r9, sl, fp, pc}
      { return size_type(this->_M_impl._M_finish - this->_M_impl._M_start); }
   b5320:	6aa5      	ldr	r5, [r4, #40]	; 0x28
   b5322:	1aad      	subs	r5, r5, r2
	  }
	else if (size() >= __len)
   b5324:	2d2f      	cmp	r5, #47	; 0x2f
   b5326:	d90b      	bls.n	b5340 <_ZN7RailwayC1ESt6vectorI10CheckpointSaIS1_EES0_IiSaIiEES5_NSt7__cxx1112basic_stringIcSt11char_traitsIcESaIcEEES0_ISB_SaISB_EES5_+0x1ac>
			      _Category>::__copy_m(__first, __last, __result);
   b5328:	a918      	add	r1, sp, #96	; 0x60
   b532a:	4630      	mov	r0, r6
   b532c:	f7ff ff14 	bl	b5158 <_ZNSt11__copy_moveILb0ELb0ESt26random_access_iterator_tagE8__copy_mIPKSt6vectorIiSaIiEEPS5_EET0_T_SA_S9_>
      // Called by erase(q1,q2), clear(), resize(), _M_fill_assign,
      // _M_assign_aux.
      void
      _M_erase_at_end(pointer __pos) _GLIBCXX_NOEXCEPT
      {
	if (size_type __n = this->_M_impl._M_finish - __pos)
   b5330:	6aa1      	ldr	r1, [r4, #40]	; 0x28
   b5332:	4288      	cmp	r0, r1
   b5334:	4605      	mov	r5, r0
   b5336:	d0d6      	beq.n	b52e6 <_ZN7RailwayC1ESt6vectorI10CheckpointSaIS1_EES0_IiSaIiEES5_NSt7__cxx1112basic_stringIcSt11char_traitsIcESaIcEEES0_ISB_SaISB_EES5_+0x152>
   b5338:	f7ff fe31 	bl	b4f9e <_ZNSt12_Destroy_auxILb0EE9__destroyIPSt6vectorIiSaIiEEEEvT_S6_>
	  {
	    std::_Destroy(__pos, this->_M_impl._M_finish,
			  _M_get_Tp_allocator());
	    this->_M_impl._M_finish = __pos;
   b533c:	62a5      	str	r5, [r4, #40]	; 0x28
   b533e:	e7d2      	b.n	b52e6 <_ZN7RailwayC1ESt6vectorI10CheckpointSaIS1_EES0_IiSaIiEES5_NSt7__cxx1112basic_stringIcSt11char_traitsIcESaIcEEES0_ISB_SaISB_EES5_+0x152>
      if (__builtin_constant_p(__n) && __n == 1)
	++__i;
      else if (__builtin_constant_p(__n) && __n == -1)
	--__i;
      else
	__i += __n;
   b5340:	4435      	add	r5, r6
   b5342:	4629      	mov	r1, r5
   b5344:	4630      	mov	r0, r6
   b5346:	f7ff ff07 	bl	b5158 <_ZNSt11__copy_moveILb0ELb0ESt26random_access_iterator_tagE8__copy_mIPKSt6vectorIiSaIiEEPS5_EET0_T_SA_S9_>
      { return size_type(this->_M_impl._M_finish - this->_M_impl._M_start); }
   b534a:	f8d4 9028 	ldr.w	r9, [r4, #40]	; 0x28
   b534e:	ab18      	add	r3, sp, #96	; 0x60
   b5350:	429d      	cmp	r5, r3
   b5352:	d00a      	beq.n	b536a <_ZN7RailwayC1ESt6vectorI10CheckpointSaIS1_EES0_IiSaIiEES5_NSt7__cxx1112basic_stringIcSt11char_traitsIcESaIcEEES0_ISB_SaISB_EES5_+0x1d6>
    { ::new(static_cast<void*>(__p)) _Tp(std::forward<_Args>(__args)...); }
   b5354:	f1b9 0f00 	cmp.w	r9, #0
   b5358:	d003      	beq.n	b5362 <_ZN7RailwayC1ESt6vectorI10CheckpointSaIS1_EES0_IiSaIiEES5_NSt7__cxx1112basic_stringIcSt11char_traitsIcESaIcEEES0_ISB_SaISB_EES5_+0x1ce>
   b535a:	4629      	mov	r1, r5
   b535c:	4648      	mov	r0, r9
   b535e:	f7ff fe7f 	bl	b5060 <_ZNSt6vectorIiSaIiEEC1ERKS1_>
   b5362:	350c      	adds	r5, #12
   b5364:	f109 090c 	add.w	r9, r9, #12
   b5368:	e7f1      	b.n	b534e <_ZN7RailwayC1ESt6vectorI10CheckpointSaIS1_EES0_IiSaIiEES5_NSt7__cxx1112basic_stringIcSt11char_traitsIcESaIcEEES0_ISB_SaISB_EES5_+0x1ba>
	    _ForwardIterator __mid = __first;
	    std::advance(__mid, size());
	    std::copy(__first, __mid, this->_M_impl._M_start);
	    const size_type __attribute__((__unused__)) __n = __len - size();
	    _GLIBCXX_ASAN_ANNOTATE_GROW(__n);
	    this->_M_impl._M_finish =
   b536a:	f8c4 9028 	str.w	r9, [r4, #40]	; 0x28
   b536e:	e7ba      	b.n	b52e6 <_ZN7RailwayC1ESt6vectorI10CheckpointSaIS1_EES0_IiSaIiEES5_NSt7__cxx1112basic_stringIcSt11char_traitsIcESaIcEEES0_ISB_SaISB_EES5_+0x152>
   b5370:	000be393 	.word	0x000be393

000b5374 <_Z41__static_initialization_and_destruction_0ii.constprop.0>:
   b5374:	e92d 4ff0 	stmdb	sp!, {r4, r5, r6, r7, r8, r9, sl, fp, lr}
   b5378:	ed2d 8b0e 	vpush	{d8-d14}
   b537c:	2801      	cmp	r0, #1
   b537e:	4db4      	ldr	r5, [pc, #720]	; (b5650 <_Z41__static_initialization_and_destruction_0ii.constprop.0+0x2dc>)
   b5380:	f5ad 7d41 	sub.w	sp, sp, #772	; 0x304
   b5384:	f041 810f 	bne.w	b65a6 <_Z41__static_initialization_and_destruction_0ii.constprop.0+0x1232>

class SystemSleepResult {
public:
    SystemSleepResult()
            : wakeupSource_(nullptr),
              error_(SYSTEM_ERROR_NONE) {
   b5388:	2400      	movs	r4, #0
    SleepResult() {}
   b538a:	4bb2      	ldr	r3, [pc, #712]	; (b5654 <_Z41__static_initialization_and_destruction_0ii.constprop.0+0x2e0>)
   b538c:	60ab      	str	r3, [r5, #8]
              error_(SYSTEM_ERROR_NONE) {
   b538e:	e9c5 4400 	strd	r4, r4, [r5]

class SystemClass {
public:

    SystemClass(System_Mode_TypeDef mode = DEFAULT) {
        set_system_mode(mode);
   b5392:	2003      	movs	r0, #3
   b5394:	f003 fae6 	bl	b8964 <set_system_mode>
  public:
    float lat;
    float lon;

    Checkpoint(float la, float lo){
      lat = la;
   b5398:	4baf      	ldr	r3, [pc, #700]	; (b5658 <_Z41__static_initialization_and_destruction_0ii.constprop.0+0x2e4>)
   b539a:	93a4      	str	r3, [sp, #656]	; 0x290
      lon = lo;
   b539c:	4baf      	ldr	r3, [pc, #700]	; (b565c <_Z41__static_initialization_and_destruction_0ii.constprop.0+0x2e8>)
   b539e:	93a5      	str	r3, [sp, #660]	; 0x294
      lat = la;
   b53a0:	4baf      	ldr	r3, [pc, #700]	; (b5660 <_Z41__static_initialization_and_destruction_0ii.constprop.0+0x2ec>)
   b53a2:	93a6      	str	r3, [sp, #664]	; 0x298
      lon = lo;
   b53a4:	4baf      	ldr	r3, [pc, #700]	; (b5664 <_Z41__static_initialization_and_destruction_0ii.constprop.0+0x2f0>)
   b53a6:	93a7      	str	r3, [sp, #668]	; 0x29c
      lat = la;
   b53a8:	4baf      	ldr	r3, [pc, #700]	; (b5668 <_Z41__static_initialization_and_destruction_0ii.constprop.0+0x2f4>)
   b53aa:	93a8      	str	r3, [sp, #672]	; 0x2a0
      lon = lo;
   b53ac:	4baf      	ldr	r3, [pc, #700]	; (b566c <_Z41__static_initialization_and_destruction_0ii.constprop.0+0x2f8>)
   b53ae:	93a9      	str	r3, [sp, #676]	; 0x2a4
      lat = la;
   b53b0:	4baf      	ldr	r3, [pc, #700]	; (b5670 <_Z41__static_initialization_and_destruction_0ii.constprop.0+0x2fc>)
   b53b2:	93aa      	str	r3, [sp, #680]	; 0x2a8
      lon = lo;
   b53b4:	4baf      	ldr	r3, [pc, #700]	; (b5674 <_Z41__static_initialization_and_destruction_0ii.constprop.0+0x300>)
   b53b6:	93ab      	str	r3, [sp, #684]	; 0x2ac
      lat = la;
   b53b8:	4baf      	ldr	r3, [pc, #700]	; (b5678 <_Z41__static_initialization_and_destruction_0ii.constprop.0+0x304>)
   b53ba:	93ac      	str	r3, [sp, #688]	; 0x2b0
      lon = lo;
   b53bc:	4baf      	ldr	r3, [pc, #700]	; (b567c <_Z41__static_initialization_and_destruction_0ii.constprop.0+0x308>)
   b53be:	93ad      	str	r3, [sp, #692]	; 0x2b4
);
   b53c0:	aba4      	add	r3, sp, #656	; 0x290
   b53c2:	937e      	str	r3, [sp, #504]	; 0x1f8
   b53c4:	2305      	movs	r3, #5
   b53c6:	937f      	str	r3, [sp, #508]	; 0x1fc
   b53c8:	f50d 7ae8 	add.w	sl, sp, #464	; 0x1d0
   b53cc:	aa7e      	add	r2, sp, #504	; 0x1f8
   b53ce:	4653      	mov	r3, sl
   b53d0:	ca06      	ldmia	r2, {r1, r2}
   b53d2:	a88c      	add	r0, sp, #560	; 0x230
   b53d4:	f7ff fa0c 	bl	b47f0 <_ZNSt6vectorI10CheckpointSaIS0_EEC1ESt16initializer_listIS0_ERKS1_>
   b53d8:	4ba9      	ldr	r3, [pc, #676]	; (b5680 <_Z41__static_initialization_and_destruction_0ii.constprop.0+0x30c>)
      lat = la;
   b53da:	eddf 8aaa 	vldr	s17, [pc, #680]	; b5684 <_Z41__static_initialization_and_destruction_0ii.constprop.0+0x310>
      lon = lo;
   b53de:	ed9f 8aaa 	vldr	s16, [pc, #680]	; b5688 <_Z41__static_initialization_and_destruction_0ii.constprop.0+0x314>
      lat = la;
   b53e2:	eddf 9aaa 	vldr	s19, [pc, #680]	; b568c <_Z41__static_initialization_and_destruction_0ii.constprop.0+0x318>
      lon = lo;
   b53e6:	ed9f 9aaa 	vldr	s18, [pc, #680]	; b5690 <_Z41__static_initialization_and_destruction_0ii.constprop.0+0x31c>
      lat = la;
   b53ea:	eddf aaaa 	vldr	s21, [pc, #680]	; b5694 <_Z41__static_initialization_and_destruction_0ii.constprop.0+0x320>
      lon = lo;
   b53ee:	ed9f aaaa 	vldr	s20, [pc, #680]	; b5698 <_Z41__static_initialization_and_destruction_0ii.constprop.0+0x324>
      lat = la;
   b53f2:	eddf baaa 	vldr	s23, [pc, #680]	; b569c <_Z41__static_initialization_and_destruction_0ii.constprop.0+0x328>
      lon = lo;
   b53f6:	ed9f baaa 	vldr	s22, [pc, #680]	; b56a0 <_Z41__static_initialization_and_destruction_0ii.constprop.0+0x32c>
      lat = la;
   b53fa:	eddf daaa 	vldr	s27, [pc, #680]	; b56a4 <_Z41__static_initialization_and_destruction_0ii.constprop.0+0x330>
      lon = lo;
   b53fe:	ed9f daaa 	vldr	s26, [pc, #680]	; b56a8 <_Z41__static_initialization_and_destruction_0ii.constprop.0+0x334>
      lat = la;
   b5402:	eddf caaa 	vldr	s25, [pc, #680]	; b56ac <_Z41__static_initialization_and_destruction_0ii.constprop.0+0x338>
      lon = lo;
   b5406:	ed9f caaa 	vldr	s24, [pc, #680]	; b56b0 <_Z41__static_initialization_and_destruction_0ii.constprop.0+0x33c>
   b540a:	ed9f eaaa 	vldr	s28, [pc, #680]	; b56b4 <_Z41__static_initialization_and_destruction_0ii.constprop.0+0x340>
   b540e:	461f      	mov	r7, r3
   b5410:	cb0f      	ldmia	r3, {r0, r1, r2, r3}
   b5412:	f50d 7b17 	add.w	fp, sp, #604	; 0x25c
   b5416:	e88b 000f 	stmia.w	fp, {r0, r1, r2, r3}
   b541a:	2204      	movs	r2, #4
   b541c:	ad89      	add	r5, sp, #548	; 0x224
   b541e:	ab7c      	add	r3, sp, #496	; 0x1f0
   b5420:	f8cd b1f0 	str.w	fp, [sp, #496]	; 0x1f0
   b5424:	927d      	str	r2, [sp, #500]	; 0x1f4
   b5426:	e893 0006 	ldmia.w	r3, {r1, r2}
   b542a:	4628      	mov	r0, r5
   b542c:	f7ff fe32 	bl	b5094 <_ZNSt6vectorIiSaIiEEC2ESt16initializer_listIiERKS0_.constprop.0.isra.0>
   b5430:	2228      	movs	r2, #40	; 0x28
   b5432:	e9cd 2494 	strd	r2, r4, [sp, #592]	; 0x250
   b5436:	aa93      	add	r2, sp, #588	; 0x24c
   b5438:	927a      	str	r2, [sp, #488]	; 0x1e8
   b543a:	2204      	movs	r2, #4
   b543c:	f50d 7806 	add.w	r8, sp, #536	; 0x218
   b5440:	ab7a      	add	r3, sp, #488	; 0x1e8
   b5442:	927b      	str	r2, [sp, #492]	; 0x1ec
   b5444:	e893 0006 	ldmia.w	r3, {r1, r2}
   b5448:	4640      	mov	r0, r8
   b544a:	9493      	str	r4, [sp, #588]	; 0x24c
   b544c:	9496      	str	r4, [sp, #600]	; 0x258
   b544e:	f7ff fe21 	bl	b5094 <_ZNSt6vectorIiSaIiEEC2ESt16initializer_listIiERKS0_.constprop.0.isra.0>
   b5452:	a89d      	add	r0, sp, #628	; 0x274
   b5454:	4998      	ldr	r1, [pc, #608]	; (b56b8 <_Z41__static_initialization_and_destruction_0ii.constprop.0+0x344>)
   b5456:	f7fe fe57 	bl	b4108 <_ZNSt7__cxx1112basic_stringIcSt11char_traitsIcESaIcEEC2IS3_EEPKcRKS3_.constprop.0.isra.0>
   b545a:	a8b0      	add	r0, sp, #704	; 0x2c0
   b545c:	4997      	ldr	r1, [pc, #604]	; (b56bc <_Z41__static_initialization_and_destruction_0ii.constprop.0+0x348>)
   b545e:	f7fe fe53 	bl	b4108 <_ZNSt7__cxx1112basic_stringIcSt11char_traitsIcESaIcEEC2IS3_EEPKcRKS3_.constprop.0.isra.0>
   b5462:	a8b6      	add	r0, sp, #728	; 0x2d8
   b5464:	4996      	ldr	r1, [pc, #600]	; (b56c0 <_Z41__static_initialization_and_destruction_0ii.constprop.0+0x34c>)
   b5466:	f7fe fe4f 	bl	b4108 <_ZNSt7__cxx1112basic_stringIcSt11char_traitsIcESaIcEEC2IS3_EEPKcRKS3_.constprop.0.isra.0>
   b546a:	a9b0      	add	r1, sp, #704	; 0x2c0
   b546c:	9178      	str	r1, [sp, #480]	; 0x1e0
   b546e:	2102      	movs	r1, #2
   b5470:	f50d 79e4 	add.w	r9, sp, #456	; 0x1c8
   b5474:	9179      	str	r1, [sp, #484]	; 0x1e4
   b5476:	aa78      	add	r2, sp, #480	; 0x1e0
   b5478:	464b      	mov	r3, r9
   b547a:	ca06      	ldmia	r2, {r1, r2}
   b547c:	a883      	add	r0, sp, #524	; 0x20c
   b547e:	f7ff f9eb 	bl	b4858 <_ZNSt6vectorINSt7__cxx1112basic_stringIcSt11char_traitsIcESaIcEEESaIS5_EEC1ESt16initializer_listIS5_ERKS6_>
   b5482:	4621      	mov	r1, r4
   b5484:	2210      	movs	r2, #16
   b5486:	a88f      	add	r0, sp, #572	; 0x23c
   b5488:	f006 fe96 	bl	bc1b8 <memset>
   b548c:	aa8f      	add	r2, sp, #572	; 0x23c
   b548e:	9276      	str	r2, [sp, #472]	; 0x1d8
   b5490:	2204      	movs	r2, #4
   b5492:	ae80      	add	r6, sp, #512	; 0x200
   b5494:	ab76      	add	r3, sp, #472	; 0x1d8
   b5496:	9277      	str	r2, [sp, #476]	; 0x1dc
   b5498:	e893 0006 	ldmia.w	r3, {r1, r2}
   b549c:	4630      	mov	r0, r6
   b549e:	f7ff fdf9 	bl	b5094 <_ZNSt6vectorIiSaIiEEC2ESt16initializer_listIiERKS0_.constprop.0.isra.0>
Railway redLineCTA = Railway(
   b54a2:	aa83      	add	r2, sp, #524	; 0x20c
   b54a4:	9201      	str	r2, [sp, #4]
   b54a6:	aa9d      	add	r2, sp, #628	; 0x274
   b54a8:	4643      	mov	r3, r8
   b54aa:	a98c      	add	r1, sp, #560	; 0x230
   b54ac:	9602      	str	r6, [sp, #8]
   b54ae:	9200      	str	r2, [sp, #0]
   b54b0:	4884      	ldr	r0, [pc, #528]	; (b56c4 <_Z41__static_initialization_and_destruction_0ii.constprop.0+0x350>)
   b54b2:	462a      	mov	r2, r5
   b54b4:	f7ff fe6e 	bl	b5194 <_ZN7RailwayC1ESt6vectorI10CheckpointSaIS1_EES0_IiSaIiEES5_NSt7__cxx1112basic_stringIcSt11char_traitsIcESaIcEEES0_ISB_SaISB_EES5_>
      }
   b54b8:	4630      	mov	r0, r6
   b54ba:	f7ff f943 	bl	b4744 <_ZNSt12_Vector_baseIiSaIiEED1Ev>
);
   b54be:	a883      	add	r0, sp, #524	; 0x20c
   b54c0:	f7ff f961 	bl	b4786 <_ZNSt6vectorINSt7__cxx1112basic_stringIcSt11char_traitsIcESaIcEEESaIS5_EED1Ev>
      { _M_dispose(); }
   b54c4:	a8b6      	add	r0, sp, #728	; 0x2d8
   b54c6:	f005 fe9f 	bl	bb208 <_ZNSt7__cxx1112basic_stringIcSt11char_traitsIcESaIcEE10_M_disposeEv>
   b54ca:	a8b0      	add	r0, sp, #704	; 0x2c0
   b54cc:	f005 fe9c 	bl	bb208 <_ZNSt7__cxx1112basic_stringIcSt11char_traitsIcESaIcEE10_M_disposeEv>
   b54d0:	a89d      	add	r0, sp, #628	; 0x274
   b54d2:	f005 fe99 	bl	bb208 <_ZNSt7__cxx1112basic_stringIcSt11char_traitsIcESaIcEE10_M_disposeEv>
   b54d6:	4640      	mov	r0, r8
   b54d8:	f7ff f934 	bl	b4744 <_ZNSt12_Vector_baseIiSaIiEED1Ev>
   b54dc:	4628      	mov	r0, r5
   b54de:	f7ff f931 	bl	b4744 <_ZNSt12_Vector_baseIiSaIiEED1Ev>
   b54e2:	a88c      	add	r0, sp, #560	; 0x230
   b54e4:	f7ff f91a 	bl	b471c <_ZNSt12_Vector_baseI10CheckpointSaIS0_EED1Ev>
      lat = la;
   b54e8:	4b77      	ldr	r3, [pc, #476]	; (b56c8 <_Z41__static_initialization_and_destruction_0ii.constprop.0+0x354>)
   b54ea:	93b0      	str	r3, [sp, #704]	; 0x2c0
      lon = lo;
   b54ec:	4b77      	ldr	r3, [pc, #476]	; (b56cc <_Z41__static_initialization_and_destruction_0ii.constprop.0+0x358>)
   b54ee:	93b1      	str	r3, [sp, #708]	; 0x2c4
      lat = la;
   b54f0:	4b77      	ldr	r3, [pc, #476]	; (b56d0 <_Z41__static_initialization_and_destruction_0ii.constprop.0+0x35c>)
   b54f2:	93b2      	str	r3, [sp, #712]	; 0x2c8
      lon = lo;
   b54f4:	4b77      	ldr	r3, [pc, #476]	; (b56d4 <_Z41__static_initialization_and_destruction_0ii.constprop.0+0x360>)
   b54f6:	93b3      	str	r3, [sp, #716]	; 0x2cc
      lat = la;
   b54f8:	4b77      	ldr	r3, [pc, #476]	; (b56d8 <_Z41__static_initialization_and_destruction_0ii.constprop.0+0x364>)
   b54fa:	93b4      	str	r3, [sp, #720]	; 0x2d0
      lon = lo;
   b54fc:	4b77      	ldr	r3, [pc, #476]	; (b56dc <_Z41__static_initialization_and_destruction_0ii.constprop.0+0x368>)
   b54fe:	93b5      	str	r3, [sp, #724]	; 0x2d4
      lat = la;
   b5500:	4b77      	ldr	r3, [pc, #476]	; (b56e0 <_Z41__static_initialization_and_destruction_0ii.constprop.0+0x36c>)
   b5502:	93b6      	str	r3, [sp, #728]	; 0x2d8
      lon = lo;
   b5504:	4b77      	ldr	r3, [pc, #476]	; (b56e4 <_Z41__static_initialization_and_destruction_0ii.constprop.0+0x370>)
   b5506:	93b7      	str	r3, [sp, #732]	; 0x2dc
      lat = la;
   b5508:	4b77      	ldr	r3, [pc, #476]	; (b56e8 <_Z41__static_initialization_and_destruction_0ii.constprop.0+0x374>)
   b550a:	93b8      	str	r3, [sp, #736]	; 0x2e0
      lon = lo;
   b550c:	4b77      	ldr	r3, [pc, #476]	; (b56ec <_Z41__static_initialization_and_destruction_0ii.constprop.0+0x378>)
   b550e:	93b9      	str	r3, [sp, #740]	; 0x2e4
      lat = la;
   b5510:	4b77      	ldr	r3, [pc, #476]	; (b56f0 <_Z41__static_initialization_and_destruction_0ii.constprop.0+0x37c>)
   b5512:	93ba      	str	r3, [sp, #744]	; 0x2e8
);
   b5514:	aab0      	add	r2, sp, #704	; 0x2c0
      lon = lo;
   b5516:	4b77      	ldr	r3, [pc, #476]	; (b56f4 <_Z41__static_initialization_and_destruction_0ii.constprop.0+0x380>)
   b5518:	9274      	str	r2, [sp, #464]	; 0x1d0
   b551a:	93bb      	str	r3, [sp, #748]	; 0x2ec
   b551c:	2207      	movs	r2, #7
      lat = la;
   b551e:	4b76      	ldr	r3, [pc, #472]	; (b56f8 <_Z41__static_initialization_and_destruction_0ii.constprop.0+0x384>)
   b5520:	9275      	str	r2, [sp, #468]	; 0x1d4
   b5522:	93bc      	str	r3, [sp, #752]	; 0x2f0
   b5524:	aa6a      	add	r2, sp, #424	; 0x1a8
      lon = lo;
   b5526:	4b75      	ldr	r3, [pc, #468]	; (b56fc <_Z41__static_initialization_and_destruction_0ii.constprop.0+0x388>)
   b5528:	93bd      	str	r3, [sp, #756]	; 0x2f4
   b552a:	a88c      	add	r0, sp, #560	; 0x230
   b552c:	4613      	mov	r3, r2
   b552e:	e89a 0006 	ldmia.w	sl, {r1, r2}
   b5532:	f7ff f95d 	bl	b47f0 <_ZNSt6vectorI10CheckpointSaIS0_EEC1ESt16initializer_listIS0_ERKS1_>
   b5536:	aa9d      	add	r2, sp, #628	; 0x274
   b5538:	f107 0c10 	add.w	ip, r7, #16
   b553c:	9204      	str	r2, [sp, #16]
   b553e:	e8bc 000f 	ldmia.w	ip!, {r0, r1, r2, r3}
   b5542:	9f04      	ldr	r7, [sp, #16]
   b5544:	c70f      	stmia	r7!, {r0, r1, r2, r3}
   b5546:	e89c 0003 	ldmia.w	ip, {r0, r1}
   b554a:	aa9d      	add	r2, sp, #628	; 0x274
   b554c:	9272      	str	r2, [sp, #456]	; 0x1c8
   b554e:	2206      	movs	r2, #6
   b5550:	9273      	str	r2, [sp, #460]	; 0x1cc
   b5552:	e9c7 0100 	strd	r0, r1, [r7]
   b5556:	e899 0006 	ldmia.w	r9, {r1, r2}
   b555a:	4628      	mov	r0, r5
   b555c:	9704      	str	r7, [sp, #16]
   b555e:	f7ff fd99 	bl	b5094 <_ZNSt6vectorIiSaIiEEC2ESt16initializer_listIiERKS0_.constprop.0.isra.0>
   b5562:	aa93      	add	r2, sp, #588	; 0x24c
   b5564:	9270      	str	r2, [sp, #448]	; 0x1c0
   b5566:	233c      	movs	r3, #60	; 0x3c
   b5568:	2204      	movs	r2, #4
   b556a:	e9cd 3494 	strd	r3, r4, [sp, #592]	; 0x250
   b556e:	9271      	str	r2, [sp, #452]	; 0x1c4
   b5570:	ab70      	add	r3, sp, #448	; 0x1c0
   b5572:	e893 0006 	ldmia.w	r3, {r1, r2}
   b5576:	4640      	mov	r0, r8
   b5578:	9493      	str	r4, [sp, #588]	; 0x24c
   b557a:	9496      	str	r4, [sp, #600]	; 0x258
   b557c:	f7ff fd8a 	bl	b5094 <_ZNSt6vectorIiSaIiEEC2ESt16initializer_listIiERKS0_.constprop.0.isra.0>
   b5580:	4658      	mov	r0, fp
   b5582:	495f      	ldr	r1, [pc, #380]	; (b5700 <_Z41__static_initialization_and_destruction_0ii.constprop.0+0x38c>)
   b5584:	f7fe fdc0 	bl	b4108 <_ZNSt7__cxx1112basic_stringIcSt11char_traitsIcESaIcEEC2IS3_EEPKcRKS3_.constprop.0.isra.0>
   b5588:	a8a4      	add	r0, sp, #656	; 0x290
   b558a:	495e      	ldr	r1, [pc, #376]	; (b5704 <_Z41__static_initialization_and_destruction_0ii.constprop.0+0x390>)
   b558c:	f7fe fdbc 	bl	b4108 <_ZNSt7__cxx1112basic_stringIcSt11char_traitsIcESaIcEEC2IS3_EEPKcRKS3_.constprop.0.isra.0>
   b5590:	a8aa      	add	r0, sp, #680	; 0x2a8
   b5592:	495d      	ldr	r1, [pc, #372]	; (b5708 <_Z41__static_initialization_and_destruction_0ii.constprop.0+0x394>)
   b5594:	f7fe fdb8 	bl	b4108 <_ZNSt7__cxx1112basic_stringIcSt11char_traitsIcESaIcEEC2IS3_EEPKcRKS3_.constprop.0.isra.0>
   b5598:	aba4      	add	r3, sp, #656	; 0x290
   b559a:	2102      	movs	r1, #2
   b559c:	936e      	str	r3, [sp, #440]	; 0x1b8
   b559e:	f50d 79d0 	add.w	r9, sp, #416	; 0x1a0
   b55a2:	916f      	str	r1, [sp, #444]	; 0x1bc
   b55a4:	aa6e      	add	r2, sp, #440	; 0x1b8
   b55a6:	464b      	mov	r3, r9
   b55a8:	ca06      	ldmia	r2, {r1, r2}
   b55aa:	a883      	add	r0, sp, #524	; 0x20c
   b55ac:	f7ff f954 	bl	b4858 <_ZNSt6vectorINSt7__cxx1112basic_stringIcSt11char_traitsIcESaIcEEESaIS5_EEC1ESt16initializer_listIS5_ERKS6_>
   b55b0:	4621      	mov	r1, r4
   b55b2:	2210      	movs	r2, #16
   b55b4:	a88f      	add	r0, sp, #572	; 0x23c
   b55b6:	f006 fdff 	bl	bc1b8 <memset>
   b55ba:	aa8f      	add	r2, sp, #572	; 0x23c
   b55bc:	926c      	str	r2, [sp, #432]	; 0x1b0
   b55be:	2204      	movs	r2, #4
   b55c0:	ab6c      	add	r3, sp, #432	; 0x1b0
   b55c2:	926d      	str	r2, [sp, #436]	; 0x1b4
   b55c4:	e893 0006 	ldmia.w	r3, {r1, r2}
   b55c8:	4630      	mov	r0, r6
   b55ca:	f7ff fd63 	bl	b5094 <_ZNSt6vectorIiSaIiEEC2ESt16initializer_listIiERKS0_.constprop.0.isra.0>
Railway blueLineCTA = Railway(
   b55ce:	aa83      	add	r2, sp, #524	; 0x20c
   b55d0:	4643      	mov	r3, r8
   b55d2:	a98c      	add	r1, sp, #560	; 0x230
   b55d4:	e9cd b200 	strd	fp, r2, [sp]
   b55d8:	9602      	str	r6, [sp, #8]
   b55da:	462a      	mov	r2, r5
   b55dc:	484b      	ldr	r0, [pc, #300]	; (b570c <_Z41__static_initialization_and_destruction_0ii.constprop.0+0x398>)
   b55de:	f7ff fdd9 	bl	b5194 <_ZN7RailwayC1ESt6vectorI10CheckpointSaIS1_EES0_IiSaIiEES5_NSt7__cxx1112basic_stringIcSt11char_traitsIcESaIcEEES0_ISB_SaISB_EES5_>
   b55e2:	4630      	mov	r0, r6
   b55e4:	f7ff f8ae 	bl	b4744 <_ZNSt12_Vector_baseIiSaIiEED1Ev>
);
   b55e8:	a883      	add	r0, sp, #524	; 0x20c
   b55ea:	f7ff f8cc 	bl	b4786 <_ZNSt6vectorINSt7__cxx1112basic_stringIcSt11char_traitsIcESaIcEEESaIS5_EED1Ev>
   b55ee:	a8aa      	add	r0, sp, #680	; 0x2a8
   b55f0:	f005 fe0a 	bl	bb208 <_ZNSt7__cxx1112basic_stringIcSt11char_traitsIcESaIcEE10_M_disposeEv>
   b55f4:	a8a4      	add	r0, sp, #656	; 0x290
   b55f6:	f005 fe07 	bl	bb208 <_ZNSt7__cxx1112basic_stringIcSt11char_traitsIcESaIcEE10_M_disposeEv>
   b55fa:	4658      	mov	r0, fp
   b55fc:	f005 fe04 	bl	bb208 <_ZNSt7__cxx1112basic_stringIcSt11char_traitsIcESaIcEE10_M_disposeEv>
   b5600:	4640      	mov	r0, r8
   b5602:	f7ff f89f 	bl	b4744 <_ZNSt12_Vector_baseIiSaIiEED1Ev>
   b5606:	4628      	mov	r0, r5
   b5608:	f7ff f89c 	bl	b4744 <_ZNSt12_Vector_baseIiSaIiEED1Ev>
   b560c:	a88c      	add	r0, sp, #560	; 0x230
   b560e:	f7ff f885 	bl	b471c <_ZNSt12_Vector_baseI10CheckpointSaIS0_EED1Ev>
);
   b5612:	aab0      	add	r2, sp, #704	; 0x2c0
   b5614:	926a      	str	r2, [sp, #424]	; 0x1a8
   b5616:	2207      	movs	r2, #7
   b5618:	926b      	str	r2, [sp, #428]	; 0x1ac
   b561a:	f50d 7ac0 	add.w	sl, sp, #384	; 0x180
   b561e:	aa6a      	add	r2, sp, #424	; 0x1a8
   b5620:	ca06      	ldmia	r2, {r1, r2}
   b5622:	4653      	mov	r3, sl
   b5624:	a88c      	add	r0, sp, #560	; 0x230
      lat = la;
   b5626:	edcd 8ab4 	vstr	s17, [sp, #720]	; 0x2d0
      lon = lo;
   b562a:	ed8d 8ab5 	vstr	s16, [sp, #724]	; 0x2d4
      lat = la;
   b562e:	edcd 8abc 	vstr	s17, [sp, #752]	; 0x2f0
      lon = lo;
   b5632:	ed8d 8abd 	vstr	s16, [sp, #756]	; 0x2f4
      lat = la;
   b5636:	edcd dab0 	vstr	s27, [sp, #704]	; 0x2c0
      lon = lo;
   b563a:	ed8d dab1 	vstr	s26, [sp, #708]	; 0x2c4
      lat = la;
   b563e:	edcd cab2 	vstr	s25, [sp, #712]	; 0x2c8
      lon = lo;
   b5642:	ed8d cab3 	vstr	s24, [sp, #716]	; 0x2cc
      lat = la;
   b5646:	edcd bab6 	vstr	s23, [sp, #728]	; 0x2d8
      lon = lo;
   b564a:	ed8d bab7 	vstr	s22, [sp, #732]	; 0x2dc
   b564e:	e05f      	b.n	b5710 <_Z41__static_initialization_and_destruction_0ii.constprop.0+0x39c>
   b5650:	200352b0 	.word	0x200352b0
   b5654:	ffff0000 	.word	0xffff0000
   b5658:	42276980 	.word	0x42276980
   b565c:	c2af431e 	.word	0xc2af431e
   b5660:	42279dcc 	.word	0x42279dcc
   b5664:	c2af4202 	.word	0xc2af4202
   b5668:	42279d95 	.word	0x42279d95
   b566c:	c2af476d 	.word	0xc2af476d
   b5670:	4227a7a9 	.word	0x4227a7a9
   b5674:	c2af4e05 	.word	0xc2af4e05
   b5678:	4227b382 	.word	0x4227b382
   b567c:	c2af4e44 	.word	0xc2af4e44
   b5680:	000be668 	.word	0x000be668
   b5684:	42278b1a 	.word	0x42278b1a
   b5688:	c2af449a 	.word	0xc2af449a
   b568c:	42278b2f 	.word	0x42278b2f
   b5690:	c2af4095 	.word	0xc2af4095
   b5694:	422781d8 	.word	0x422781d8
   b5698:	c2af4044 	.word	0xc2af4044
   b569c:	42278216 	.word	0x42278216
   b56a0:	c2af44c1 	.word	0xc2af44c1
   b56a4:	4227a49e 	.word	0x4227a49e
   b56a8:	c2af4bd0 	.word	0xc2af4bd0
   b56ac:	4227a437 	.word	0x4227a437
   b56b0:	c2af4659 	.word	0xc2af4659
   b56b4:	c2af4089 	.word	0xc2af4089
   b56b8:	000be4a0 	.word	0x000be4a0
   b56bc:	000be4a4 	.word	0x000be4a4
   b56c0:	000be4ab 	.word	0x000be4ab
   b56c4:	2003e55c 	.word	0x2003e55c
   b56c8:	42277e9d 	.word	0x42277e9d
   b56cc:	c2af74b3 	.word	0xc2af74b3
   b56d0:	422780af 	.word	0x422780af
   b56d4:	c2af588e 	.word	0xc2af588e
   b56d8:	4227804d 	.word	0x4227804d
   b56dc:	c2af482e 	.word	0xc2af482e
   b56e0:	422780ad 	.word	0x422780ad
   b56e4:	c2af4157 	.word	0xc2af4157
   b56e8:	42278aff 	.word	0x42278aff
   b56ec:	c2af4253 	.word	0xc2af4253
   b56f0:	42278af4 	.word	0x42278af4
   b56f4:	c2af4798 	.word	0xc2af4798
   b56f8:	4227a978 	.word	0x4227a978
   b56fc:	c2af5f5d 	.word	0xc2af5f5d
   b5700:	000be4b2 	.word	0x000be4b2
   b5704:	000be4b7 	.word	0x000be4b7
   b5708:	000be4be 	.word	0x000be4be
   b570c:	20035308 	.word	0x20035308
      lat = la;
   b5710:	edcd aab8 	vstr	s21, [sp, #736]	; 0x2e0
      lon = lo;
   b5714:	ed8d aab9 	vstr	s20, [sp, #740]	; 0x2e4
      lat = la;
   b5718:	edcd 9aba 	vstr	s19, [sp, #744]	; 0x2e8
      lon = lo;
   b571c:	ed8d 9abb 	vstr	s18, [sp, #748]	; 0x2ec
   b5720:	f7ff f866 	bl	b47f0 <_ZNSt6vectorI10CheckpointSaIS0_EEC1ESt16initializer_listIS0_ERKS1_>
   b5724:	4bb6      	ldr	r3, [pc, #728]	; (b5a00 <_Z41__static_initialization_and_destruction_0ii.constprop.0+0x68c>)
   b5726:	f103 0228 	add.w	r2, r3, #40	; 0x28
   b572a:	4617      	mov	r7, r2
   b572c:	cf0f      	ldmia	r7!, {r0, r1, r2, r3}
   b572e:	f50d 7c1d 	add.w	ip, sp, #628	; 0x274
   b5732:	e8ac 000f 	stmia.w	ip!, {r0, r1, r2, r3}
   b5736:	e9d7 0100 	ldrd	r0, r1, [r7]
   b573a:	9a04      	ldr	r2, [sp, #16]
   b573c:	9705      	str	r7, [sp, #20]
   b573e:	e882 0003 	stmia.w	r2, {r0, r1}
   b5742:	aa9d      	add	r2, sp, #628	; 0x274
   b5744:	9268      	str	r2, [sp, #416]	; 0x1a0
   b5746:	2206      	movs	r2, #6
   b5748:	9269      	str	r2, [sp, #420]	; 0x1a4
   b574a:	e899 0006 	ldmia.w	r9, {r1, r2}
   b574e:	4628      	mov	r0, r5
   b5750:	f7ff fca0 	bl	b5094 <_ZNSt6vectorIiSaIiEEC2ESt16initializer_listIiERKS0_.constprop.0.isra.0>
   b5754:	f107 0208 	add.w	r2, r7, #8
   b5758:	ca0f      	ldmia	r2, {r0, r1, r2, r3}
   b575a:	af93      	add	r7, sp, #588	; 0x24c
   b575c:	e887 000f 	stmia.w	r7, {r0, r1, r2, r3}
   b5760:	2104      	movs	r1, #4
   b5762:	ab66      	add	r3, sp, #408	; 0x198
   b5764:	9766      	str	r7, [sp, #408]	; 0x198
   b5766:	9167      	str	r1, [sp, #412]	; 0x19c
   b5768:	e893 0006 	ldmia.w	r3, {r1, r2}
   b576c:	4640      	mov	r0, r8
   b576e:	f7ff fc91 	bl	b5094 <_ZNSt6vectorIiSaIiEEC2ESt16initializer_listIiERKS0_.constprop.0.isra.0>
   b5772:	4658      	mov	r0, fp
   b5774:	49a3      	ldr	r1, [pc, #652]	; (b5a04 <_Z41__static_initialization_and_destruction_0ii.constprop.0+0x690>)
   b5776:	f7fe fcc7 	bl	b4108 <_ZNSt7__cxx1112basic_stringIcSt11char_traitsIcESaIcEEC2IS3_EEPKcRKS3_.constprop.0.isra.0>
   b577a:	a8a4      	add	r0, sp, #656	; 0x290
   b577c:	49a2      	ldr	r1, [pc, #648]	; (b5a08 <_Z41__static_initialization_and_destruction_0ii.constprop.0+0x694>)
   b577e:	f7fe fcc3 	bl	b4108 <_ZNSt7__cxx1112basic_stringIcSt11char_traitsIcESaIcEEC2IS3_EEPKcRKS3_.constprop.0.isra.0>
   b5782:	a8aa      	add	r0, sp, #680	; 0x2a8
   b5784:	49a1      	ldr	r1, [pc, #644]	; (b5a0c <_Z41__static_initialization_and_destruction_0ii.constprop.0+0x698>)
   b5786:	f7fe fcbf 	bl	b4108 <_ZNSt7__cxx1112basic_stringIcSt11char_traitsIcESaIcEEC2IS3_EEPKcRKS3_.constprop.0.isra.0>
   b578a:	aba4      	add	r3, sp, #656	; 0x290
   b578c:	2102      	movs	r1, #2
   b578e:	9364      	str	r3, [sp, #400]	; 0x190
   b5790:	f50d 79bc 	add.w	r9, sp, #376	; 0x178
   b5794:	9165      	str	r1, [sp, #404]	; 0x194
   b5796:	aa64      	add	r2, sp, #400	; 0x190
   b5798:	ca06      	ldmia	r2, {r1, r2}
   b579a:	464b      	mov	r3, r9
   b579c:	a883      	add	r0, sp, #524	; 0x20c
   b579e:	f7ff f85b 	bl	b4858 <_ZNSt6vectorINSt7__cxx1112basic_stringIcSt11char_traitsIcESaIcEEESaIS5_EEC1ESt16initializer_listIS5_ERKS6_>
   b57a2:	499b      	ldr	r1, [pc, #620]	; (b5a10 <_Z41__static_initialization_and_destruction_0ii.constprop.0+0x69c>)
   b57a4:	c90f      	ldmia	r1, {r0, r1, r2, r3}
   b57a6:	af8f      	add	r7, sp, #572	; 0x23c
   b57a8:	e887 000f 	stmia.w	r7, {r0, r1, r2, r3}
   b57ac:	2004      	movs	r0, #4
   b57ae:	ab62      	add	r3, sp, #392	; 0x188
   b57b0:	9762      	str	r7, [sp, #392]	; 0x188
   b57b2:	9063      	str	r0, [sp, #396]	; 0x18c
   b57b4:	e893 0006 	ldmia.w	r3, {r1, r2}
   b57b8:	4630      	mov	r0, r6
   b57ba:	f7ff fc6b 	bl	b5094 <_ZNSt6vectorIiSaIiEEC2ESt16initializer_listIiERKS0_.constprop.0.isra.0>
Railway brownLineCTA = Railway(
   b57be:	a883      	add	r0, sp, #524	; 0x20c
   b57c0:	e9cd b000 	strd	fp, r0, [sp]
   b57c4:	a88c      	add	r0, sp, #560	; 0x230
   b57c6:	4643      	mov	r3, r8
   b57c8:	462a      	mov	r2, r5
   b57ca:	4601      	mov	r1, r0
   b57cc:	9602      	str	r6, [sp, #8]
   b57ce:	4891      	ldr	r0, [pc, #580]	; (b5a14 <_Z41__static_initialization_and_destruction_0ii.constprop.0+0x6a0>)
   b57d0:	f7ff fce0 	bl	b5194 <_ZN7RailwayC1ESt6vectorI10CheckpointSaIS1_EES0_IiSaIiEES5_NSt7__cxx1112basic_stringIcSt11char_traitsIcESaIcEEES0_ISB_SaISB_EES5_>
   b57d4:	4630      	mov	r0, r6
   b57d6:	f7fe ffb5 	bl	b4744 <_ZNSt12_Vector_baseIiSaIiEED1Ev>
);
   b57da:	a883      	add	r0, sp, #524	; 0x20c
   b57dc:	f7fe ffd3 	bl	b4786 <_ZNSt6vectorINSt7__cxx1112basic_stringIcSt11char_traitsIcESaIcEEESaIS5_EED1Ev>
   b57e0:	a8aa      	add	r0, sp, #680	; 0x2a8
   b57e2:	f005 fd11 	bl	bb208 <_ZNSt7__cxx1112basic_stringIcSt11char_traitsIcESaIcEE10_M_disposeEv>
   b57e6:	a8a4      	add	r0, sp, #656	; 0x290
   b57e8:	f005 fd0e 	bl	bb208 <_ZNSt7__cxx1112basic_stringIcSt11char_traitsIcESaIcEE10_M_disposeEv>
   b57ec:	4658      	mov	r0, fp
   b57ee:	f005 fd0b 	bl	bb208 <_ZNSt7__cxx1112basic_stringIcSt11char_traitsIcESaIcEE10_M_disposeEv>
   b57f2:	4640      	mov	r0, r8
   b57f4:	f7fe ffa6 	bl	b4744 <_ZNSt12_Vector_baseIiSaIiEED1Ev>
   b57f8:	4628      	mov	r0, r5
   b57fa:	f7fe ffa3 	bl	b4744 <_ZNSt12_Vector_baseIiSaIiEED1Ev>
   b57fe:	a88c      	add	r0, sp, #560	; 0x230
   b5800:	f7fe ff8c 	bl	b471c <_ZNSt12_Vector_baseI10CheckpointSaIS0_EED1Ev>
      lat = la;
   b5804:	4b84      	ldr	r3, [pc, #528]	; (b5a18 <_Z41__static_initialization_and_destruction_0ii.constprop.0+0x6a4>)
   b5806:	93a4      	str	r3, [sp, #656]	; 0x290
      lon = lo;
   b5808:	4b84      	ldr	r3, [pc, #528]	; (b5a1c <_Z41__static_initialization_and_destruction_0ii.constprop.0+0x6a8>)
   b580a:	93a5      	str	r3, [sp, #660]	; 0x294
      lat = la;
   b580c:	4b84      	ldr	r3, [pc, #528]	; (b5a20 <_Z41__static_initialization_and_destruction_0ii.constprop.0+0x6ac>)
   b580e:	93a6      	str	r3, [sp, #664]	; 0x298
   b5810:	4b84      	ldr	r3, [pc, #528]	; (b5a24 <_Z41__static_initialization_and_destruction_0ii.constprop.0+0x6b0>)
   b5812:	93aa      	str	r3, [sp, #680]	; 0x2a8
      lon = lo;
   b5814:	4b84      	ldr	r3, [pc, #528]	; (b5a28 <_Z41__static_initialization_and_destruction_0ii.constprop.0+0x6b4>)
   b5816:	93ab      	str	r3, [sp, #684]	; 0x2ac
      lat = la;
   b5818:	4b84      	ldr	r3, [pc, #528]	; (b5a2c <_Z41__static_initialization_and_destruction_0ii.constprop.0+0x6b8>)
   b581a:	93ac      	str	r3, [sp, #688]	; 0x2b0
      lon = lo;
   b581c:	4b84      	ldr	r3, [pc, #528]	; (b5a30 <_Z41__static_initialization_and_destruction_0ii.constprop.0+0x6bc>)
   b581e:	93ad      	str	r3, [sp, #692]	; 0x2b4
);
   b5820:	2005      	movs	r0, #5
   b5822:	aba4      	add	r3, sp, #656	; 0x290
   b5824:	9360      	str	r3, [sp, #384]	; 0x180
   b5826:	9061      	str	r0, [sp, #388]	; 0x184
   b5828:	a856      	add	r0, sp, #344	; 0x158
   b582a:	e89a 0006 	ldmia.w	sl, {r1, r2}
   b582e:	4603      	mov	r3, r0
   b5830:	a88c      	add	r0, sp, #560	; 0x230
   b5832:	ed8d eaa7 	vstr	s28, [sp, #668]	; 0x29c
      lat = la;
   b5836:	edcd 9aa8 	vstr	s19, [sp, #672]	; 0x2a0
      lon = lo;
   b583a:	ed8d 9aa9 	vstr	s18, [sp, #676]	; 0x2a4
   b583e:	f7fe ffd7 	bl	b47f0 <_ZNSt6vectorI10CheckpointSaIS0_EEC1ESt16initializer_listIS0_ERKS1_>
   b5842:	4b6f      	ldr	r3, [pc, #444]	; (b5a00 <_Z41__static_initialization_and_destruction_0ii.constprop.0+0x68c>)
   b5844:	f8cd b178 	str.w	fp, [sp, #376]	; 0x178
   b5848:	461f      	mov	r7, r3
   b584a:	3360      	adds	r3, #96	; 0x60
   b584c:	cb0f      	ldmia	r3, {r0, r1, r2, r3}
   b584e:	e88b 000f 	stmia.w	fp, {r0, r1, r2, r3}
   b5852:	2004      	movs	r0, #4
   b5854:	905f      	str	r0, [sp, #380]	; 0x17c
   b5856:	e899 0006 	ldmia.w	r9, {r1, r2}
   b585a:	4628      	mov	r0, r5
   b585c:	f7ff fc1a 	bl	b5094 <_ZNSt6vectorIiSaIiEEC2ESt16initializer_listIiERKS0_.constprop.0.isra.0>
   b5860:	463b      	mov	r3, r7
   b5862:	3370      	adds	r3, #112	; 0x70
   b5864:	cb0f      	ldmia	r3, {r0, r1, r2, r3}
   b5866:	af93      	add	r7, sp, #588	; 0x24c
   b5868:	e887 000f 	stmia.w	r7, {r0, r1, r2, r3}
   b586c:	2004      	movs	r0, #4
   b586e:	ab5c      	add	r3, sp, #368	; 0x170
   b5870:	975c      	str	r7, [sp, #368]	; 0x170
   b5872:	905d      	str	r0, [sp, #372]	; 0x174
   b5874:	e893 0006 	ldmia.w	r3, {r1, r2}
   b5878:	4640      	mov	r0, r8
   b587a:	f7ff fc0b 	bl	b5094 <_ZNSt6vectorIiSaIiEEC2ESt16initializer_listIiERKS0_.constprop.0.isra.0>
   b587e:	a89d      	add	r0, sp, #628	; 0x274
   b5880:	496c      	ldr	r1, [pc, #432]	; (b5a34 <_Z41__static_initialization_and_destruction_0ii.constprop.0+0x6c0>)
   b5882:	f7fe fc41 	bl	b4108 <_ZNSt7__cxx1112basic_stringIcSt11char_traitsIcESaIcEEC2IS3_EEPKcRKS3_.constprop.0.isra.0>
   b5886:	a8b0      	add	r0, sp, #704	; 0x2c0
   b5888:	496b      	ldr	r1, [pc, #428]	; (b5a38 <_Z41__static_initialization_and_destruction_0ii.constprop.0+0x6c4>)
   b588a:	f7fe fc3d 	bl	b4108 <_ZNSt7__cxx1112basic_stringIcSt11char_traitsIcESaIcEEC2IS3_EEPKcRKS3_.constprop.0.isra.0>
   b588e:	a8b6      	add	r0, sp, #728	; 0x2d8
   b5890:	496a      	ldr	r1, [pc, #424]	; (b5a3c <_Z41__static_initialization_and_destruction_0ii.constprop.0+0x6c8>)
   b5892:	f7fe fc39 	bl	b4108 <_ZNSt7__cxx1112basic_stringIcSt11char_traitsIcESaIcEEC2IS3_EEPKcRKS3_.constprop.0.isra.0>
   b5896:	a8b0      	add	r0, sp, #704	; 0x2c0
   b5898:	905a      	str	r0, [sp, #360]	; 0x168
   b589a:	2002      	movs	r0, #2
   b589c:	905b      	str	r0, [sp, #364]	; 0x16c
   b589e:	f50d 79a8 	add.w	r9, sp, #336	; 0x150
   b58a2:	aa5a      	add	r2, sp, #360	; 0x168
   b58a4:	464b      	mov	r3, r9
   b58a6:	ca06      	ldmia	r2, {r1, r2}
   b58a8:	a883      	add	r0, sp, #524	; 0x20c
   b58aa:	f7fe ffd5 	bl	b4858 <_ZNSt6vectorINSt7__cxx1112basic_stringIcSt11char_traitsIcESaIcEEESaIS5_EEC1ESt16initializer_listIS5_ERKS6_>
   b58ae:	4b54      	ldr	r3, [pc, #336]	; (b5a00 <_Z41__static_initialization_and_destruction_0ii.constprop.0+0x68c>)
   b58b0:	3380      	adds	r3, #128	; 0x80
   b58b2:	cb0f      	ldmia	r3, {r0, r1, r2, r3}
   b58b4:	af8f      	add	r7, sp, #572	; 0x23c
   b58b6:	e887 000f 	stmia.w	r7, {r0, r1, r2, r3}
   b58ba:	2004      	movs	r0, #4
   b58bc:	ab58      	add	r3, sp, #352	; 0x160
   b58be:	9758      	str	r7, [sp, #352]	; 0x160
   b58c0:	9059      	str	r0, [sp, #356]	; 0x164
   b58c2:	e893 0006 	ldmia.w	r3, {r1, r2}
   b58c6:	4630      	mov	r0, r6
   b58c8:	f7ff fbe4 	bl	b5094 <_ZNSt6vectorIiSaIiEEC2ESt16initializer_listIiERKS0_.constprop.0.isra.0>
Railway greenLineCTA = Railway(
   b58cc:	a883      	add	r0, sp, #524	; 0x20c
   b58ce:	9001      	str	r0, [sp, #4]
   b58d0:	a89d      	add	r0, sp, #628	; 0x274
   b58d2:	9000      	str	r0, [sp, #0]
   b58d4:	a88c      	add	r0, sp, #560	; 0x230
   b58d6:	4643      	mov	r3, r8
   b58d8:	462a      	mov	r2, r5
   b58da:	4601      	mov	r1, r0
   b58dc:	9602      	str	r6, [sp, #8]
   b58de:	4858      	ldr	r0, [pc, #352]	; (b5a40 <_Z41__static_initialization_and_destruction_0ii.constprop.0+0x6cc>)
   b58e0:	f7ff fc58 	bl	b5194 <_ZN7RailwayC1ESt6vectorI10CheckpointSaIS1_EES0_IiSaIiEES5_NSt7__cxx1112basic_stringIcSt11char_traitsIcESaIcEEES0_ISB_SaISB_EES5_>
   b58e4:	4630      	mov	r0, r6
   b58e6:	f7fe ff2d 	bl	b4744 <_ZNSt12_Vector_baseIiSaIiEED1Ev>
);
   b58ea:	a883      	add	r0, sp, #524	; 0x20c
   b58ec:	f7fe ff4b 	bl	b4786 <_ZNSt6vectorINSt7__cxx1112basic_stringIcSt11char_traitsIcESaIcEEESaIS5_EED1Ev>
   b58f0:	a8b6      	add	r0, sp, #728	; 0x2d8
   b58f2:	f005 fc89 	bl	bb208 <_ZNSt7__cxx1112basic_stringIcSt11char_traitsIcESaIcEE10_M_disposeEv>
   b58f6:	a8b0      	add	r0, sp, #704	; 0x2c0
   b58f8:	f005 fc86 	bl	bb208 <_ZNSt7__cxx1112basic_stringIcSt11char_traitsIcESaIcEE10_M_disposeEv>
   b58fc:	a89d      	add	r0, sp, #628	; 0x274
   b58fe:	f005 fc83 	bl	bb208 <_ZNSt7__cxx1112basic_stringIcSt11char_traitsIcESaIcEE10_M_disposeEv>
   b5902:	4640      	mov	r0, r8
   b5904:	f7fe ff1e 	bl	b4744 <_ZNSt12_Vector_baseIiSaIiEED1Ev>
   b5908:	4628      	mov	r0, r5
   b590a:	f7fe ff1b 	bl	b4744 <_ZNSt12_Vector_baseIiSaIiEED1Ev>
   b590e:	a88c      	add	r0, sp, #560	; 0x230
   b5910:	f7fe ff04 	bl	b471c <_ZNSt12_Vector_baseI10CheckpointSaIS0_EED1Ev>
      lat = la;
   b5914:	4b4b      	ldr	r3, [pc, #300]	; (b5a44 <_Z41__static_initialization_and_destruction_0ii.constprop.0+0x6d0>)
   b5916:	93b0      	str	r3, [sp, #704]	; 0x2c0
      lon = lo;
   b5918:	4b4b      	ldr	r3, [pc, #300]	; (b5a48 <_Z41__static_initialization_and_destruction_0ii.constprop.0+0x6d4>)
   b591a:	93b1      	str	r3, [sp, #708]	; 0x2c4
      lat = la;
   b591c:	4b4b      	ldr	r3, [pc, #300]	; (b5a4c <_Z41__static_initialization_and_destruction_0ii.constprop.0+0x6d8>)
   b591e:	93b2      	str	r3, [sp, #712]	; 0x2c8
      lon = lo;
   b5920:	4b4b      	ldr	r3, [pc, #300]	; (b5a50 <_Z41__static_initialization_and_destruction_0ii.constprop.0+0x6dc>)
   b5922:	93b3      	str	r3, [sp, #716]	; 0x2cc
      lat = la;
   b5924:	4b4b      	ldr	r3, [pc, #300]	; (b5a54 <_Z41__static_initialization_and_destruction_0ii.constprop.0+0x6e0>)
   b5926:	93b4      	str	r3, [sp, #720]	; 0x2d0
      lon = lo;
   b5928:	4b4b      	ldr	r3, [pc, #300]	; (b5a58 <_Z41__static_initialization_and_destruction_0ii.constprop.0+0x6e4>)
   b592a:	93b5      	str	r3, [sp, #724]	; 0x2d4
);
   b592c:	a8b0      	add	r0, sp, #704	; 0x2c0
      lat = la;
   b592e:	4b4b      	ldr	r3, [pc, #300]	; (b5a5c <_Z41__static_initialization_and_destruction_0ii.constprop.0+0x6e8>)
   b5930:	9056      	str	r0, [sp, #344]	; 0x158
   b5932:	93b6      	str	r3, [sp, #728]	; 0x2d8
   b5934:	2008      	movs	r0, #8
   b5936:	4b4a      	ldr	r3, [pc, #296]	; (b5a60 <_Z41__static_initialization_and_destruction_0ii.constprop.0+0x6ec>)
   b5938:	9057      	str	r0, [sp, #348]	; 0x15c
   b593a:	f50d 7a98 	add.w	sl, sp, #304	; 0x130
   b593e:	93bc      	str	r3, [sp, #752]	; 0x2f0
   b5940:	a856      	add	r0, sp, #344	; 0x158
      lon = lo;
   b5942:	4b48      	ldr	r3, [pc, #288]	; (b5a64 <_Z41__static_initialization_and_destruction_0ii.constprop.0+0x6f0>)
   b5944:	93bd      	str	r3, [sp, #756]	; 0x2f4
   b5946:	e890 0006 	ldmia.w	r0, {r1, r2}
   b594a:	4653      	mov	r3, sl
   b594c:	a88c      	add	r0, sp, #560	; 0x230
      lat = la;
   b594e:	edcd 8aba 	vstr	s17, [sp, #744]	; 0x2e8
      lon = lo;
   b5952:	ed8d 8abb 	vstr	s16, [sp, #748]	; 0x2ec
   b5956:	ed8d eab7 	vstr	s28, [sp, #732]	; 0x2dc
      lat = la;
   b595a:	edcd 9ab8 	vstr	s19, [sp, #736]	; 0x2e0
      lon = lo;
   b595e:	ed8d 9ab9 	vstr	s18, [sp, #740]	; 0x2e4
      lat = la;
   b5962:	edcd aabe 	vstr	s21, [sp, #760]	; 0x2f8
      lon = lo;
   b5966:	ed8d aabf 	vstr	s20, [sp, #764]	; 0x2fc
   b596a:	f7fe ff41 	bl	b47f0 <_ZNSt6vectorI10CheckpointSaIS0_EEC1ESt16initializer_listIS0_ERKS1_>
   b596e:	4b24      	ldr	r3, [pc, #144]	; (b5a00 <_Z41__static_initialization_and_destruction_0ii.constprop.0+0x68c>)
   b5970:	9f04      	ldr	r7, [sp, #16]
   b5972:	f103 0c90 	add.w	ip, r3, #144	; 0x90
   b5976:	e8bc 000f 	ldmia.w	ip!, {r0, r1, r2, r3}
   b597a:	f50d 7e1d 	add.w	lr, sp, #628	; 0x274
   b597e:	e8ae 000f 	stmia.w	lr!, {r0, r1, r2, r3}
   b5982:	e89c 0007 	ldmia.w	ip, {r0, r1, r2}
   b5986:	e887 0007 	stmia.w	r7, {r0, r1, r2}
   b598a:	a89d      	add	r0, sp, #628	; 0x274
   b598c:	9054      	str	r0, [sp, #336]	; 0x150
   b598e:	2007      	movs	r0, #7
   b5990:	9055      	str	r0, [sp, #340]	; 0x154
   b5992:	e899 0006 	ldmia.w	r9, {r1, r2}
   b5996:	4628      	mov	r0, r5
   b5998:	f7ff fb7c 	bl	b5094 <_ZNSt6vectorIiSaIiEEC2ESt16initializer_listIiERKS0_.constprop.0.isra.0>
   b599c:	4b18      	ldr	r3, [pc, #96]	; (b5a00 <_Z41__static_initialization_and_destruction_0ii.constprop.0+0x68c>)
   b599e:	33ac      	adds	r3, #172	; 0xac
   b59a0:	cb0f      	ldmia	r3, {r0, r1, r2, r3}
   b59a2:	af93      	add	r7, sp, #588	; 0x24c
   b59a4:	e887 000f 	stmia.w	r7, {r0, r1, r2, r3}
   b59a8:	2004      	movs	r0, #4
   b59aa:	ab52      	add	r3, sp, #328	; 0x148
   b59ac:	9752      	str	r7, [sp, #328]	; 0x148
   b59ae:	9053      	str	r0, [sp, #332]	; 0x14c
   b59b0:	e893 0006 	ldmia.w	r3, {r1, r2}
   b59b4:	4640      	mov	r0, r8
   b59b6:	f7ff fb6d 	bl	b5094 <_ZNSt6vectorIiSaIiEEC2ESt16initializer_listIiERKS0_.constprop.0.isra.0>
   b59ba:	4658      	mov	r0, fp
   b59bc:	492a      	ldr	r1, [pc, #168]	; (b5a68 <_Z41__static_initialization_and_destruction_0ii.constprop.0+0x6f4>)
   b59be:	f7fe fba3 	bl	b4108 <_ZNSt7__cxx1112basic_stringIcSt11char_traitsIcESaIcEEC2IS3_EEPKcRKS3_.constprop.0.isra.0>
   b59c2:	a8a4      	add	r0, sp, #656	; 0x290
   b59c4:	4929      	ldr	r1, [pc, #164]	; (b5a6c <_Z41__static_initialization_and_destruction_0ii.constprop.0+0x6f8>)
   b59c6:	f7fe fb9f 	bl	b4108 <_ZNSt7__cxx1112basic_stringIcSt11char_traitsIcESaIcEEC2IS3_EEPKcRKS3_.constprop.0.isra.0>
   b59ca:	a8aa      	add	r0, sp, #680	; 0x2a8
   b59cc:	4928      	ldr	r1, [pc, #160]	; (b5a70 <_Z41__static_initialization_and_destruction_0ii.constprop.0+0x6fc>)
   b59ce:	f7fe fb9b 	bl	b4108 <_ZNSt7__cxx1112basic_stringIcSt11char_traitsIcESaIcEEC2IS3_EEPKcRKS3_.constprop.0.isra.0>
   b59d2:	aba4      	add	r3, sp, #656	; 0x290
   b59d4:	2002      	movs	r0, #2
   b59d6:	9350      	str	r3, [sp, #320]	; 0x140
   b59d8:	9051      	str	r0, [sp, #324]	; 0x144
   b59da:	f50d 7994 	add.w	r9, sp, #296	; 0x128
   b59de:	aa50      	add	r2, sp, #320	; 0x140
   b59e0:	464b      	mov	r3, r9
   b59e2:	ca06      	ldmia	r2, {r1, r2}
   b59e4:	a883      	add	r0, sp, #524	; 0x20c
   b59e6:	f7fe ff37 	bl	b4858 <_ZNSt6vectorINSt7__cxx1112basic_stringIcSt11char_traitsIcESaIcEEESaIS5_EEC1ESt16initializer_listIS5_ERKS6_>
   b59ea:	4b05      	ldr	r3, [pc, #20]	; (b5a00 <_Z41__static_initialization_and_destruction_0ii.constprop.0+0x68c>)
   b59ec:	33bc      	adds	r3, #188	; 0xbc
   b59ee:	cb0f      	ldmia	r3, {r0, r1, r2, r3}
   b59f0:	af8f      	add	r7, sp, #572	; 0x23c
   b59f2:	e887 000f 	stmia.w	r7, {r0, r1, r2, r3}
   b59f6:	2004      	movs	r0, #4
   b59f8:	ab4e      	add	r3, sp, #312	; 0x138
   b59fa:	974e      	str	r7, [sp, #312]	; 0x138
   b59fc:	e03a      	b.n	b5a74 <_Z41__static_initialization_and_destruction_0ii.constprop.0+0x700>
   b59fe:	bf00      	nop
   b5a00:	000be668 	.word	0x000be668
   b5a04:	000be4c5 	.word	0x000be4c5
   b5a08:	000be4cb 	.word	0x000be4cb
   b5a0c:	000be4d2 	.word	0x000be4d2
   b5a10:	000be6b8 	.word	0x000be6b8
   b5a14:	200353e0 	.word	0x200353e0
   b5a18:	42276997 	.word	0x42276997
   b5a1c:	c2af40b8 	.word	0xc2af40b8
   b5a20:	422781fe 	.word	0x422781fe
   b5a24:	42278afb 	.word	0x42278afb
   b5a28:	c2af4494 	.word	0xc2af4494
   b5a2c:	42278971 	.word	0x42278971
   b5a30:	c2af6479 	.word	0xc2af6479
   b5a34:	000be43b 	.word	0x000be43b
   b5a38:	000be4d9 	.word	0x000be4d9
   b5a3c:	000be4e0 	.word	0x000be4e0
   b5a40:	20035544 	.word	0x20035544
   b5a44:	4227631a 	.word	0x4227631a
   b5a48:	c2af4bd2 	.word	0xc2af4bd2
   b5a4c:	42276ec4 	.word	0x42276ec4
   b5a50:	c2af4115 	.word	0xc2af4115
   b5a54:	422780b5 	.word	0x422780b5
   b5a58:	c2af4086 	.word	0xc2af4086
   b5a5c:	42278200 	.word	0x42278200
   b5a60:	422781e1 	.word	0x422781e1
   b5a64:	c2af4476 	.word	0xc2af4476
   b5a68:	000be4e7 	.word	0x000be4e7
   b5a6c:	000be4ee 	.word	0x000be4ee
   b5a70:	000be4f5 	.word	0x000be4f5
   b5a74:	904f      	str	r0, [sp, #316]	; 0x13c
   b5a76:	e893 0006 	ldmia.w	r3, {r1, r2}
   b5a7a:	4630      	mov	r0, r6
   b5a7c:	f7ff fb0a 	bl	b5094 <_ZNSt6vectorIiSaIiEEC2ESt16initializer_listIiERKS0_.constprop.0.isra.0>
Railway orangeLineCTA = Railway(
   b5a80:	a883      	add	r0, sp, #524	; 0x20c
   b5a82:	e9cd b000 	strd	fp, r0, [sp]
   b5a86:	a88c      	add	r0, sp, #560	; 0x230
   b5a88:	4643      	mov	r3, r8
   b5a8a:	462a      	mov	r2, r5
   b5a8c:	4601      	mov	r1, r0
   b5a8e:	9602      	str	r6, [sp, #8]
   b5a90:	48ba      	ldr	r0, [pc, #744]	; (b5d7c <_Z41__static_initialization_and_destruction_0ii.constprop.0+0xa08>)
   b5a92:	f7ff fb7f 	bl	b5194 <_ZN7RailwayC1ESt6vectorI10CheckpointSaIS1_EES0_IiSaIiEES5_NSt7__cxx1112basic_stringIcSt11char_traitsIcESaIcEEES0_ISB_SaISB_EES5_>
   b5a96:	4630      	mov	r0, r6
   b5a98:	f7fe fe54 	bl	b4744 <_ZNSt12_Vector_baseIiSaIiEED1Ev>
);
   b5a9c:	a883      	add	r0, sp, #524	; 0x20c
   b5a9e:	f7fe fe72 	bl	b4786 <_ZNSt6vectorINSt7__cxx1112basic_stringIcSt11char_traitsIcESaIcEEESaIS5_EED1Ev>
   b5aa2:	a8aa      	add	r0, sp, #680	; 0x2a8
   b5aa4:	f005 fbb0 	bl	bb208 <_ZNSt7__cxx1112basic_stringIcSt11char_traitsIcESaIcEE10_M_disposeEv>
   b5aa8:	a8a4      	add	r0, sp, #656	; 0x290
   b5aaa:	f005 fbad 	bl	bb208 <_ZNSt7__cxx1112basic_stringIcSt11char_traitsIcESaIcEE10_M_disposeEv>
   b5aae:	4658      	mov	r0, fp
   b5ab0:	f005 fbaa 	bl	bb208 <_ZNSt7__cxx1112basic_stringIcSt11char_traitsIcESaIcEE10_M_disposeEv>
   b5ab4:	4640      	mov	r0, r8
   b5ab6:	f7fe fe45 	bl	b4744 <_ZNSt12_Vector_baseIiSaIiEED1Ev>
   b5aba:	4628      	mov	r0, r5
   b5abc:	f7fe fe42 	bl	b4744 <_ZNSt12_Vector_baseIiSaIiEED1Ev>
   b5ac0:	a88c      	add	r0, sp, #560	; 0x230
   b5ac2:	f7fe fe2b 	bl	b471c <_ZNSt12_Vector_baseI10CheckpointSaIS0_EED1Ev>
);
   b5ac6:	a8b0      	add	r0, sp, #704	; 0x2c0
   b5ac8:	904c      	str	r0, [sp, #304]	; 0x130
   b5aca:	2007      	movs	r0, #7
   b5acc:	904d      	str	r0, [sp, #308]	; 0x134
   b5ace:	a842      	add	r0, sp, #264	; 0x108
   b5ad0:	e89a 0006 	ldmia.w	sl, {r1, r2}
   b5ad4:	4603      	mov	r3, r0
   b5ad6:	a88c      	add	r0, sp, #560	; 0x230
      lat = la;
   b5ad8:	edcd 8ab4 	vstr	s17, [sp, #720]	; 0x2d0
      lon = lo;
   b5adc:	ed8d 8ab5 	vstr	s16, [sp, #724]	; 0x2d4
      lat = la;
   b5ae0:	edcd 8abc 	vstr	s17, [sp, #752]	; 0x2f0
      lon = lo;
   b5ae4:	ed8d 8abd 	vstr	s16, [sp, #756]	; 0x2f4
      lat = la;
   b5ae8:	edcd dab0 	vstr	s27, [sp, #704]	; 0x2c0
      lon = lo;
   b5aec:	ed8d dab1 	vstr	s26, [sp, #708]	; 0x2c4
      lat = la;
   b5af0:	edcd cab2 	vstr	s25, [sp, #712]	; 0x2c8
      lon = lo;
   b5af4:	ed8d cab3 	vstr	s24, [sp, #716]	; 0x2cc
      lat = la;
   b5af8:	edcd bab6 	vstr	s23, [sp, #728]	; 0x2d8
      lon = lo;
   b5afc:	ed8d bab7 	vstr	s22, [sp, #732]	; 0x2dc
      lat = la;
   b5b00:	edcd aab8 	vstr	s21, [sp, #736]	; 0x2e0
      lon = lo;
   b5b04:	ed8d aab9 	vstr	s20, [sp, #740]	; 0x2e4
      lat = la;
   b5b08:	edcd 9aba 	vstr	s19, [sp, #744]	; 0x2e8
      lon = lo;
   b5b0c:	ed8d 9abb 	vstr	s18, [sp, #748]	; 0x2ec
   b5b10:	f7fe fe6e 	bl	b47f0 <_ZNSt6vectorI10CheckpointSaIS0_EEC1ESt16initializer_listIS0_ERKS1_>
   b5b14:	4a9a      	ldr	r2, [pc, #616]	; (b5d80 <_Z41__static_initialization_and_destruction_0ii.constprop.0+0xa0c>)
   b5b16:	9f04      	ldr	r7, [sp, #16]
   b5b18:	f1a2 0e18 	sub.w	lr, r2, #24
   b5b1c:	e8be 000f 	ldmia.w	lr!, {r0, r1, r2, r3}
   b5b20:	f50d 7c1d 	add.w	ip, sp, #628	; 0x274
   b5b24:	e8ac 000f 	stmia.w	ip!, {r0, r1, r2, r3}
   b5b28:	9805      	ldr	r0, [sp, #20]
   b5b2a:	c803      	ldmia	r0, {r0, r1}
   b5b2c:	e887 0003 	stmia.w	r7, {r0, r1}
   b5b30:	a89d      	add	r0, sp, #628	; 0x274
   b5b32:	904a      	str	r0, [sp, #296]	; 0x128
   b5b34:	2006      	movs	r0, #6
   b5b36:	904b      	str	r0, [sp, #300]	; 0x12c
   b5b38:	e899 0006 	ldmia.w	r9, {r1, r2}
   b5b3c:	4628      	mov	r0, r5
   b5b3e:	f7ff faa9 	bl	b5094 <_ZNSt6vectorIiSaIiEEC2ESt16initializer_listIiERKS0_.constprop.0.isra.0>
   b5b42:	4a8f      	ldr	r2, [pc, #572]	; (b5d80 <_Z41__static_initialization_and_destruction_0ii.constprop.0+0xa0c>)
   b5b44:	ca0f      	ldmia	r2, {r0, r1, r2, r3}
   b5b46:	af93      	add	r7, sp, #588	; 0x24c
   b5b48:	e887 000f 	stmia.w	r7, {r0, r1, r2, r3}
   b5b4c:	2204      	movs	r2, #4
   b5b4e:	ab48      	add	r3, sp, #288	; 0x120
   b5b50:	9748      	str	r7, [sp, #288]	; 0x120
   b5b52:	9249      	str	r2, [sp, #292]	; 0x124
   b5b54:	e893 0006 	ldmia.w	r3, {r1, r2}
   b5b58:	4640      	mov	r0, r8
   b5b5a:	f7ff fa9b 	bl	b5094 <_ZNSt6vectorIiSaIiEEC2ESt16initializer_listIiERKS0_.constprop.0.isra.0>
   b5b5e:	4658      	mov	r0, fp
   b5b60:	4988      	ldr	r1, [pc, #544]	; (b5d84 <_Z41__static_initialization_and_destruction_0ii.constprop.0+0xa10>)
   b5b62:	f7fe fad1 	bl	b4108 <_ZNSt7__cxx1112basic_stringIcSt11char_traitsIcESaIcEEC2IS3_EEPKcRKS3_.constprop.0.isra.0>
   b5b66:	a8a4      	add	r0, sp, #656	; 0x290
   b5b68:	4987      	ldr	r1, [pc, #540]	; (b5d88 <_Z41__static_initialization_and_destruction_0ii.constprop.0+0xa14>)
   b5b6a:	f7fe facd 	bl	b4108 <_ZNSt7__cxx1112basic_stringIcSt11char_traitsIcESaIcEEC2IS3_EEPKcRKS3_.constprop.0.isra.0>
   b5b6e:	a8aa      	add	r0, sp, #680	; 0x2a8
   b5b70:	4986      	ldr	r1, [pc, #536]	; (b5d8c <_Z41__static_initialization_and_destruction_0ii.constprop.0+0xa18>)
   b5b72:	f7fe fac9 	bl	b4108 <_ZNSt7__cxx1112basic_stringIcSt11char_traitsIcESaIcEEC2IS3_EEPKcRKS3_.constprop.0.isra.0>
   b5b76:	aba4      	add	r3, sp, #656	; 0x290
   b5b78:	2002      	movs	r0, #2
   b5b7a:	9346      	str	r3, [sp, #280]	; 0x118
   b5b7c:	9047      	str	r0, [sp, #284]	; 0x11c
   b5b7e:	f50d 7980 	add.w	r9, sp, #256	; 0x100
   b5b82:	aa46      	add	r2, sp, #280	; 0x118
   b5b84:	ca06      	ldmia	r2, {r1, r2}
   b5b86:	464b      	mov	r3, r9
   b5b88:	a883      	add	r0, sp, #524	; 0x20c
   b5b8a:	f7fe fe65 	bl	b4858 <_ZNSt6vectorINSt7__cxx1112basic_stringIcSt11char_traitsIcESaIcEEESaIS5_EEC1ESt16initializer_listIS5_ERKS6_>
   b5b8e:	4980      	ldr	r1, [pc, #512]	; (b5d90 <_Z41__static_initialization_and_destruction_0ii.constprop.0+0xa1c>)
   b5b90:	c90f      	ldmia	r1, {r0, r1, r2, r3}
   b5b92:	af8f      	add	r7, sp, #572	; 0x23c
   b5b94:	e887 000f 	stmia.w	r7, {r0, r1, r2, r3}
   b5b98:	2204      	movs	r2, #4
   b5b9a:	ab44      	add	r3, sp, #272	; 0x110
   b5b9c:	9744      	str	r7, [sp, #272]	; 0x110
   b5b9e:	9245      	str	r2, [sp, #276]	; 0x114
   b5ba0:	e893 0006 	ldmia.w	r3, {r1, r2}
   b5ba4:	4630      	mov	r0, r6
   b5ba6:	f7ff fa75 	bl	b5094 <_ZNSt6vectorIiSaIiEEC2ESt16initializer_listIiERKS0_.constprop.0.isra.0>
Railway purpleLineCTA = Railway(
   b5baa:	aa83      	add	r2, sp, #524	; 0x20c
   b5bac:	4643      	mov	r3, r8
   b5bae:	a98c      	add	r1, sp, #560	; 0x230
   b5bb0:	e9cd b200 	strd	fp, r2, [sp]
   b5bb4:	9602      	str	r6, [sp, #8]
   b5bb6:	462a      	mov	r2, r5
   b5bb8:	4876      	ldr	r0, [pc, #472]	; (b5d94 <_Z41__static_initialization_and_destruction_0ii.constprop.0+0xa20>)
   b5bba:	f7ff faeb 	bl	b5194 <_ZN7RailwayC1ESt6vectorI10CheckpointSaIS1_EES0_IiSaIiEES5_NSt7__cxx1112basic_stringIcSt11char_traitsIcESaIcEEES0_ISB_SaISB_EES5_>
   b5bbe:	4630      	mov	r0, r6
   b5bc0:	f7fe fdc0 	bl	b4744 <_ZNSt12_Vector_baseIiSaIiEED1Ev>
);
   b5bc4:	a883      	add	r0, sp, #524	; 0x20c
   b5bc6:	f7fe fdde 	bl	b4786 <_ZNSt6vectorINSt7__cxx1112basic_stringIcSt11char_traitsIcESaIcEEESaIS5_EED1Ev>
   b5bca:	a8aa      	add	r0, sp, #680	; 0x2a8
   b5bcc:	f005 fb1c 	bl	bb208 <_ZNSt7__cxx1112basic_stringIcSt11char_traitsIcESaIcEE10_M_disposeEv>
   b5bd0:	a8a4      	add	r0, sp, #656	; 0x290
   b5bd2:	f005 fb19 	bl	bb208 <_ZNSt7__cxx1112basic_stringIcSt11char_traitsIcESaIcEE10_M_disposeEv>
   b5bd6:	4658      	mov	r0, fp
   b5bd8:	f005 fb16 	bl	bb208 <_ZNSt7__cxx1112basic_stringIcSt11char_traitsIcESaIcEE10_M_disposeEv>
   b5bdc:	4640      	mov	r0, r8
   b5bde:	f7fe fdb1 	bl	b4744 <_ZNSt12_Vector_baseIiSaIiEED1Ev>
   b5be2:	4628      	mov	r0, r5
   b5be4:	f7fe fdae 	bl	b4744 <_ZNSt12_Vector_baseIiSaIiEED1Ev>
   b5be8:	a88c      	add	r0, sp, #560	; 0x230
   b5bea:	f7fe fd97 	bl	b471c <_ZNSt12_Vector_baseI10CheckpointSaIS0_EED1Ev>
      lat = la;
   b5bee:	4b6a      	ldr	r3, [pc, #424]	; (b5d98 <_Z41__static_initialization_and_destruction_0ii.constprop.0+0xa24>)
   b5bf0:	93b0      	str	r3, [sp, #704]	; 0x2c0
      lon = lo;
   b5bf2:	4b6a      	ldr	r3, [pc, #424]	; (b5d9c <_Z41__static_initialization_and_destruction_0ii.constprop.0+0xa28>)
   b5bf4:	93b1      	str	r3, [sp, #708]	; 0x2c4
      lat = la;
   b5bf6:	4b6a      	ldr	r3, [pc, #424]	; (b5da0 <_Z41__static_initialization_and_destruction_0ii.constprop.0+0xa2c>)
   b5bf8:	93b2      	str	r3, [sp, #712]	; 0x2c8
);
   b5bfa:	aab0      	add	r2, sp, #704	; 0x2c0
      lon = lo;
   b5bfc:	4b69      	ldr	r3, [pc, #420]	; (b5da4 <_Z41__static_initialization_and_destruction_0ii.constprop.0+0xa30>)
   b5bfe:	9242      	str	r2, [sp, #264]	; 0x108
   b5c00:	93b3      	str	r3, [sp, #716]	; 0x2cc
   b5c02:	2208      	movs	r2, #8
      lat = la;
   b5c04:	4b68      	ldr	r3, [pc, #416]	; (b5da8 <_Z41__static_initialization_and_destruction_0ii.constprop.0+0xa34>)
   b5c06:	9243      	str	r2, [sp, #268]	; 0x10c
   b5c08:	f10d 0ae0 	add.w	sl, sp, #224	; 0xe0
   b5c0c:	93b4      	str	r3, [sp, #720]	; 0x2d0
   b5c0e:	aa42      	add	r2, sp, #264	; 0x108
      lon = lo;
   b5c10:	4b66      	ldr	r3, [pc, #408]	; (b5dac <_Z41__static_initialization_and_destruction_0ii.constprop.0+0xa38>)
   b5c12:	93b5      	str	r3, [sp, #724]	; 0x2d4
   b5c14:	ca06      	ldmia	r2, {r1, r2}
   b5c16:	4653      	mov	r3, sl
   b5c18:	a88c      	add	r0, sp, #560	; 0x230
      lat = la;
   b5c1a:	edcd 8ab6 	vstr	s17, [sp, #728]	; 0x2d8
      lon = lo;
   b5c1e:	ed8d 8ab7 	vstr	s16, [sp, #732]	; 0x2dc
      lat = la;
   b5c22:	edcd 8abe 	vstr	s17, [sp, #760]	; 0x2f8
      lon = lo;
   b5c26:	ed8d 8abf 	vstr	s16, [sp, #764]	; 0x2fc
      lat = la;
   b5c2a:	edcd 9ab8 	vstr	s19, [sp, #736]	; 0x2e0
      lon = lo;
   b5c2e:	ed8d 9ab9 	vstr	s18, [sp, #740]	; 0x2e4
      lat = la;
   b5c32:	edcd aaba 	vstr	s21, [sp, #744]	; 0x2e8
      lon = lo;
   b5c36:	ed8d aabb 	vstr	s20, [sp, #748]	; 0x2ec
      lat = la;
   b5c3a:	edcd babc 	vstr	s23, [sp, #752]	; 0x2f0
      lon = lo;
   b5c3e:	ed8d babd 	vstr	s22, [sp, #756]	; 0x2f4
   b5c42:	f7fe fdd5 	bl	b47f0 <_ZNSt6vectorI10CheckpointSaIS0_EEC1ESt16initializer_listIS0_ERKS1_>
   b5c46:	4b5a      	ldr	r3, [pc, #360]	; (b5db0 <_Z41__static_initialization_and_destruction_0ii.constprop.0+0xa3c>)
   b5c48:	9f04      	ldr	r7, [sp, #16]
      lat = la;
   b5c4a:	eddf 8a5a 	vldr	s17, [pc, #360]	; b5db4 <_Z41__static_initialization_and_destruction_0ii.constprop.0+0xa40>
      lon = lo;
   b5c4e:	ed9f 8a5a 	vldr	s16, [pc, #360]	; b5db8 <_Z41__static_initialization_and_destruction_0ii.constprop.0+0xa44>
   b5c52:	f103 0ccc 	add.w	ip, r3, #204	; 0xcc
   b5c56:	e8bc 000f 	ldmia.w	ip!, {r0, r1, r2, r3}
   b5c5a:	f50d 7e1d 	add.w	lr, sp, #628	; 0x274
   b5c5e:	e8ae 000f 	stmia.w	lr!, {r0, r1, r2, r3}
   b5c62:	e89c 0007 	ldmia.w	ip, {r0, r1, r2}
   b5c66:	e887 0007 	stmia.w	r7, {r0, r1, r2}
   b5c6a:	aa9d      	add	r2, sp, #628	; 0x274
   b5c6c:	9240      	str	r2, [sp, #256]	; 0x100
   b5c6e:	2207      	movs	r2, #7
   b5c70:	9241      	str	r2, [sp, #260]	; 0x104
   b5c72:	e899 0006 	ldmia.w	r9, {r1, r2}
   b5c76:	4628      	mov	r0, r5
   b5c78:	f7ff fa0c 	bl	b5094 <_ZNSt6vectorIiSaIiEEC2ESt16initializer_listIiERKS0_.constprop.0.isra.0>
   b5c7c:	4b4c      	ldr	r3, [pc, #304]	; (b5db0 <_Z41__static_initialization_and_destruction_0ii.constprop.0+0xa3c>)
   b5c7e:	33e8      	adds	r3, #232	; 0xe8
   b5c80:	cb0f      	ldmia	r3, {r0, r1, r2, r3}
   b5c82:	af93      	add	r7, sp, #588	; 0x24c
   b5c84:	e887 000f 	stmia.w	r7, {r0, r1, r2, r3}
   b5c88:	2204      	movs	r2, #4
   b5c8a:	ab3e      	add	r3, sp, #248	; 0xf8
   b5c8c:	973e      	str	r7, [sp, #248]	; 0xf8
   b5c8e:	923f      	str	r2, [sp, #252]	; 0xfc
   b5c90:	e893 0006 	ldmia.w	r3, {r1, r2}
   b5c94:	4640      	mov	r0, r8
   b5c96:	f7ff f9fd 	bl	b5094 <_ZNSt6vectorIiSaIiEEC2ESt16initializer_listIiERKS0_.constprop.0.isra.0>
   b5c9a:	4658      	mov	r0, fp
   b5c9c:	4947      	ldr	r1, [pc, #284]	; (b5dbc <_Z41__static_initialization_and_destruction_0ii.constprop.0+0xa48>)
   b5c9e:	f7fe fa33 	bl	b4108 <_ZNSt7__cxx1112basic_stringIcSt11char_traitsIcESaIcEEC2IS3_EEPKcRKS3_.constprop.0.isra.0>
   b5ca2:	a8a4      	add	r0, sp, #656	; 0x290
   b5ca4:	4946      	ldr	r1, [pc, #280]	; (b5dc0 <_Z41__static_initialization_and_destruction_0ii.constprop.0+0xa4c>)
   b5ca6:	f7fe fa2f 	bl	b4108 <_ZNSt7__cxx1112basic_stringIcSt11char_traitsIcESaIcEEC2IS3_EEPKcRKS3_.constprop.0.isra.0>
   b5caa:	a8aa      	add	r0, sp, #680	; 0x2a8
   b5cac:	4945      	ldr	r1, [pc, #276]	; (b5dc4 <_Z41__static_initialization_and_destruction_0ii.constprop.0+0xa50>)
   b5cae:	f7fe fa2b 	bl	b4108 <_ZNSt7__cxx1112basic_stringIcSt11char_traitsIcESaIcEEC2IS3_EEPKcRKS3_.constprop.0.isra.0>
   b5cb2:	aba4      	add	r3, sp, #656	; 0x290
   b5cb4:	2102      	movs	r1, #2
   b5cb6:	933c      	str	r3, [sp, #240]	; 0xf0
   b5cb8:	f10d 09d8 	add.w	r9, sp, #216	; 0xd8
   b5cbc:	913d      	str	r1, [sp, #244]	; 0xf4
   b5cbe:	aa3c      	add	r2, sp, #240	; 0xf0
   b5cc0:	464b      	mov	r3, r9
   b5cc2:	ca06      	ldmia	r2, {r1, r2}
   b5cc4:	a883      	add	r0, sp, #524	; 0x20c
   b5cc6:	f7fe fdc7 	bl	b4858 <_ZNSt6vectorINSt7__cxx1112basic_stringIcSt11char_traitsIcESaIcEEESaIS5_EEC1ESt16initializer_listIS5_ERKS6_>
   b5cca:	4b39      	ldr	r3, [pc, #228]	; (b5db0 <_Z41__static_initialization_and_destruction_0ii.constprop.0+0xa3c>)
   b5ccc:	33f8      	adds	r3, #248	; 0xf8
   b5cce:	cb0f      	ldmia	r3, {r0, r1, r2, r3}
   b5cd0:	af8f      	add	r7, sp, #572	; 0x23c
   b5cd2:	e887 000f 	stmia.w	r7, {r0, r1, r2, r3}
   b5cd6:	2204      	movs	r2, #4
   b5cd8:	ab3a      	add	r3, sp, #232	; 0xe8
   b5cda:	973a      	str	r7, [sp, #232]	; 0xe8
   b5cdc:	923b      	str	r2, [sp, #236]	; 0xec
   b5cde:	e893 0006 	ldmia.w	r3, {r1, r2}
   b5ce2:	4630      	mov	r0, r6
   b5ce4:	f7ff f9d6 	bl	b5094 <_ZNSt6vectorIiSaIiEEC2ESt16initializer_listIiERKS0_.constprop.0.isra.0>
Railway pinkLineCTA = Railway(
   b5ce8:	aa83      	add	r2, sp, #524	; 0x20c
   b5cea:	4643      	mov	r3, r8
   b5cec:	a98c      	add	r1, sp, #560	; 0x230
   b5cee:	e9cd b200 	strd	fp, r2, [sp]
   b5cf2:	9602      	str	r6, [sp, #8]
   b5cf4:	462a      	mov	r2, r5
   b5cf6:	4834      	ldr	r0, [pc, #208]	; (b5dc8 <_Z41__static_initialization_and_destruction_0ii.constprop.0+0xa54>)
   b5cf8:	f7ff fa4c 	bl	b5194 <_ZN7RailwayC1ESt6vectorI10CheckpointSaIS1_EES0_IiSaIiEES5_NSt7__cxx1112basic_stringIcSt11char_traitsIcESaIcEEES0_ISB_SaISB_EES5_>
   b5cfc:	4630      	mov	r0, r6
   b5cfe:	f7fe fd21 	bl	b4744 <_ZNSt12_Vector_baseIiSaIiEED1Ev>
);
   b5d02:	a883      	add	r0, sp, #524	; 0x20c
   b5d04:	f7fe fd3f 	bl	b4786 <_ZNSt6vectorINSt7__cxx1112basic_stringIcSt11char_traitsIcESaIcEEESaIS5_EED1Ev>
   b5d08:	a8aa      	add	r0, sp, #680	; 0x2a8
   b5d0a:	f005 fa7d 	bl	bb208 <_ZNSt7__cxx1112basic_stringIcSt11char_traitsIcESaIcEE10_M_disposeEv>
   b5d0e:	a8a4      	add	r0, sp, #656	; 0x290
   b5d10:	f005 fa7a 	bl	bb208 <_ZNSt7__cxx1112basic_stringIcSt11char_traitsIcESaIcEE10_M_disposeEv>
   b5d14:	4658      	mov	r0, fp
   b5d16:	f005 fa77 	bl	bb208 <_ZNSt7__cxx1112basic_stringIcSt11char_traitsIcESaIcEE10_M_disposeEv>
   b5d1a:	4640      	mov	r0, r8
   b5d1c:	f7fe fd12 	bl	b4744 <_ZNSt12_Vector_baseIiSaIiEED1Ev>
   b5d20:	4628      	mov	r0, r5
   b5d22:	f7fe fd0f 	bl	b4744 <_ZNSt12_Vector_baseIiSaIiEED1Ev>
   b5d26:	a88c      	add	r0, sp, #560	; 0x230
   b5d28:	f7fe fcf8 	bl	b471c <_ZNSt12_Vector_baseI10CheckpointSaIS0_EED1Ev>
      lat = la;
   b5d2c:	4b27      	ldr	r3, [pc, #156]	; (b5dcc <_Z41__static_initialization_and_destruction_0ii.constprop.0+0xa58>)
   b5d2e:	93b0      	str	r3, [sp, #704]	; 0x2c0
      lon = lo;
   b5d30:	4b27      	ldr	r3, [pc, #156]	; (b5dd0 <_Z41__static_initialization_and_destruction_0ii.constprop.0+0xa5c>)
   b5d32:	93b1      	str	r3, [sp, #708]	; 0x2c4
      lat = la;
   b5d34:	4b27      	ldr	r3, [pc, #156]	; (b5dd4 <_Z41__static_initialization_and_destruction_0ii.constprop.0+0xa60>)
   b5d36:	93b2      	str	r3, [sp, #712]	; 0x2c8
      lon = lo;
   b5d38:	4b27      	ldr	r3, [pc, #156]	; (b5dd8 <_Z41__static_initialization_and_destruction_0ii.constprop.0+0xa64>)
   b5d3a:	93b3      	str	r3, [sp, #716]	; 0x2cc
      lat = la;
   b5d3c:	4b27      	ldr	r3, [pc, #156]	; (b5ddc <_Z41__static_initialization_and_destruction_0ii.constprop.0+0xa68>)
   b5d3e:	93b4      	str	r3, [sp, #720]	; 0x2d0
      lon = lo;
   b5d40:	4b27      	ldr	r3, [pc, #156]	; (b5de0 <_Z41__static_initialization_and_destruction_0ii.constprop.0+0xa6c>)
   b5d42:	93b5      	str	r3, [sp, #724]	; 0x2d4
      lat = la;
   b5d44:	4b27      	ldr	r3, [pc, #156]	; (b5de4 <_Z41__static_initialization_and_destruction_0ii.constprop.0+0xa70>)
   b5d46:	93b6      	str	r3, [sp, #728]	; 0x2d8
      lon = lo;
   b5d48:	4b27      	ldr	r3, [pc, #156]	; (b5de8 <_Z41__static_initialization_and_destruction_0ii.constprop.0+0xa74>)
   b5d4a:	93b7      	str	r3, [sp, #732]	; 0x2dc
      lat = la;
   b5d4c:	4b27      	ldr	r3, [pc, #156]	; (b5dec <_Z41__static_initialization_and_destruction_0ii.constprop.0+0xa78>)
   b5d4e:	93b8      	str	r3, [sp, #736]	; 0x2e0
      lon = lo;
   b5d50:	4b27      	ldr	r3, [pc, #156]	; (b5df0 <_Z41__static_initialization_and_destruction_0ii.constprop.0+0xa7c>)
   b5d52:	93b9      	str	r3, [sp, #740]	; 0x2e4
      lat = la;
   b5d54:	4b27      	ldr	r3, [pc, #156]	; (b5df4 <_Z41__static_initialization_and_destruction_0ii.constprop.0+0xa80>)
   b5d56:	93ba      	str	r3, [sp, #744]	; 0x2e8
};
   b5d58:	aab0      	add	r2, sp, #704	; 0x2c0
      lon = lo;
   b5d5a:	4b27      	ldr	r3, [pc, #156]	; (b5df8 <_Z41__static_initialization_and_destruction_0ii.constprop.0+0xa84>)
   b5d5c:	9238      	str	r2, [sp, #224]	; 0xe0
   b5d5e:	93bb      	str	r3, [sp, #748]	; 0x2ec
   b5d60:	2207      	movs	r2, #7
      lat = la;
   b5d62:	4b26      	ldr	r3, [pc, #152]	; (b5dfc <_Z41__static_initialization_and_destruction_0ii.constprop.0+0xa88>)
   b5d64:	9239      	str	r2, [sp, #228]	; 0xe4
   b5d66:	93bc      	str	r3, [sp, #752]	; 0x2f0
   b5d68:	aa2e      	add	r2, sp, #184	; 0xb8
      lon = lo;
   b5d6a:	4b25      	ldr	r3, [pc, #148]	; (b5e00 <_Z41__static_initialization_and_destruction_0ii.constprop.0+0xa8c>)
   b5d6c:	93bd      	str	r3, [sp, #756]	; 0x2f4
   b5d6e:	a88c      	add	r0, sp, #560	; 0x230
   b5d70:	4613      	mov	r3, r2
   b5d72:	e89a 0006 	ldmia.w	sl, {r1, r2}
   b5d76:	f7fe fd3b 	bl	b47f0 <_ZNSt6vectorI10CheckpointSaIS0_EEC1ESt16initializer_listIS0_ERKS1_>
   b5d7a:	e043      	b.n	b5e04 <_Z41__static_initialization_and_destruction_0ii.constprop.0+0xa90>
   b5d7c:	20037de0 	.word	0x20037de0
   b5d80:	000be6a8 	.word	0x000be6a8
   b5d84:	000be4fc 	.word	0x000be4fc
   b5d88:	000be503 	.word	0x000be503
   b5d8c:	000be50a 	.word	0x000be50a
   b5d90:	000be6b8 	.word	0x000be6b8
   b5d94:	2003e4f0 	.word	0x2003e4f0
   b5d98:	42276a76 	.word	0x42276a76
   b5d9c:	c2af692b 	.word	0xc2af692b
   b5da0:	42276b5f 	.word	0x42276b5f
   b5da4:	c2af56cd 	.word	0xc2af56cd
   b5da8:	42278a2d 	.word	0x42278a2d
   b5dac:	c2af56d8 	.word	0xc2af56d8
   b5db0:	000be668 	.word	0x000be668
   b5db4:	42296602 	.word	0x42296602
   b5db8:	c28e2881 	.word	0xc28e2881
   b5dbc:	000be511 	.word	0x000be511
   b5dc0:	000be516 	.word	0x000be516
   b5dc4:	000be51d 	.word	0x000be51d
   b5dc8:	2003e484 	.word	0x2003e484
   b5dcc:	4229481b 	.word	0x4229481b
   b5dd0:	c28e1ab2 	.word	0xc28e1ab2
   b5dd4:	42294f83 	.word	0x42294f83
   b5dd8:	c28e1d93 	.word	0xc28e1d93
   b5ddc:	422960e6 	.word	0x422960e6
   b5de0:	c28e1d2d 	.word	0xc28e1d2d
   b5de4:	422966f9 	.word	0x422966f9
   b5de8:	c28e1af0 	.word	0xc28e1af0
   b5dec:	422971a5 	.word	0x422971a5
   b5df0:	c28e23e6 	.word	0xc28e23e6
   b5df4:	42297437 	.word	0x42297437
   b5df8:	c28e3373 	.word	0xc28e3373
   b5dfc:	42297d7a 	.word	0x42297d7a
   b5e00:	c28e3b5d 	.word	0xc28e3b5d
   b5e04:	4bb1      	ldr	r3, [pc, #708]	; (b60cc <_Z41__static_initialization_and_destruction_0ii.constprop.0+0xd58>)
   b5e06:	f503 7c84 	add.w	ip, r3, #264	; 0x108
   b5e0a:	461f      	mov	r7, r3
   b5e0c:	e8bc 000f 	ldmia.w	ip!, {r0, r1, r2, r3}
   b5e10:	f50d 7e1d 	add.w	lr, sp, #628	; 0x274
   b5e14:	e8ae 000f 	stmia.w	lr!, {r0, r1, r2, r3}
   b5e18:	e89c 0003 	ldmia.w	ip, {r0, r1}
   b5e1c:	9a04      	ldr	r2, [sp, #16]
   b5e1e:	e882 0003 	stmia.w	r2, {r0, r1}
   b5e22:	aa9d      	add	r2, sp, #628	; 0x274
   b5e24:	9236      	str	r2, [sp, #216]	; 0xd8
   b5e26:	2206      	movs	r2, #6
   b5e28:	9237      	str	r2, [sp, #220]	; 0xdc
   b5e2a:	e899 0006 	ldmia.w	r9, {r1, r2}
   b5e2e:	4628      	mov	r0, r5
   b5e30:	f7ff f930 	bl	b5094 <_ZNSt6vectorIiSaIiEEC2ESt16initializer_listIiERKS0_.constprop.0.isra.0>
   b5e34:	aa93      	add	r2, sp, #588	; 0x24c
   b5e36:	9234      	str	r2, [sp, #208]	; 0xd0
   b5e38:	2332      	movs	r3, #50	; 0x32
   b5e3a:	2204      	movs	r2, #4
   b5e3c:	e9cd 3494 	strd	r3, r4, [sp, #592]	; 0x250
   b5e40:	9235      	str	r2, [sp, #212]	; 0xd4
   b5e42:	ab34      	add	r3, sp, #208	; 0xd0
   b5e44:	e893 0006 	ldmia.w	r3, {r1, r2}
   b5e48:	4640      	mov	r0, r8
   b5e4a:	9493      	str	r4, [sp, #588]	; 0x24c
   b5e4c:	9496      	str	r4, [sp, #600]	; 0x258
   b5e4e:	f7ff f921 	bl	b5094 <_ZNSt6vectorIiSaIiEEC2ESt16initializer_listIiERKS0_.constprop.0.isra.0>
   b5e52:	4658      	mov	r0, fp
   b5e54:	499e      	ldr	r1, [pc, #632]	; (b60d0 <_Z41__static_initialization_and_destruction_0ii.constprop.0+0xd5c>)
   b5e56:	f7fe f957 	bl	b4108 <_ZNSt7__cxx1112basic_stringIcSt11char_traitsIcESaIcEEC2IS3_EEPKcRKS3_.constprop.0.isra.0>
   b5e5a:	a8a4      	add	r0, sp, #656	; 0x290
   b5e5c:	499d      	ldr	r1, [pc, #628]	; (b60d4 <_Z41__static_initialization_and_destruction_0ii.constprop.0+0xd60>)
   b5e5e:	f7fe f953 	bl	b4108 <_ZNSt7__cxx1112basic_stringIcSt11char_traitsIcESaIcEEC2IS3_EEPKcRKS3_.constprop.0.isra.0>
   b5e62:	a8aa      	add	r0, sp, #680	; 0x2a8
   b5e64:	499c      	ldr	r1, [pc, #624]	; (b60d8 <_Z41__static_initialization_and_destruction_0ii.constprop.0+0xd64>)
   b5e66:	f7fe f94f 	bl	b4108 <_ZNSt7__cxx1112basic_stringIcSt11char_traitsIcESaIcEEC2IS3_EEPKcRKS3_.constprop.0.isra.0>
   b5e6a:	aba4      	add	r3, sp, #656	; 0x290
   b5e6c:	2102      	movs	r1, #2
   b5e6e:	9332      	str	r3, [sp, #200]	; 0xc8
   b5e70:	f10d 09b0 	add.w	r9, sp, #176	; 0xb0
   b5e74:	9133      	str	r1, [sp, #204]	; 0xcc
   b5e76:	aa32      	add	r2, sp, #200	; 0xc8
   b5e78:	464b      	mov	r3, r9
   b5e7a:	ca06      	ldmia	r2, {r1, r2}
   b5e7c:	a883      	add	r0, sp, #524	; 0x20c
   b5e7e:	f7fe fceb 	bl	b4858 <_ZNSt6vectorINSt7__cxx1112basic_stringIcSt11char_traitsIcESaIcEEESaIS5_EEC1ESt16initializer_listIS5_ERKS6_>
   b5e82:	4621      	mov	r1, r4
   b5e84:	2210      	movs	r2, #16
   b5e86:	a88f      	add	r0, sp, #572	; 0x23c
   b5e88:	f006 f996 	bl	bc1b8 <memset>
   b5e8c:	aa8f      	add	r2, sp, #572	; 0x23c
   b5e8e:	9230      	str	r2, [sp, #192]	; 0xc0
   b5e90:	2204      	movs	r2, #4
   b5e92:	ab30      	add	r3, sp, #192	; 0xc0
   b5e94:	9231      	str	r2, [sp, #196]	; 0xc4
   b5e96:	e893 0006 	ldmia.w	r3, {r1, r2}
   b5e9a:	4630      	mov	r0, r6
   b5e9c:	f7ff f8fa 	bl	b5094 <_ZNSt6vectorIiSaIiEEC2ESt16initializer_listIiERKS0_.constprop.0.isra.0>
Railway redLineMBTA = Railway{
   b5ea0:	aa83      	add	r2, sp, #524	; 0x20c
   b5ea2:	4643      	mov	r3, r8
   b5ea4:	a98c      	add	r1, sp, #560	; 0x230
   b5ea6:	e9cd b200 	strd	fp, r2, [sp]
   b5eaa:	9602      	str	r6, [sp, #8]
   b5eac:	462a      	mov	r2, r5
   b5eae:	488b      	ldr	r0, [pc, #556]	; (b60dc <_Z41__static_initialization_and_destruction_0ii.constprop.0+0xd68>)
   b5eb0:	f7ff f970 	bl	b5194 <_ZN7RailwayC1ESt6vectorI10CheckpointSaIS1_EES0_IiSaIiEES5_NSt7__cxx1112basic_stringIcSt11char_traitsIcESaIcEEES0_ISB_SaISB_EES5_>
   b5eb4:	4630      	mov	r0, r6
   b5eb6:	f7fe fc45 	bl	b4744 <_ZNSt12_Vector_baseIiSaIiEED1Ev>
};
   b5eba:	a883      	add	r0, sp, #524	; 0x20c
   b5ebc:	f7fe fc63 	bl	b4786 <_ZNSt6vectorINSt7__cxx1112basic_stringIcSt11char_traitsIcESaIcEEESaIS5_EED1Ev>
   b5ec0:	a8aa      	add	r0, sp, #680	; 0x2a8
   b5ec2:	f005 f9a1 	bl	bb208 <_ZNSt7__cxx1112basic_stringIcSt11char_traitsIcESaIcEE10_M_disposeEv>
   b5ec6:	a8a4      	add	r0, sp, #656	; 0x290
   b5ec8:	f005 f99e 	bl	bb208 <_ZNSt7__cxx1112basic_stringIcSt11char_traitsIcESaIcEE10_M_disposeEv>
   b5ecc:	4658      	mov	r0, fp
   b5ece:	f005 f99b 	bl	bb208 <_ZNSt7__cxx1112basic_stringIcSt11char_traitsIcESaIcEE10_M_disposeEv>
   b5ed2:	4640      	mov	r0, r8
   b5ed4:	f7fe fc36 	bl	b4744 <_ZNSt12_Vector_baseIiSaIiEED1Ev>
   b5ed8:	4628      	mov	r0, r5
   b5eda:	f7fe fc33 	bl	b4744 <_ZNSt12_Vector_baseIiSaIiEED1Ev>
   b5ede:	a88c      	add	r0, sp, #560	; 0x230
   b5ee0:	f7fe fc1c 	bl	b471c <_ZNSt12_Vector_baseI10CheckpointSaIS0_EED1Ev>
      lat = la;
   b5ee4:	4b7e      	ldr	r3, [pc, #504]	; (b60e0 <_Z41__static_initialization_and_destruction_0ii.constprop.0+0xd6c>)
   b5ee6:	93a4      	str	r3, [sp, #656]	; 0x290
      lon = lo;
   b5ee8:	4b7e      	ldr	r3, [pc, #504]	; (b60e4 <_Z41__static_initialization_and_destruction_0ii.constprop.0+0xd70>)
   b5eea:	93a5      	str	r3, [sp, #660]	; 0x294
      lat = la;
   b5eec:	4b7e      	ldr	r3, [pc, #504]	; (b60e8 <_Z41__static_initialization_and_destruction_0ii.constprop.0+0xd74>)
   b5eee:	93a6      	str	r3, [sp, #664]	; 0x298
      lon = lo;
   b5ef0:	4b7e      	ldr	r3, [pc, #504]	; (b60ec <_Z41__static_initialization_and_destruction_0ii.constprop.0+0xd78>)
   b5ef2:	93a7      	str	r3, [sp, #668]	; 0x29c
      lat = la;
   b5ef4:	4b7e      	ldr	r3, [pc, #504]	; (b60f0 <_Z41__static_initialization_and_destruction_0ii.constprop.0+0xd7c>)
   b5ef6:	93a8      	str	r3, [sp, #672]	; 0x2a0
      lon = lo;
   b5ef8:	4b7e      	ldr	r3, [pc, #504]	; (b60f4 <_Z41__static_initialization_and_destruction_0ii.constprop.0+0xd80>)
   b5efa:	93a9      	str	r3, [sp, #676]	; 0x2a4
      lat = la;
   b5efc:	4b7e      	ldr	r3, [pc, #504]	; (b60f8 <_Z41__static_initialization_and_destruction_0ii.constprop.0+0xd84>)
   b5efe:	93aa      	str	r3, [sp, #680]	; 0x2a8
      lon = lo;
   b5f00:	4b7e      	ldr	r3, [pc, #504]	; (b60fc <_Z41__static_initialization_and_destruction_0ii.constprop.0+0xd88>)
   b5f02:	93ab      	str	r3, [sp, #684]	; 0x2ac
};
   b5f04:	2204      	movs	r2, #4
   b5f06:	aba4      	add	r3, sp, #656	; 0x290
   b5f08:	932e      	str	r3, [sp, #184]	; 0xb8
   b5f0a:	922f      	str	r2, [sp, #188]	; 0xbc
   b5f0c:	f10d 0a90 	add.w	sl, sp, #144	; 0x90
   b5f10:	aa2e      	add	r2, sp, #184	; 0xb8
   b5f12:	4653      	mov	r3, sl
   b5f14:	ca06      	ldmia	r2, {r1, r2}
   b5f16:	a88f      	add	r0, sp, #572	; 0x23c
   b5f18:	f7fe fc6a 	bl	b47f0 <_ZNSt6vectorI10CheckpointSaIS0_EEC1ESt16initializer_listIS0_ERKS1_>
   b5f1c:	f507 7390 	add.w	r3, r7, #288	; 0x120
   b5f20:	e893 0007 	ldmia.w	r3, {r0, r1, r2}
   b5f24:	2303      	movs	r3, #3
   b5f26:	952c      	str	r5, [sp, #176]	; 0xb0
   b5f28:	932d      	str	r3, [sp, #180]	; 0xb4
   b5f2a:	e885 0007 	stmia.w	r5, {r0, r1, r2}
   b5f2e:	e899 0006 	ldmia.w	r9, {r1, r2}
   b5f32:	a88c      	add	r0, sp, #560	; 0x230
   b5f34:	f7ff f8ae 	bl	b5094 <_ZNSt6vectorIiSaIiEEC2ESt16initializer_listIiERKS0_.constprop.0.isra.0>
   b5f38:	2228      	movs	r2, #40	; 0x28
   b5f3a:	e9cd 2498 	strd	r2, r4, [sp, #608]	; 0x260
   b5f3e:	2204      	movs	r2, #4
   b5f40:	ab2a      	add	r3, sp, #168	; 0xa8
   b5f42:	f8cd b0a8 	str.w	fp, [sp, #168]	; 0xa8
   b5f46:	922b      	str	r2, [sp, #172]	; 0xac
   b5f48:	e893 0006 	ldmia.w	r3, {r1, r2}
   b5f4c:	4640      	mov	r0, r8
   b5f4e:	9497      	str	r4, [sp, #604]	; 0x25c
   b5f50:	949a      	str	r4, [sp, #616]	; 0x268
   b5f52:	f7ff f89f 	bl	b5094 <_ZNSt6vectorIiSaIiEEC2ESt16initializer_listIiERKS0_.constprop.0.isra.0>
   b5f56:	a89d      	add	r0, sp, #628	; 0x274
   b5f58:	4969      	ldr	r1, [pc, #420]	; (b6100 <_Z41__static_initialization_and_destruction_0ii.constprop.0+0xd8c>)
   b5f5a:	f7fe f8d5 	bl	b4108 <_ZNSt7__cxx1112basic_stringIcSt11char_traitsIcESaIcEEC2IS3_EEPKcRKS3_.constprop.0.isra.0>
   b5f5e:	a8b0      	add	r0, sp, #704	; 0x2c0
   b5f60:	4968      	ldr	r1, [pc, #416]	; (b6104 <_Z41__static_initialization_and_destruction_0ii.constprop.0+0xd90>)
   b5f62:	f7fe f8d1 	bl	b4108 <_ZNSt7__cxx1112basic_stringIcSt11char_traitsIcESaIcEEC2IS3_EEPKcRKS3_.constprop.0.isra.0>
   b5f66:	a8b6      	add	r0, sp, #728	; 0x2d8
   b5f68:	4967      	ldr	r1, [pc, #412]	; (b6108 <_Z41__static_initialization_and_destruction_0ii.constprop.0+0xd94>)
   b5f6a:	f7fe f8cd 	bl	b4108 <_ZNSt7__cxx1112basic_stringIcSt11char_traitsIcESaIcEEC2IS3_EEPKcRKS3_.constprop.0.isra.0>
   b5f6e:	a9b0      	add	r1, sp, #704	; 0x2c0
   b5f70:	9128      	str	r1, [sp, #160]	; 0xa0
   b5f72:	2102      	movs	r1, #2
   b5f74:	f10d 0988 	add.w	r9, sp, #136	; 0x88
   b5f78:	9129      	str	r1, [sp, #164]	; 0xa4
   b5f7a:	aa28      	add	r2, sp, #160	; 0xa0
   b5f7c:	464b      	mov	r3, r9
   b5f7e:	ca06      	ldmia	r2, {r1, r2}
   b5f80:	a883      	add	r0, sp, #524	; 0x20c
   b5f82:	f7fe fc69 	bl	b4858 <_ZNSt6vectorINSt7__cxx1112basic_stringIcSt11char_traitsIcESaIcEEESaIS5_EEC1ESt16initializer_listIS5_ERKS6_>
   b5f86:	4621      	mov	r1, r4
   b5f88:	2210      	movs	r2, #16
   b5f8a:	a893      	add	r0, sp, #588	; 0x24c
   b5f8c:	f006 f914 	bl	bc1b8 <memset>
   b5f90:	aa93      	add	r2, sp, #588	; 0x24c
   b5f92:	9226      	str	r2, [sp, #152]	; 0x98
   b5f94:	2204      	movs	r2, #4
   b5f96:	ab26      	add	r3, sp, #152	; 0x98
   b5f98:	9227      	str	r2, [sp, #156]	; 0x9c
   b5f9a:	e893 0006 	ldmia.w	r3, {r1, r2}
   b5f9e:	4630      	mov	r0, r6
   b5fa0:	f7ff f878 	bl	b5094 <_ZNSt6vectorIiSaIiEEC2ESt16initializer_listIiERKS0_.constprop.0.isra.0>
Railway blueLineMBTA = Railway{
   b5fa4:	aa83      	add	r2, sp, #524	; 0x20c
   b5fa6:	9201      	str	r2, [sp, #4]
   b5fa8:	aa9d      	add	r2, sp, #628	; 0x274
   b5faa:	4643      	mov	r3, r8
   b5fac:	a98f      	add	r1, sp, #572	; 0x23c
   b5fae:	9602      	str	r6, [sp, #8]
   b5fb0:	9200      	str	r2, [sp, #0]
   b5fb2:	4856      	ldr	r0, [pc, #344]	; (b610c <_Z41__static_initialization_and_destruction_0ii.constprop.0+0xd98>)
   b5fb4:	aa8c      	add	r2, sp, #560	; 0x230
   b5fb6:	f7ff f8ed 	bl	b5194 <_ZN7RailwayC1ESt6vectorI10CheckpointSaIS1_EES0_IiSaIiEES5_NSt7__cxx1112basic_stringIcSt11char_traitsIcESaIcEEES0_ISB_SaISB_EES5_>
   b5fba:	4630      	mov	r0, r6
   b5fbc:	f7fe fbc2 	bl	b4744 <_ZNSt12_Vector_baseIiSaIiEED1Ev>
};
   b5fc0:	a883      	add	r0, sp, #524	; 0x20c
   b5fc2:	f7fe fbe0 	bl	b4786 <_ZNSt6vectorINSt7__cxx1112basic_stringIcSt11char_traitsIcESaIcEEESaIS5_EED1Ev>
   b5fc6:	a8b6      	add	r0, sp, #728	; 0x2d8
   b5fc8:	f005 f91e 	bl	bb208 <_ZNSt7__cxx1112basic_stringIcSt11char_traitsIcESaIcEE10_M_disposeEv>
   b5fcc:	a8b0      	add	r0, sp, #704	; 0x2c0
   b5fce:	f005 f91b 	bl	bb208 <_ZNSt7__cxx1112basic_stringIcSt11char_traitsIcESaIcEE10_M_disposeEv>
   b5fd2:	a89d      	add	r0, sp, #628	; 0x274
   b5fd4:	f005 f918 	bl	bb208 <_ZNSt7__cxx1112basic_stringIcSt11char_traitsIcESaIcEE10_M_disposeEv>
   b5fd8:	4640      	mov	r0, r8
   b5fda:	f7fe fbb3 	bl	b4744 <_ZNSt12_Vector_baseIiSaIiEED1Ev>
   b5fde:	a88c      	add	r0, sp, #560	; 0x230
   b5fe0:	f7fe fbb0 	bl	b4744 <_ZNSt12_Vector_baseIiSaIiEED1Ev>
   b5fe4:	a88f      	add	r0, sp, #572	; 0x23c
   b5fe6:	f7fe fb99 	bl	b471c <_ZNSt12_Vector_baseI10CheckpointSaIS0_EED1Ev>
      lat = la;
   b5fea:	4b49      	ldr	r3, [pc, #292]	; (b6110 <_Z41__static_initialization_and_destruction_0ii.constprop.0+0xd9c>)
   b5fec:	93b0      	str	r3, [sp, #704]	; 0x2c0
      lon = lo;
   b5fee:	4b49      	ldr	r3, [pc, #292]	; (b6114 <_Z41__static_initialization_and_destruction_0ii.constprop.0+0xda0>)
   b5ff0:	93b1      	str	r3, [sp, #708]	; 0x2c4
      lat = la;
   b5ff2:	4b49      	ldr	r3, [pc, #292]	; (b6118 <_Z41__static_initialization_and_destruction_0ii.constprop.0+0xda4>)
   b5ff4:	93b2      	str	r3, [sp, #712]	; 0x2c8
      lon = lo;
   b5ff6:	4b49      	ldr	r3, [pc, #292]	; (b611c <_Z41__static_initialization_and_destruction_0ii.constprop.0+0xda8>)
   b5ff8:	93b3      	str	r3, [sp, #716]	; 0x2cc
      lat = la;
   b5ffa:	4b49      	ldr	r3, [pc, #292]	; (b6120 <_Z41__static_initialization_and_destruction_0ii.constprop.0+0xdac>)
   b5ffc:	93b4      	str	r3, [sp, #720]	; 0x2d0
      lon = lo;
   b5ffe:	4b49      	ldr	r3, [pc, #292]	; (b6124 <_Z41__static_initialization_and_destruction_0ii.constprop.0+0xdb0>)
   b6000:	93b5      	str	r3, [sp, #724]	; 0x2d4
      lat = la;
   b6002:	4b49      	ldr	r3, [pc, #292]	; (b6128 <_Z41__static_initialization_and_destruction_0ii.constprop.0+0xdb4>)
   b6004:	93b6      	str	r3, [sp, #728]	; 0x2d8
      lon = lo;
   b6006:	4b49      	ldr	r3, [pc, #292]	; (b612c <_Z41__static_initialization_and_destruction_0ii.constprop.0+0xdb8>)
   b6008:	93b7      	str	r3, [sp, #732]	; 0x2dc
      lat = la;
   b600a:	4b49      	ldr	r3, [pc, #292]	; (b6130 <_Z41__static_initialization_and_destruction_0ii.constprop.0+0xdbc>)
   b600c:	93b8      	str	r3, [sp, #736]	; 0x2e0
};
   b600e:	aab0      	add	r2, sp, #704	; 0x2c0
      lon = lo;
   b6010:	4b48      	ldr	r3, [pc, #288]	; (b6134 <_Z41__static_initialization_and_destruction_0ii.constprop.0+0xdc0>)
   b6012:	9224      	str	r2, [sp, #144]	; 0x90
   b6014:	93b9      	str	r3, [sp, #740]	; 0x2e4
   b6016:	2206      	movs	r2, #6
      lat = la;
   b6018:	4b47      	ldr	r3, [pc, #284]	; (b6138 <_Z41__static_initialization_and_destruction_0ii.constprop.0+0xdc4>)
   b601a:	9225      	str	r2, [sp, #148]	; 0x94
   b601c:	93ba      	str	r3, [sp, #744]	; 0x2e8
   b601e:	aa1a      	add	r2, sp, #104	; 0x68
      lon = lo;
   b6020:	4b46      	ldr	r3, [pc, #280]	; (b613c <_Z41__static_initialization_and_destruction_0ii.constprop.0+0xdc8>)
   b6022:	93bb      	str	r3, [sp, #748]	; 0x2ec
   b6024:	a88c      	add	r0, sp, #560	; 0x230
   b6026:	4613      	mov	r3, r2
   b6028:	e89a 0006 	ldmia.w	sl, {r1, r2}
   b602c:	f7fe fbe0 	bl	b47f0 <_ZNSt6vectorI10CheckpointSaIS0_EEC1ESt16initializer_listIS0_ERKS1_>
   b6030:	4b26      	ldr	r3, [pc, #152]	; (b60cc <_Z41__static_initialization_and_destruction_0ii.constprop.0+0xd58>)
   b6032:	f8cd b088 	str.w	fp, [sp, #136]	; 0x88
   b6036:	f503 7c96 	add.w	ip, r3, #300	; 0x12c
   b603a:	e8bc 000f 	ldmia.w	ip!, {r0, r1, r2, r3}
   b603e:	465f      	mov	r7, fp
   b6040:	c70f      	stmia	r7!, {r0, r1, r2, r3}
   b6042:	f8dc 3000 	ldr.w	r3, [ip]
   b6046:	603b      	str	r3, [r7, #0]
   b6048:	2305      	movs	r3, #5
   b604a:	9323      	str	r3, [sp, #140]	; 0x8c
   b604c:	e899 0006 	ldmia.w	r9, {r1, r2}
   b6050:	4628      	mov	r0, r5
   b6052:	f7ff f81f 	bl	b5094 <_ZNSt6vectorIiSaIiEEC2ESt16initializer_listIiERKS0_.constprop.0.isra.0>
   b6056:	aa93      	add	r2, sp, #588	; 0x24c
   b6058:	9220      	str	r2, [sp, #128]	; 0x80
   b605a:	232d      	movs	r3, #45	; 0x2d
   b605c:	2204      	movs	r2, #4
   b605e:	e9cd 3494 	strd	r3, r4, [sp, #592]	; 0x250
   b6062:	9221      	str	r2, [sp, #132]	; 0x84
   b6064:	ab20      	add	r3, sp, #128	; 0x80
   b6066:	e893 0006 	ldmia.w	r3, {r1, r2}
   b606a:	4640      	mov	r0, r8
   b606c:	9493      	str	r4, [sp, #588]	; 0x24c
   b606e:	9496      	str	r4, [sp, #600]	; 0x258
   b6070:	f7ff f810 	bl	b5094 <_ZNSt6vectorIiSaIiEEC2ESt16initializer_listIiERKS0_.constprop.0.isra.0>
   b6074:	a89d      	add	r0, sp, #628	; 0x274
   b6076:	4932      	ldr	r1, [pc, #200]	; (b6140 <_Z41__static_initialization_and_destruction_0ii.constprop.0+0xdcc>)
   b6078:	f7fe f846 	bl	b4108 <_ZNSt7__cxx1112basic_stringIcSt11char_traitsIcESaIcEEC2IS3_EEPKcRKS3_.constprop.0.isra.0>
   b607c:	a8a4      	add	r0, sp, #656	; 0x290
   b607e:	4931      	ldr	r1, [pc, #196]	; (b6144 <_Z41__static_initialization_and_destruction_0ii.constprop.0+0xdd0>)
   b6080:	f7fe f842 	bl	b4108 <_ZNSt7__cxx1112basic_stringIcSt11char_traitsIcESaIcEEC2IS3_EEPKcRKS3_.constprop.0.isra.0>
   b6084:	a8aa      	add	r0, sp, #680	; 0x2a8
   b6086:	4930      	ldr	r1, [pc, #192]	; (b6148 <_Z41__static_initialization_and_destruction_0ii.constprop.0+0xdd4>)
   b6088:	f7fe f83e 	bl	b4108 <_ZNSt7__cxx1112basic_stringIcSt11char_traitsIcESaIcEEC2IS3_EEPKcRKS3_.constprop.0.isra.0>
   b608c:	aba4      	add	r3, sp, #656	; 0x290
   b608e:	931e      	str	r3, [sp, #120]	; 0x78
   b6090:	2302      	movs	r3, #2
   b6092:	931f      	str	r3, [sp, #124]	; 0x7c
   b6094:	f10d 0a60 	add.w	sl, sp, #96	; 0x60
   b6098:	aa1e      	add	r2, sp, #120	; 0x78
   b609a:	4653      	mov	r3, sl
   b609c:	ca06      	ldmia	r2, {r1, r2}
   b609e:	a883      	add	r0, sp, #524	; 0x20c
   b60a0:	f7fe fbda 	bl	b4858 <_ZNSt6vectorINSt7__cxx1112basic_stringIcSt11char_traitsIcESaIcEEESaIS5_EEC1ESt16initializer_listIS5_ERKS6_>
   b60a4:	4621      	mov	r1, r4
   b60a6:	2210      	movs	r2, #16
   b60a8:	a88f      	add	r0, sp, #572	; 0x23c
   b60aa:	f006 f885 	bl	bc1b8 <memset>
   b60ae:	aa8f      	add	r2, sp, #572	; 0x23c
   b60b0:	921c      	str	r2, [sp, #112]	; 0x70
   b60b2:	2204      	movs	r2, #4
   b60b4:	ab1c      	add	r3, sp, #112	; 0x70
   b60b6:	921d      	str	r2, [sp, #116]	; 0x74
   b60b8:	e893 0006 	ldmia.w	r3, {r1, r2}
   b60bc:	4630      	mov	r0, r6
   b60be:	f7fe ffe9 	bl	b5094 <_ZNSt6vectorIiSaIiEEC2ESt16initializer_listIiERKS0_.constprop.0.isra.0>
Railway orangeLineMBTA = Railway{
   b60c2:	ab83      	add	r3, sp, #524	; 0x20c
   b60c4:	9301      	str	r3, [sp, #4]
   b60c6:	ab9d      	add	r3, sp, #628	; 0x274
   b60c8:	e040      	b.n	b614c <_Z41__static_initialization_and_destruction_0ii.constprop.0+0xdd8>
   b60ca:	bf00      	nop
   b60cc:	000be668 	.word	0x000be668
   b60d0:	000be4a0 	.word	0x000be4a0
   b60d4:	000be4a4 	.word	0x000be4a4
   b60d8:	000be4ab 	.word	0x000be4ab
   b60dc:	2003e5c8 	.word	0x2003e5c8
   b60e0:	422984a9 	.word	0x422984a9
   b60e4:	c28e0be6 	.word	0xc28e0be6
   b60e8:	422970a6 	.word	0x422970a6
   b60ec:	c28e1862 	.word	0xc28e1862
   b60f0:	42296fe1 	.word	0x42296fe1
   b60f4:	c28e1e86 	.word	0xc28e1e86
   b60f8:	422971d1 	.word	0x422971d1
   b60fc:	c28e1fcf 	.word	0xc28e1fcf
   b6100:	000be4b2 	.word	0x000be4b2
   b6104:	000be4b7 	.word	0x000be4b7
   b6108:	000be4be 	.word	0x000be4be
   b610c:	20035374 	.word	0x20035374
   b6110:	4229537a 	.word	0x4229537a
   b6114:	c28e30c9 	.word	0xc28e30c9
   b6118:	422963d0 	.word	0x422963d0
   b611c:	c28e26f1 	.word	0xc28e26f1
   b6120:	4229634b 	.word	0x4229634b
   b6124:	c28e210d 	.word	0xc28e210d
   b6128:	42296e30 	.word	0x42296e30
   b612c:	c28e1d5a 	.word	0xc28e1d5a
   b6130:	42298278 	.word	0x42298278
   b6134:	c28e26e2 	.word	0xc28e26e2
   b6138:	42299ccd 	.word	0x42299ccd
   b613c:	c28e2770 	.word	0xc28e2770
   b6140:	000be4e7 	.word	0x000be4e7
   b6144:	000be4ee 	.word	0x000be4ee
   b6148:	000be4f5 	.word	0x000be4f5
   b614c:	462a      	mov	r2, r5
   b614e:	a98c      	add	r1, sp, #560	; 0x230
   b6150:	9602      	str	r6, [sp, #8]
   b6152:	9300      	str	r3, [sp, #0]
   b6154:	48b5      	ldr	r0, [pc, #724]	; (b642c <_Z41__static_initialization_and_destruction_0ii.constprop.0+0x10b8>)
   b6156:	4643      	mov	r3, r8
   b6158:	f7ff f81c 	bl	b5194 <_ZN7RailwayC1ESt6vectorI10CheckpointSaIS1_EES0_IiSaIiEES5_NSt7__cxx1112basic_stringIcSt11char_traitsIcESaIcEEES0_ISB_SaISB_EES5_>
   b615c:	4630      	mov	r0, r6
   b615e:	f7fe faf1 	bl	b4744 <_ZNSt12_Vector_baseIiSaIiEED1Ev>
};
   b6162:	a883      	add	r0, sp, #524	; 0x20c
   b6164:	f7fe fb0f 	bl	b4786 <_ZNSt6vectorINSt7__cxx1112basic_stringIcSt11char_traitsIcESaIcEEESaIS5_EED1Ev>
   b6168:	a8aa      	add	r0, sp, #680	; 0x2a8
   b616a:	f005 f84d 	bl	bb208 <_ZNSt7__cxx1112basic_stringIcSt11char_traitsIcESaIcEE10_M_disposeEv>
   b616e:	a8a4      	add	r0, sp, #656	; 0x290
   b6170:	f005 f84a 	bl	bb208 <_ZNSt7__cxx1112basic_stringIcSt11char_traitsIcESaIcEE10_M_disposeEv>
   b6174:	a89d      	add	r0, sp, #628	; 0x274
   b6176:	f005 f847 	bl	bb208 <_ZNSt7__cxx1112basic_stringIcSt11char_traitsIcESaIcEE10_M_disposeEv>
   b617a:	4640      	mov	r0, r8
   b617c:	f7fe fae2 	bl	b4744 <_ZNSt12_Vector_baseIiSaIiEED1Ev>
   b6180:	4628      	mov	r0, r5
   b6182:	f7fe fadf 	bl	b4744 <_ZNSt12_Vector_baseIiSaIiEED1Ev>
   b6186:	a88c      	add	r0, sp, #560	; 0x230
   b6188:	f7fe fac8 	bl	b471c <_ZNSt12_Vector_baseI10CheckpointSaIS0_EED1Ev>
      lat = la;
   b618c:	4ba8      	ldr	r3, [pc, #672]	; (b6430 <_Z41__static_initialization_and_destruction_0ii.constprop.0+0x10bc>)
   b618e:	93b0      	str	r3, [sp, #704]	; 0x2c0
      lon = lo;
   b6190:	4ba8      	ldr	r3, [pc, #672]	; (b6434 <_Z41__static_initialization_and_destruction_0ii.constprop.0+0x10c0>)
   b6192:	93b1      	str	r3, [sp, #708]	; 0x2c4
      lat = la;
   b6194:	4ba8      	ldr	r3, [pc, #672]	; (b6438 <_Z41__static_initialization_and_destruction_0ii.constprop.0+0x10c4>)
   b6196:	93b4      	str	r3, [sp, #720]	; 0x2d0
      lon = lo;
   b6198:	4ba8      	ldr	r3, [pc, #672]	; (b643c <_Z41__static_initialization_and_destruction_0ii.constprop.0+0x10c8>)
   b619a:	93b5      	str	r3, [sp, #724]	; 0x2d4
      lat = la;
   b619c:	4ba8      	ldr	r3, [pc, #672]	; (b6440 <_Z41__static_initialization_and_destruction_0ii.constprop.0+0x10cc>)
   b619e:	93b6      	str	r3, [sp, #728]	; 0x2d8
      lon = lo;
   b61a0:	4ba8      	ldr	r3, [pc, #672]	; (b6444 <_Z41__static_initialization_and_destruction_0ii.constprop.0+0x10d0>)
   b61a2:	93b7      	str	r3, [sp, #732]	; 0x2dc
      lat = la;
   b61a4:	4ba8      	ldr	r3, [pc, #672]	; (b6448 <_Z41__static_initialization_and_destruction_0ii.constprop.0+0x10d4>)
   b61a6:	93b8      	str	r3, [sp, #736]	; 0x2e0
      lon = lo;
   b61a8:	4ba8      	ldr	r3, [pc, #672]	; (b644c <_Z41__static_initialization_and_destruction_0ii.constprop.0+0x10d8>)
   b61aa:	93b9      	str	r3, [sp, #740]	; 0x2e4
      lat = la;
   b61ac:	4ba8      	ldr	r3, [pc, #672]	; (b6450 <_Z41__static_initialization_and_destruction_0ii.constprop.0+0x10dc>)
   b61ae:	93ba      	str	r3, [sp, #744]	; 0x2e8
      lon = lo;
   b61b0:	4ba8      	ldr	r3, [pc, #672]	; (b6454 <_Z41__static_initialization_and_destruction_0ii.constprop.0+0x10e0>)
   b61b2:	93bb      	str	r3, [sp, #748]	; 0x2ec
      lat = la;
   b61b4:	4ba8      	ldr	r3, [pc, #672]	; (b6458 <_Z41__static_initialization_and_destruction_0ii.constprop.0+0x10e4>)
   b61b6:	93bc      	str	r3, [sp, #752]	; 0x2f0
      lon = lo;
   b61b8:	4ba8      	ldr	r3, [pc, #672]	; (b645c <_Z41__static_initialization_and_destruction_0ii.constprop.0+0x10e8>)
   b61ba:	93bd      	str	r3, [sp, #756]	; 0x2f4
      lat = la;
   b61bc:	4ba8      	ldr	r3, [pc, #672]	; (b6460 <_Z41__static_initialization_and_destruction_0ii.constprop.0+0x10ec>)
   b61be:	93be      	str	r3, [sp, #760]	; 0x2f8
      lon = lo;
   b61c0:	4ba8      	ldr	r3, [pc, #672]	; (b6464 <_Z41__static_initialization_and_destruction_0ii.constprop.0+0x10f0>)
   b61c2:	93bf      	str	r3, [sp, #764]	; 0x2fc
};
   b61c4:	abb0      	add	r3, sp, #704	; 0x2c0
   b61c6:	931a      	str	r3, [sp, #104]	; 0x68
   b61c8:	2308      	movs	r3, #8
   b61ca:	931b      	str	r3, [sp, #108]	; 0x6c
   b61cc:	f10d 0940 	add.w	r9, sp, #64	; 0x40
   b61d0:	aa1a      	add	r2, sp, #104	; 0x68
   b61d2:	464b      	mov	r3, r9
   b61d4:	ca06      	ldmia	r2, {r1, r2}
   b61d6:	a88c      	add	r0, sp, #560	; 0x230
      lat = la;
   b61d8:	edcd 8ab2 	vstr	s17, [sp, #712]	; 0x2c8
      lon = lo;
   b61dc:	ed8d 8ab3 	vstr	s16, [sp, #716]	; 0x2cc
   b61e0:	f7fe fb06 	bl	b47f0 <_ZNSt6vectorI10CheckpointSaIS0_EEC1ESt16initializer_listIS0_ERKS1_>
   b61e4:	f8df c2c8 	ldr.w	ip, [pc, #712]	; b64b0 <_Z41__static_initialization_and_destruction_0ii.constprop.0+0x113c>
   b61e8:	e8bc 000f 	ldmia.w	ip!, {r0, r1, r2, r3}
   b61ec:	f50d 7e1d 	add.w	lr, sp, #628	; 0x274
   b61f0:	e8ae 000f 	stmia.w	lr!, {r0, r1, r2, r3}
   b61f4:	e89c 0007 	ldmia.w	ip, {r0, r1, r2}
   b61f8:	9b04      	ldr	r3, [sp, #16]
   b61fa:	e883 0007 	stmia.w	r3, {r0, r1, r2}
   b61fe:	ab9d      	add	r3, sp, #628	; 0x274
   b6200:	9318      	str	r3, [sp, #96]	; 0x60
   b6202:	2307      	movs	r3, #7
   b6204:	9319      	str	r3, [sp, #100]	; 0x64
   b6206:	e89a 0006 	ldmia.w	sl, {r1, r2}
   b620a:	4628      	mov	r0, r5
   b620c:	f7fe ff42 	bl	b5094 <_ZNSt6vectorIiSaIiEEC2ESt16initializer_listIiERKS0_.constprop.0.isra.0>
   b6210:	aa93      	add	r2, sp, #588	; 0x24c
   b6212:	9216      	str	r2, [sp, #88]	; 0x58
   b6214:	2346      	movs	r3, #70	; 0x46
   b6216:	2204      	movs	r2, #4
   b6218:	e9cd 3494 	strd	r3, r4, [sp, #592]	; 0x250
   b621c:	9217      	str	r2, [sp, #92]	; 0x5c
   b621e:	ab16      	add	r3, sp, #88	; 0x58
   b6220:	e893 0006 	ldmia.w	r3, {r1, r2}
   b6224:	4640      	mov	r0, r8
   b6226:	9493      	str	r4, [sp, #588]	; 0x24c
   b6228:	9496      	str	r4, [sp, #600]	; 0x258
   b622a:	f7fe ff33 	bl	b5094 <_ZNSt6vectorIiSaIiEEC2ESt16initializer_listIiERKS0_.constprop.0.isra.0>
   b622e:	4658      	mov	r0, fp
   b6230:	498d      	ldr	r1, [pc, #564]	; (b6468 <_Z41__static_initialization_and_destruction_0ii.constprop.0+0x10f4>)
   b6232:	f7fd ff69 	bl	b4108 <_ZNSt7__cxx1112basic_stringIcSt11char_traitsIcESaIcEEC2IS3_EEPKcRKS3_.constprop.0.isra.0>
   b6236:	a8a4      	add	r0, sp, #656	; 0x290
   b6238:	498c      	ldr	r1, [pc, #560]	; (b646c <_Z41__static_initialization_and_destruction_0ii.constprop.0+0x10f8>)
   b623a:	f7fd ff65 	bl	b4108 <_ZNSt7__cxx1112basic_stringIcSt11char_traitsIcESaIcEEC2IS3_EEPKcRKS3_.constprop.0.isra.0>
   b623e:	a8aa      	add	r0, sp, #680	; 0x2a8
   b6240:	498b      	ldr	r1, [pc, #556]	; (b6470 <_Z41__static_initialization_and_destruction_0ii.constprop.0+0x10fc>)
   b6242:	f7fd ff61 	bl	b4108 <_ZNSt7__cxx1112basic_stringIcSt11char_traitsIcESaIcEEC2IS3_EEPKcRKS3_.constprop.0.isra.0>
   b6246:	aba4      	add	r3, sp, #656	; 0x290
   b6248:	9314      	str	r3, [sp, #80]	; 0x50
   b624a:	2302      	movs	r3, #2
   b624c:	9315      	str	r3, [sp, #84]	; 0x54
   b624e:	f10d 0a38 	add.w	sl, sp, #56	; 0x38
   b6252:	aa14      	add	r2, sp, #80	; 0x50
   b6254:	4653      	mov	r3, sl
   b6256:	ca06      	ldmia	r2, {r1, r2}
   b6258:	a883      	add	r0, sp, #524	; 0x20c
   b625a:	f7fe fafd 	bl	b4858 <_ZNSt6vectorINSt7__cxx1112basic_stringIcSt11char_traitsIcESaIcEEESaIS5_EEC1ESt16initializer_listIS5_ERKS6_>
   b625e:	4621      	mov	r1, r4
   b6260:	2210      	movs	r2, #16
   b6262:	a88f      	add	r0, sp, #572	; 0x23c
   b6264:	f005 ffa8 	bl	bc1b8 <memset>
   b6268:	aa8f      	add	r2, sp, #572	; 0x23c
   b626a:	9212      	str	r2, [sp, #72]	; 0x48
   b626c:	2204      	movs	r2, #4
   b626e:	ab12      	add	r3, sp, #72	; 0x48
   b6270:	9213      	str	r2, [sp, #76]	; 0x4c
   b6272:	e893 0006 	ldmia.w	r3, {r1, r2}
   b6276:	4630      	mov	r0, r6
   b6278:	f7fe ff0c 	bl	b5094 <_ZNSt6vectorIiSaIiEEC2ESt16initializer_listIiERKS0_.constprop.0.isra.0>
Railway greenLine1MBTA = Railway{
   b627c:	ab83      	add	r3, sp, #524	; 0x20c
   b627e:	462a      	mov	r2, r5
   b6280:	a98c      	add	r1, sp, #560	; 0x230
   b6282:	e9cd b300 	strd	fp, r3, [sp]
   b6286:	9602      	str	r6, [sp, #8]
   b6288:	4643      	mov	r3, r8
   b628a:	487a      	ldr	r0, [pc, #488]	; (b6474 <_Z41__static_initialization_and_destruction_0ii.constprop.0+0x1100>)
   b628c:	f7fe ff82 	bl	b5194 <_ZN7RailwayC1ESt6vectorI10CheckpointSaIS1_EES0_IiSaIiEES5_NSt7__cxx1112basic_stringIcSt11char_traitsIcESaIcEEES0_ISB_SaISB_EES5_>
   b6290:	4630      	mov	r0, r6
   b6292:	f7fe fa57 	bl	b4744 <_ZNSt12_Vector_baseIiSaIiEED1Ev>
};
   b6296:	a883      	add	r0, sp, #524	; 0x20c
   b6298:	f7fe fa75 	bl	b4786 <_ZNSt6vectorINSt7__cxx1112basic_stringIcSt11char_traitsIcESaIcEEESaIS5_EED1Ev>
   b629c:	a8aa      	add	r0, sp, #680	; 0x2a8
   b629e:	f004 ffb3 	bl	bb208 <_ZNSt7__cxx1112basic_stringIcSt11char_traitsIcESaIcEE10_M_disposeEv>
   b62a2:	a8a4      	add	r0, sp, #656	; 0x290
   b62a4:	f004 ffb0 	bl	bb208 <_ZNSt7__cxx1112basic_stringIcSt11char_traitsIcESaIcEE10_M_disposeEv>
   b62a8:	4658      	mov	r0, fp
   b62aa:	f004 ffad 	bl	bb208 <_ZNSt7__cxx1112basic_stringIcSt11char_traitsIcESaIcEE10_M_disposeEv>
   b62ae:	4640      	mov	r0, r8
   b62b0:	f7fe fa48 	bl	b4744 <_ZNSt12_Vector_baseIiSaIiEED1Ev>
   b62b4:	4628      	mov	r0, r5
   b62b6:	f7fe fa45 	bl	b4744 <_ZNSt12_Vector_baseIiSaIiEED1Ev>
   b62ba:	a88c      	add	r0, sp, #560	; 0x230
   b62bc:	f7fe fa2e 	bl	b471c <_ZNSt12_Vector_baseI10CheckpointSaIS0_EED1Ev>
      lat = la;
   b62c0:	4b6d      	ldr	r3, [pc, #436]	; (b6478 <_Z41__static_initialization_and_destruction_0ii.constprop.0+0x1104>)
   b62c2:	939d      	str	r3, [sp, #628]	; 0x274
      lon = lo;
   b62c4:	4b6d      	ldr	r3, [pc, #436]	; (b647c <_Z41__static_initialization_and_destruction_0ii.constprop.0+0x1108>)
   b62c6:	939e      	str	r3, [sp, #632]	; 0x278
};
   b62c8:	ab9d      	add	r3, sp, #628	; 0x274
   b62ca:	6033      	str	r3, [r6, #0]
   b62cc:	2302      	movs	r3, #2
   b62ce:	6073      	str	r3, [r6, #4]
   b62d0:	e896 0006 	ldmia.w	r6, {r1, r2}
   b62d4:	ab08      	add	r3, sp, #32
   b62d6:	a88f      	add	r0, sp, #572	; 0x23c
      lat = la;
   b62d8:	edcd 8a9f 	vstr	s17, [sp, #636]	; 0x27c
      lon = lo;
   b62dc:	ed8d 8aa0 	vstr	s16, [sp, #640]	; 0x280
   b62e0:	f7fe fa86 	bl	b47f0 <_ZNSt6vectorI10CheckpointSaIS0_EEC1ESt16initializer_listIS0_ERKS1_>
   b62e4:	ab09      	add	r3, sp, #36	; 0x24
   b62e6:	9310      	str	r3, [sp, #64]	; 0x40
   b62e8:	2301      	movs	r3, #1
   b62ea:	9311      	str	r3, [sp, #68]	; 0x44
   b62ec:	e899 0006 	ldmia.w	r9, {r1, r2}
   b62f0:	260f      	movs	r6, #15
   b62f2:	a88c      	add	r0, sp, #560	; 0x230
   b62f4:	9609      	str	r6, [sp, #36]	; 0x24
   b62f6:	f7fe fecd 	bl	b5094 <_ZNSt6vectorIiSaIiEEC2ESt16initializer_listIiERKS0_.constprop.0.isra.0>
   b62fa:	2304      	movs	r3, #4
   b62fc:	930f      	str	r3, [sp, #60]	; 0x3c
   b62fe:	f8cd b038 	str.w	fp, [sp, #56]	; 0x38
   b6302:	e89a 0006 	ldmia.w	sl, {r1, r2}
   b6306:	4628      	mov	r0, r5
   b6308:	e9cd 4697 	strd	r4, r6, [sp, #604]	; 0x25c
   b630c:	e9cd 4499 	strd	r4, r4, [sp, #612]	; 0x264
   b6310:	f7fe fec0 	bl	b5094 <_ZNSt6vectorIiSaIiEEC2ESt16initializer_listIiERKS0_.constprop.0.isra.0>
   b6314:	a8a4      	add	r0, sp, #656	; 0x290
   b6316:	4954      	ldr	r1, [pc, #336]	; (b6468 <_Z41__static_initialization_and_destruction_0ii.constprop.0+0x10f4>)
   b6318:	f7fd fef6 	bl	b4108 <_ZNSt7__cxx1112basic_stringIcSt11char_traitsIcESaIcEEC2IS3_EEPKcRKS3_.constprop.0.isra.0>
   b631c:	a8b0      	add	r0, sp, #704	; 0x2c0
   b631e:	4953      	ldr	r1, [pc, #332]	; (b646c <_Z41__static_initialization_and_destruction_0ii.constprop.0+0x10f8>)
   b6320:	f7fd fef2 	bl	b4108 <_ZNSt7__cxx1112basic_stringIcSt11char_traitsIcESaIcEEC2IS3_EEPKcRKS3_.constprop.0.isra.0>
   b6324:	a8b6      	add	r0, sp, #728	; 0x2d8
   b6326:	4952      	ldr	r1, [pc, #328]	; (b6470 <_Z41__static_initialization_and_destruction_0ii.constprop.0+0x10fc>)
   b6328:	f7fd feee 	bl	b4108 <_ZNSt7__cxx1112basic_stringIcSt11char_traitsIcESaIcEEC2IS3_EEPKcRKS3_.constprop.0.isra.0>
   b632c:	abb0      	add	r3, sp, #704	; 0x2c0
   b632e:	930c      	str	r3, [sp, #48]	; 0x30
   b6330:	2302      	movs	r3, #2
   b6332:	930d      	str	r3, [sp, #52]	; 0x34
   b6334:	aa0c      	add	r2, sp, #48	; 0x30
   b6336:	ab07      	add	r3, sp, #28
   b6338:	ca06      	ldmia	r2, {r1, r2}
   b633a:	4640      	mov	r0, r8
   b633c:	f7fe fa8c 	bl	b4858 <_ZNSt6vectorINSt7__cxx1112basic_stringIcSt11char_traitsIcESaIcEEESaIS5_EEC1ESt16initializer_listIS5_ERKS6_>
   b6340:	4621      	mov	r1, r4
   b6342:	2210      	movs	r2, #16
   b6344:	a893      	add	r0, sp, #588	; 0x24c
   b6346:	f005 ff37 	bl	bc1b8 <memset>
   b634a:	aa93      	add	r2, sp, #588	; 0x24c
   b634c:	920a      	str	r2, [sp, #40]	; 0x28
   b634e:	2204      	movs	r2, #4
   b6350:	ab0a      	add	r3, sp, #40	; 0x28
   b6352:	920b      	str	r2, [sp, #44]	; 0x2c
   b6354:	e893 0006 	ldmia.w	r3, {r1, r2}
   b6358:	a883      	add	r0, sp, #524	; 0x20c
   b635a:	f7fe fe9b 	bl	b5094 <_ZNSt6vectorIiSaIiEEC2ESt16initializer_listIiERKS0_.constprop.0.isra.0>
Railway greenLine2MBTA = Railway{
   b635e:	ab83      	add	r3, sp, #524	; 0x20c
   b6360:	e9cd 8301 	strd	r8, r3, [sp, #4]
   b6364:	aba4      	add	r3, sp, #656	; 0x290
   b6366:	aa8c      	add	r2, sp, #560	; 0x230
   b6368:	a98f      	add	r1, sp, #572	; 0x23c
   b636a:	9300      	str	r3, [sp, #0]
   b636c:	4844      	ldr	r0, [pc, #272]	; (b6480 <_Z41__static_initialization_and_destruction_0ii.constprop.0+0x110c>)
   b636e:	462b      	mov	r3, r5
   b6370:	f7fe ff10 	bl	b5194 <_ZN7RailwayC1ESt6vectorI10CheckpointSaIS1_EES0_IiSaIiEES5_NSt7__cxx1112basic_stringIcSt11char_traitsIcESaIcEEES0_ISB_SaISB_EES5_>
   b6374:	a883      	add	r0, sp, #524	; 0x20c
   b6376:	f7fe f9e5 	bl	b4744 <_ZNSt12_Vector_baseIiSaIiEED1Ev>
};
   b637a:	4640      	mov	r0, r8
   b637c:	f7fe fa03 	bl	b4786 <_ZNSt6vectorINSt7__cxx1112basic_stringIcSt11char_traitsIcESaIcEEESaIS5_EED1Ev>
   b6380:	a8b6      	add	r0, sp, #728	; 0x2d8
   b6382:	f004 ff41 	bl	bb208 <_ZNSt7__cxx1112basic_stringIcSt11char_traitsIcESaIcEE10_M_disposeEv>
   b6386:	a8b0      	add	r0, sp, #704	; 0x2c0
   b6388:	f004 ff3e 	bl	bb208 <_ZNSt7__cxx1112basic_stringIcSt11char_traitsIcESaIcEE10_M_disposeEv>
   b638c:	a8a4      	add	r0, sp, #656	; 0x290
   b638e:	f004 ff3b 	bl	bb208 <_ZNSt7__cxx1112basic_stringIcSt11char_traitsIcESaIcEE10_M_disposeEv>
   b6392:	4628      	mov	r0, r5
   b6394:	f7fe f9d6 	bl	b4744 <_ZNSt12_Vector_baseIiSaIiEED1Ev>
   b6398:	a88c      	add	r0, sp, #560	; 0x230
   b639a:	f7fe f9d3 	bl	b4744 <_ZNSt12_Vector_baseIiSaIiEED1Ev>
   b639e:	a88f      	add	r0, sp, #572	; 0x23c
   b63a0:	f7fe f9bc 	bl	b471c <_ZNSt12_Vector_baseI10CheckpointSaIS0_EED1Ev>
	: _M_start(), _M_finish(), _M_end_of_storage()
   b63a4:	4b37      	ldr	r3, [pc, #220]	; (b6484 <_Z41__static_initialization_and_destruction_0ii.constprop.0+0x1110>)
const BleUuid serviceUuid("a73ba101-8192-4a51-b42d-ae9cd14b14a5");
   b63a6:	4938      	ldr	r1, [pc, #224]	; (b6488 <_Z41__static_initialization_and_destruction_0ii.constprop.0+0x1114>)
   b63a8:	609c      	str	r4, [r3, #8]
   b63aa:	e9c3 4400 	strd	r4, r4, [r3]
   b63ae:	4b37      	ldr	r3, [pc, #220]	; (b648c <_Z41__static_initialization_and_destruction_0ii.constprop.0+0x1118>)
   b63b0:	4837      	ldr	r0, [pc, #220]	; (b6490 <_Z41__static_initialization_and_destruction_0ii.constprop.0+0x111c>)
   b63b2:	609c      	str	r4, [r3, #8]
   b63b4:	e9c3 4400 	strd	r4, r4, [r3]
   b63b8:	4b36      	ldr	r3, [pc, #216]	; (b6494 <_Z41__static_initialization_and_destruction_0ii.constprop.0+0x1120>)
   b63ba:	4d37      	ldr	r5, [pc, #220]	; (b6498 <_Z41__static_initialization_and_destruction_0ii.constprop.0+0x1124>)
   b63bc:	609c      	str	r4, [r3, #8]
   b63be:	e9c3 4400 	strd	r4, r4, [r3]
   b63c2:	4b36      	ldr	r3, [pc, #216]	; (b649c <_Z41__static_initialization_and_destruction_0ii.constprop.0+0x1128>)
   b63c4:	f8df 80c8 	ldr.w	r8, [pc, #200]	; b6490 <_Z41__static_initialization_and_destruction_0ii.constprop.0+0x111c>
   b63c8:	609c      	str	r4, [r3, #8]
   b63ca:	e9c3 4400 	strd	r4, r4, [r3]
   b63ce:	4b34      	ldr	r3, [pc, #208]	; (b64a0 <_Z41__static_initialization_and_destruction_0ii.constprop.0+0x112c>)
   b63d0:	e9c3 4400 	strd	r4, r4, [r3]
   b63d4:	609c      	str	r4, [r3, #8]
   b63d6:	f002 fdbd 	bl	b8f54 <_ZN8particle7BleUuidC1EPKc>
const BleUuid rxUuid("6E400002-B5A3-F393-E0A9-E50E24DCCA9E");
   b63da:	4932      	ldr	r1, [pc, #200]	; (b64a4 <_Z41__static_initialization_and_destruction_0ii.constprop.0+0x1130>)
   b63dc:	4832      	ldr	r0, [pc, #200]	; (b64a8 <_Z41__static_initialization_and_destruction_0ii.constprop.0+0x1134>)
   b63de:	f002 fdb9 	bl	b8f54 <_ZN8particle7BleUuidC1EPKc>
const BleUuid txUuid("6E400003-B5A3-F393-E0A9-E50E24DCCA9E");
   b63e2:	4932      	ldr	r1, [pc, #200]	; (b64ac <_Z41__static_initialization_and_destruction_0ii.constprop.0+0x1138>)
   b63e4:	482c      	ldr	r0, [pc, #176]	; (b6498 <_Z41__static_initialization_and_destruction_0ii.constprop.0+0x1124>)
   b63e6:	f002 fdb5 	bl	b8f54 <_ZN8particle7BleUuidC1EPKc>
inline particle::EnumFlags<T, typename std::enable_if_t<std::is_enum<T>::value>>::EnumFlags()
        : value_(0) {
}

template<typename T>
inline particle::EnumFlags<T, typename std::enable_if_t<std::is_enum<T>::value>>::EnumFlags(const T& value) {
   b63ea:	cd0f      	ldmia	r5!, {r0, r1, r2, r3}
   b63ec:	465e      	mov	r6, fp
   b63ee:	c60f      	stmia	r6!, {r0, r1, r2, r3}
   b63f0:	e8b8 000f 	ldmia.w	r8!, {r0, r1, r2, r3}
   b63f4:	f8d5 c000 	ldr.w	ip, [r5]
   b63f8:	f8c7 c000 	str.w	ip, [r7]
   b63fc:	ad9d      	add	r5, sp, #628	; 0x274
   b63fe:	c50f      	stmia	r5!, {r0, r1, r2, r3}
   b6400:	46c1      	mov	r9, r8
   b6402:	9b04      	ldr	r3, [sp, #16]
   b6404:	f859 a910 	ldr.w	sl, [r9], #-16
   b6408:	f8c3 a000 	str.w	sl, [r3]
            : BleCharacteristic(properties, desc, (callback && instance) ? std::bind(callback, instance, _1, _2, _3) : (BleOnDataReceivedStdFunction)nullptr) {
    }

    template<typename T1, typename T2>
    BleCharacteristic(const char* desc, EnumFlags<BleCharacteristicProperty> properties, T1 charUuid, T2 svcUuid, BleOnDataReceivedCallback callback = nullptr, void* context = nullptr) {
        BleUuid cUuid(charUuid);
   b640c:	465d      	mov	r5, fp
   b640e:	cd0f      	ldmia	r5!, {r0, r1, r2, r3}
   b6410:	aea4      	add	r6, sp, #656	; 0x290
   b6412:	c60f      	stmia	r6!, {r0, r1, r2, r3}
#if __cplusplus > 201402L
      using weak_type = __weak_ptr<_Tp, _Lp>;
#endif

      constexpr __shared_ptr() noexcept
      : _M_ptr(0), _M_refcount()
   b6414:	f8df e09c 	ldr.w	lr, [pc, #156]	; b64b4 <_Z41__static_initialization_and_destruction_0ii.constprop.0+0x1140>
   b6418:	f8c6 c000 	str.w	ip, [r6]
        BleUuid sUuid(svcUuid);
   b641c:	f50d 7c1d 	add.w	ip, sp, #628	; 0x274
      constexpr __shared_count() noexcept : _M_pi(0)
   b6420:	e9ce 4400 	strd	r4, r4, [lr]
   b6424:	e8bc 000f 	ldmia.w	ip!, {r0, r1, r2, r3}
   b6428:	adb0      	add	r5, sp, #704	; 0x2c0
   b642a:	e045      	b.n	b64b8 <_Z41__static_initialization_and_destruction_0ii.constprop.0+0x1144>
   b642c:	20037e4c 	.word	0x20037e4c
   b6430:	42296555 	.word	0x42296555
   b6434:	c28e30ae 	.word	0xc28e30ae
   b6438:	42296847 	.word	0x42296847
   b643c:	c28e2445 	.word	0xc28e2445
   b6440:	422968cc 	.word	0x422968cc
   b6444:	c28e2106 	.word	0xc28e2106
   b6448:	422972cd 	.word	0x422972cd
   b644c:	c28e1db0 	.word	0xc28e1db0
   b6450:	42297777 	.word	0x42297777
   b6454:	c28e1f5e 	.word	0xc28e1f5e
   b6458:	42297668 	.word	0x42297668
   b645c:	c28e20d5 	.word	0xc28e20d5
   b6460:	42298291 	.word	0x42298291
   b6464:	c28e30ba 	.word	0xc28e30ba
   b6468:	000be43b 	.word	0x000be43b
   b646c:	000be4d9 	.word	0x000be4d9
   b6470:	000be4e0 	.word	0x000be4e0
   b6474:	2003546c 	.word	0x2003546c
   b6478:	422957f0 	.word	0x422957f0
   b647c:	c28e3351 	.word	0xc28e3351
   b6480:	200354d8 	.word	0x200354d8
   b6484:	20035450 	.word	0x20035450
   b6488:	000be524 	.word	0x000be524
   b648c:	20035460 	.word	0x20035460
   b6490:	200352bc 	.word	0x200352bc
   b6494:	20037dd4 	.word	0x20037dd4
   b6498:	200352e4 	.word	0x200352e4
   b649c:	200352f8 	.word	0x200352f8
   b64a0:	2003e69c 	.word	0x2003e69c
   b64a4:	000be549 	.word	0x000be549
   b64a8:	200352d0 	.word	0x200352d0
   b64ac:	000be56e 	.word	0x000be56e
   b64b0:	000be7a8 	.word	0x000be7a8
   b64b4:	2003e6ac 	.word	0x2003e6ac
   b64b8:	c50f      	stmia	r5!, {r0, r1, r2, r3}
        construct(desc, properties, cUuid, sUuid, callback, context);
   b64ba:	abb0      	add	r3, sp, #704	; 0x2c0
        BleUuid sUuid(svcUuid);
   b64bc:	f8c5 a000 	str.w	sl, [r5]
        construct(desc, properties, cUuid, sUuid, callback, context);
   b64c0:	4670      	mov	r0, lr
   b64c2:	e9cd 4401 	strd	r4, r4, [sp, #4]
   b64c6:	9300      	str	r3, [sp, #0]
   b64c8:	4974      	ldr	r1, [pc, #464]	; (b669c <_Z41__static_initialization_and_destruction_0ii.constprop.0+0x1328>)
   b64ca:	aba4      	add	r3, sp, #656	; 0x290
   b64cc:	f04f 0210 	mov.w	r2, #16
   b64d0:	f003 faaa 	bl	b9a28 <_ZN8particle17BleCharacteristic9constructEPKcNS_9EnumFlagsINS_25BleCharacteristicPropertyEvEERNS_7BleUuidES7_PFvPKhjRKNS_13BlePeerDeviceEPvESD_>
   b64d4:	f8df c250 	ldr.w	ip, [pc, #592]	; b6728 <_Z41__static_initialization_and_destruction_0ii.constprop.0+0x13b4>
   b64d8:	e8bc 000f 	ldmia.w	ip!, {r0, r1, r2, r3}
   b64dc:	46de      	mov	lr, fp
   b64de:	e8ae 000f 	stmia.w	lr!, {r0, r1, r2, r3}
   b64e2:	e8b9 000f 	ldmia.w	r9!, {r0, r1, r2, r3}
   b64e6:	f8dc e000 	ldr.w	lr, [ip]
   b64ea:	f8c7 e000 	str.w	lr, [r7]
   b64ee:	f50d 7c1d 	add.w	ip, sp, #628	; 0x274
   b64f2:	e8ac 000f 	stmia.w	ip!, {r0, r1, r2, r3}
   b64f6:	9b04      	ldr	r3, [sp, #16]
   b64f8:	f8d8 9000 	ldr.w	r9, [r8]
   b64fc:	f8c3 9000 	str.w	r9, [r3]
        BleUuid cUuid(charUuid);
   b6500:	46da      	mov	sl, fp
   b6502:	e8ba 000f 	ldmia.w	sl!, {r0, r1, r2, r3}
      : _M_ptr(0), _M_refcount()
   b6506:	f8df 81d8 	ldr.w	r8, [pc, #472]	; b66e0 <_Z41__static_initialization_and_destruction_0ii.constprop.0+0x136c>
   b650a:	f50d 7c24 	add.w	ip, sp, #656	; 0x290
   b650e:	e8ac 000f 	stmia.w	ip!, {r0, r1, r2, r3}
   b6512:	f8c6 e000 	str.w	lr, [r6]
        BleUuid sUuid(svcUuid);
   b6516:	ae9d      	add	r6, sp, #628	; 0x274
      constexpr __shared_count() noexcept : _M_pi(0)
   b6518:	e9c8 4400 	strd	r4, r4, [r8]
   b651c:	ce0f      	ldmia	r6!, {r0, r1, r2, r3}
   b651e:	f50d 7c30 	add.w	ip, sp, #704	; 0x2c0
   b6522:	e8ac 000f 	stmia.w	ip!, {r0, r1, r2, r3}
        construct(desc, properties, cUuid, sUuid, callback, context);
   b6526:	4b5e      	ldr	r3, [pc, #376]	; (b66a0 <_Z41__static_initialization_and_destruction_0ii.constprop.0+0x132c>)
        BleUuid sUuid(svcUuid);
   b6528:	f8c5 9000 	str.w	r9, [r5]
        construct(desc, properties, cUuid, sUuid, callback, context);
   b652c:	9301      	str	r3, [sp, #4]
   b652e:	abb0      	add	r3, sp, #704	; 0x2c0
   b6530:	f04f 0204 	mov.w	r2, #4
   b6534:	9402      	str	r4, [sp, #8]
   b6536:	9300      	str	r3, [sp, #0]
   b6538:	4640      	mov	r0, r8
   b653a:	aba4      	add	r3, sp, #656	; 0x290
   b653c:	4959      	ldr	r1, [pc, #356]	; (b66a4 <_Z41__static_initialization_and_destruction_0ii.constprop.0+0x1330>)
public:
	/**
	 * @brief Construct a JsonParser using a static buffer and static maximum number of tokens.
	 */
	explicit JsonParserStatic() : JsonParser(staticBuffer, BUFFER_SIZE, staticTokens, MAX_TOKENS) {};
   b653e:	4c5a      	ldr	r4, [pc, #360]	; (b66a8 <_Z41__static_initialization_and_destruction_0ii.constprop.0+0x1334>)
   b6540:	f003 fa72 	bl	b9a28 <_ZN8particle17BleCharacteristic9constructEPKcNS_9EnumFlagsINS_25BleCharacteristicPropertyEvEERNS_7BleUuidES7_PFvPKhjRKNS_13BlePeerDeviceEPvESD_>
  String path;
  // TODO: Look at setting the port by default.
  //int port = 80;
  int port;
  String body;
} http_request_t;
   b6544:	4959      	ldr	r1, [pc, #356]	; (b66ac <_Z41__static_initialization_and_destruction_0ii.constprop.0+0x1338>)
   b6546:	485a      	ldr	r0, [pc, #360]	; (b66b0 <_Z41__static_initialization_and_destruction_0ii.constprop.0+0x133c>)
   b6548:	f003 ff91 	bl	ba46e <_ZN6StringC1EPK19__FlashStringHelper>
   b654c:	4859      	ldr	r0, [pc, #356]	; (b66b4 <_Z41__static_initialization_and_destruction_0ii.constprop.0+0x1340>)
   b654e:	f003 fd9b 	bl	ba088 <_ZN9IPAddressC1Ev>
   b6552:	4956      	ldr	r1, [pc, #344]	; (b66ac <_Z41__static_initialization_and_destruction_0ii.constprop.0+0x1338>)
   b6554:	4858      	ldr	r0, [pc, #352]	; (b66b8 <_Z41__static_initialization_and_destruction_0ii.constprop.0+0x1344>)
   b6556:	f003 ff8a 	bl	ba46e <_ZN6StringC1EPK19__FlashStringHelper>
   b655a:	4954      	ldr	r1, [pc, #336]	; (b66ac <_Z41__static_initialization_and_destruction_0ii.constprop.0+0x1338>)
   b655c:	4857      	ldr	r0, [pc, #348]	; (b66bc <_Z41__static_initialization_and_destruction_0ii.constprop.0+0x1348>)
   b655e:	f003 ff86 	bl	ba46e <_ZN6StringC1EPK19__FlashStringHelper>
 */
typedef struct
{
  int status;
  String body;
} http_response_t;
   b6562:	4952      	ldr	r1, [pc, #328]	; (b66ac <_Z41__static_initialization_and_destruction_0ii.constprop.0+0x1338>)
   b6564:	4856      	ldr	r0, [pc, #344]	; (b66c0 <_Z41__static_initialization_and_destruction_0ii.constprop.0+0x134c>)
   b6566:	f003 ff82 	bl	ba46e <_ZN6StringC1EPK19__FlashStringHelper>
HttpClient http;
   b656a:	4856      	ldr	r0, [pc, #344]	; (b66c4 <_Z41__static_initialization_and_destruction_0ii.constprop.0+0x1350>)
   b656c:	f001 fa14 	bl	b7998 <_ZN10HttpClientC1Ev>
   b6570:	f44f 737a 	mov.w	r3, #1000	; 0x3e8
   b6574:	9300      	str	r3, [sp, #0]
   b6576:	f242 7210 	movw	r2, #10000	; 0x2710
   b657a:	f104 012c 	add.w	r1, r4, #44	; 0x2c
   b657e:	4b52      	ldr	r3, [pc, #328]	; (b66c8 <_Z41__static_initialization_and_destruction_0ii.constprop.0+0x1354>)
   b6580:	4620      	mov	r0, r4
   b6582:	f001 fbe1 	bl	b7d48 <_ZN10JsonParserC1EPcjPN21JsonParserGeneratorRK9jsmntok_tEj>
   b6586:	4b51      	ldr	r3, [pc, #324]	; (b66cc <_Z41__static_initialization_and_destruction_0ii.constprop.0+0x1358>)
String SSID = "";
   b6588:	4948      	ldr	r1, [pc, #288]	; (b66ac <_Z41__static_initialization_and_destruction_0ii.constprop.0+0x1338>)
   b658a:	6023      	str	r3, [r4, #0]
   b658c:	4850      	ldr	r0, [pc, #320]	; (b66d0 <_Z41__static_initialization_and_destruction_0ii.constprop.0+0x135c>)
   b658e:	f003 ff6e 	bl	ba46e <_ZN6StringC1EPK19__FlashStringHelper>
String password = "";
   b6592:	4946      	ldr	r1, [pc, #280]	; (b66ac <_Z41__static_initialization_and_destruction_0ii.constprop.0+0x1338>)
   b6594:	484f      	ldr	r0, [pc, #316]	; (b66d4 <_Z41__static_initialization_and_destruction_0ii.constprop.0+0x1360>)
   b6596:	f50d 7d41 	add.w	sp, sp, #772	; 0x304
   b659a:	ecbd 8b0e 	vpop	{d8-d14}
   b659e:	e8bd 4ff0 	ldmia.w	sp!, {r4, r5, r6, r7, r8, r9, sl, fp, lr}
String password = "";
   b65a2:	f003 bf64 	b.w	ba46e <_ZN6StringC1EPK19__FlashStringHelper>
   b65a6:	484b      	ldr	r0, [pc, #300]	; (b66d4 <_Z41__static_initialization_and_destruction_0ii.constprop.0+0x1360>)
   b65a8:	f003 ff16 	bl	ba3d8 <_ZN6StringD1Ev>
String SSID = "";
   b65ac:	4848      	ldr	r0, [pc, #288]	; (b66d0 <_Z41__static_initialization_and_destruction_0ii.constprop.0+0x135c>)
   b65ae:	f003 ff13 	bl	ba3d8 <_ZN6StringD1Ev>
JsonParserStatic<10000, 1000> parser;
   b65b2:	483d      	ldr	r0, [pc, #244]	; (b66a8 <_Z41__static_initialization_and_destruction_0ii.constprop.0+0x1334>)
   b65b4:	f7fd fd80 	bl	b40b8 <_ZN16JsonParserStaticILj10000ELj1000EED1Ev>
class TCPClient : public Client {

public:
    TCPClient();
    TCPClient(sock_handle_t sock);
    virtual ~TCPClient() {};
   b65b8:	4b42      	ldr	r3, [pc, #264]	; (b66c4 <_Z41__static_initialization_and_destruction_0ii.constprop.0+0x1350>)
   b65ba:	4a47      	ldr	r2, [pc, #284]	; (b66d8 <_Z41__static_initialization_and_destruction_0ii.constprop.0+0x1364>)
	if (_M_pi != nullptr)
   b65bc:	699c      	ldr	r4, [r3, #24]
   b65be:	601a      	str	r2, [r3, #0]
   b65c0:	b17c      	cbz	r4, b65e2 <_Z41__static_initialization_and_destruction_0ii.constprop.0+0x126e>
      if (--_M_use_count == 0)
   b65c2:	6863      	ldr	r3, [r4, #4]
   b65c4:	3b01      	subs	r3, #1
   b65c6:	6063      	str	r3, [r4, #4]
   b65c8:	b95b      	cbnz	r3, b65e2 <_Z41__static_initialization_and_destruction_0ii.constprop.0+0x126e>
          _M_dispose();
   b65ca:	6823      	ldr	r3, [r4, #0]
   b65cc:	4620      	mov	r0, r4
   b65ce:	689b      	ldr	r3, [r3, #8]
   b65d0:	4798      	blx	r3
          if (--_M_weak_count == 0)
   b65d2:	68a3      	ldr	r3, [r4, #8]
   b65d4:	3b01      	subs	r3, #1
   b65d6:	60a3      	str	r3, [r4, #8]
   b65d8:	b91b      	cbnz	r3, b65e2 <_Z41__static_initialization_and_destruction_0ii.constprop.0+0x126e>
            _M_destroy();
   b65da:	6823      	ldr	r3, [r4, #0]
   b65dc:	4620      	mov	r0, r4
   b65de:	68db      	ldr	r3, [r3, #12]
   b65e0:	4798      	blx	r3
   b65e2:	4837      	ldr	r0, [pc, #220]	; (b66c0 <_Z41__static_initialization_and_destruction_0ii.constprop.0+0x134c>)
	std::_Destroy(this->_M_impl._M_start, this->_M_impl._M_finish,
   b65e4:	4c3d      	ldr	r4, [pc, #244]	; (b66dc <_Z41__static_initialization_and_destruction_0ii.constprop.0+0x1368>)
   b65e6:	f003 fef7 	bl	ba3d8 <_ZN6StringD1Ev>
} http_request_t;
   b65ea:	4834      	ldr	r0, [pc, #208]	; (b66bc <_Z41__static_initialization_and_destruction_0ii.constprop.0+0x1348>)
   b65ec:	f003 fef4 	bl	ba3d8 <_ZN6StringD1Ev>
   b65f0:	4831      	ldr	r0, [pc, #196]	; (b66b8 <_Z41__static_initialization_and_destruction_0ii.constprop.0+0x1344>)
   b65f2:	f003 fef1 	bl	ba3d8 <_ZN6StringD1Ev>
   b65f6:	482e      	ldr	r0, [pc, #184]	; (b66b0 <_Z41__static_initialization_and_destruction_0ii.constprop.0+0x133c>)
   b65f8:	f003 feee 	bl	ba3d8 <_ZN6StringD1Ev>
BleCharacteristic rxCharacteristic("rx", BleCharacteristicProperty::WRITE_WO_RSP, rxUuid, serviceUuid, onDataReceived, NULL);
   b65fc:	4838      	ldr	r0, [pc, #224]	; (b66e0 <_Z41__static_initialization_and_destruction_0ii.constprop.0+0x136c>)
   b65fe:	f002 fefa 	bl	b93f6 <_ZN8particle17BleCharacteristicD1Ev>
BleCharacteristic txCharacteristic("tx", BleCharacteristicProperty::NOTIFY, txUuid, serviceUuid);
   b6602:	4838      	ldr	r0, [pc, #224]	; (b66e4 <_Z41__static_initialization_and_destruction_0ii.constprop.0+0x1370>)
   b6604:	f002 fef7 	bl	b93f6 <_ZN8particle17BleCharacteristicD1Ev>
      }
   b6608:	4837      	ldr	r0, [pc, #220]	; (b66e8 <_Z41__static_initialization_and_destruction_0ii.constprop.0+0x1374>)
   b660a:	f7fe f89b 	bl	b4744 <_ZNSt12_Vector_baseIiSaIiEED1Ev>
   b660e:	4837      	ldr	r0, [pc, #220]	; (b66ec <_Z41__static_initialization_and_destruction_0ii.constprop.0+0x1378>)
   b6610:	f7fe f898 	bl	b4744 <_ZNSt12_Vector_baseIiSaIiEED1Ev>
std::vector<Railway> ctaRailways, mbtaRailways;
   b6614:	4836      	ldr	r0, [pc, #216]	; (b66f0 <_Z41__static_initialization_and_destruction_0ii.constprop.0+0x137c>)
   b6616:	f7fe fcf8 	bl	b500a <_ZNSt6vectorI7RailwaySaIS0_EED1Ev>
   b661a:	4836      	ldr	r0, [pc, #216]	; (b66f4 <_Z41__static_initialization_and_destruction_0ii.constprop.0+0x1380>)
   b661c:	f7fe fcf5 	bl	b500a <_ZNSt6vectorI7RailwaySaIS0_EED1Ev>
	__destroy(__first, __last);
   b6620:	e9d4 0100 	ldrd	r0, r1, [r4]
   b6624:	f7fe fcff 	bl	b5026 <_ZNSt12_Destroy_auxILb0EE9__destroyIP4CityEEvT_S4_>
	_M_deallocate(_M_impl._M_start,
   b6628:	6820      	ldr	r0, [r4, #0]
	if (__p)
   b662a:	b118      	cbz	r0, b6634 <_Z41__static_initialization_and_destruction_0ii.constprop.0+0x12c0>
		      _M_impl._M_end_of_storage - _M_impl._M_start);
   b662c:	68a1      	ldr	r1, [r4, #8]
   b662e:	1a09      	subs	r1, r1, r0
   b6630:	f7fd fd37 	bl	b40a2 <_ZdlPvj>
Railway greenLine2MBTA = Railway{
   b6634:	4830      	ldr	r0, [pc, #192]	; (b66f8 <_Z41__static_initialization_and_destruction_0ii.constprop.0+0x1384>)
   b6636:	f7fe fcbd 	bl	b4fb4 <_ZN7RailwayD1Ev>
Railway greenLine1MBTA = Railway{
   b663a:	4830      	ldr	r0, [pc, #192]	; (b66fc <_Z41__static_initialization_and_destruction_0ii.constprop.0+0x1388>)
   b663c:	f7fe fcba 	bl	b4fb4 <_ZN7RailwayD1Ev>
Railway orangeLineMBTA = Railway{
   b6640:	482f      	ldr	r0, [pc, #188]	; (b6700 <_Z41__static_initialization_and_destruction_0ii.constprop.0+0x138c>)
   b6642:	f7fe fcb7 	bl	b4fb4 <_ZN7RailwayD1Ev>
Railway blueLineMBTA = Railway{
   b6646:	482f      	ldr	r0, [pc, #188]	; (b6704 <_Z41__static_initialization_and_destruction_0ii.constprop.0+0x1390>)
   b6648:	f7fe fcb4 	bl	b4fb4 <_ZN7RailwayD1Ev>
Railway redLineMBTA = Railway{
   b664c:	482e      	ldr	r0, [pc, #184]	; (b6708 <_Z41__static_initialization_and_destruction_0ii.constprop.0+0x1394>)
   b664e:	f7fe fcb1 	bl	b4fb4 <_ZN7RailwayD1Ev>
Railway pinkLineCTA = Railway(
   b6652:	482e      	ldr	r0, [pc, #184]	; (b670c <_Z41__static_initialization_and_destruction_0ii.constprop.0+0x1398>)
   b6654:	f7fe fcae 	bl	b4fb4 <_ZN7RailwayD1Ev>
Railway purpleLineCTA = Railway(
   b6658:	482d      	ldr	r0, [pc, #180]	; (b6710 <_Z41__static_initialization_and_destruction_0ii.constprop.0+0x139c>)
   b665a:	f7fe fcab 	bl	b4fb4 <_ZN7RailwayD1Ev>
Railway orangeLineCTA = Railway(
   b665e:	482d      	ldr	r0, [pc, #180]	; (b6714 <_Z41__static_initialization_and_destruction_0ii.constprop.0+0x13a0>)
   b6660:	f7fe fca8 	bl	b4fb4 <_ZN7RailwayD1Ev>
Railway greenLineCTA = Railway(
   b6664:	482c      	ldr	r0, [pc, #176]	; (b6718 <_Z41__static_initialization_and_destruction_0ii.constprop.0+0x13a4>)
   b6666:	f7fe fca5 	bl	b4fb4 <_ZN7RailwayD1Ev>
Railway brownLineCTA = Railway(
   b666a:	482c      	ldr	r0, [pc, #176]	; (b671c <_Z41__static_initialization_and_destruction_0ii.constprop.0+0x13a8>)
   b666c:	f7fe fca2 	bl	b4fb4 <_ZN7RailwayD1Ev>
Railway blueLineCTA = Railway(
   b6670:	482b      	ldr	r0, [pc, #172]	; (b6720 <_Z41__static_initialization_and_destruction_0ii.constprop.0+0x13ac>)
   b6672:	f7fe fc9f 	bl	b4fb4 <_ZN7RailwayD1Ev>
Railway redLineCTA = Railway(
   b6676:	482b      	ldr	r0, [pc, #172]	; (b6724 <_Z41__static_initialization_and_destruction_0ii.constprop.0+0x13b0>)
   b6678:	f7fe fc9c 	bl	b4fb4 <_ZN7RailwayD1Ev>
        if (wakeupSource_) {
   b667c:	6828      	ldr	r0, [r5, #0]
   b667e:	b138      	cbz	r0, b6690 <_Z41__static_initialization_and_destruction_0ii.constprop.0+0x131c>
   b6680:	f50d 7d41 	add.w	sp, sp, #772	; 0x304
   b6684:	ecbd 8b0e 	vpop	{d8-d14}
   b6688:	e8bd 4ff0 	ldmia.w	sp!, {r4, r5, r6, r7, r8, r9, sl, fp, lr}
            free(wakeupSource_);
   b668c:	f002 ba0e 	b.w	b8aac <free>
   b6690:	f50d 7d41 	add.w	sp, sp, #772	; 0x304
   b6694:	ecbd 8b0e 	vpop	{d8-d14}
   b6698:	e8bd 8ff0 	ldmia.w	sp!, {r4, r5, r6, r7, r8, r9, sl, fp, pc}
   b669c:	000be593 	.word	0x000be593
   b66a0:	000b492d 	.word	0x000b492d
   b66a4:	000be596 	.word	0x000be596
   b66a8:	20037eb8 	.word	0x20037eb8
   b66ac:	000be7fe 	.word	0x000be7fe
   b66b0:	2003e634 	.word	0x2003e634
   b66b4:	2003e644 	.word	0x2003e644
   b66b8:	2003e65c 	.word	0x2003e65c
   b66bc:	2003e670 	.word	0x2003e670
   b66c0:	2003e684 	.word	0x2003e684
   b66c4:	200355b8 	.word	0x200355b8
   b66c8:	2003a5f4 	.word	0x2003a5f4
   b66cc:	000be654 	.word	0x000be654
   b66d0:	200352a0 	.word	0x200352a0
   b66d4:	2003e474 	.word	0x2003e474
   b66d8:	000beb08 	.word	0x000beb08
   b66dc:	20035450 	.word	0x20035450
   b66e0:	2003e694 	.word	0x2003e694
   b66e4:	2003e6ac 	.word	0x2003e6ac
   b66e8:	2003e69c 	.word	0x2003e69c
   b66ec:	200352f8 	.word	0x200352f8
   b66f0:	20037dd4 	.word	0x20037dd4
   b66f4:	20035460 	.word	0x20035460
   b66f8:	200354d8 	.word	0x200354d8
   b66fc:	2003546c 	.word	0x2003546c
   b6700:	20037e4c 	.word	0x20037e4c
   b6704:	20035374 	.word	0x20035374
   b6708:	2003e5c8 	.word	0x2003e5c8
   b670c:	2003e484 	.word	0x2003e484
   b6710:	2003e4f0 	.word	0x2003e4f0
   b6714:	20037de0 	.word	0x20037de0
   b6718:	20035544 	.word	0x20035544
   b671c:	200353e0 	.word	0x200353e0
   b6720:	20035308 	.word	0x20035308
   b6724:	2003e55c 	.word	0x2003e55c
   b6728:	200352d0 	.word	0x200352d0

000b672c <_ZNSt11__copy_moveILb0ELb1ESt26random_access_iterator_tagE8__copy_mIfEEPT_PKS3_S6_S4_>:
	  if (_Num)
   b672c:	4281      	cmp	r1, r0
	__copy_m(const _Tp* __first, const _Tp* __last, _Tp* __result)
   b672e:	b510      	push	{r4, lr}
   b6730:	4613      	mov	r3, r2
	  const ptrdiff_t _Num = __last - __first;
   b6732:	eba1 0400 	sub.w	r4, r1, r0
	  if (_Num)
   b6736:	d005      	beq.n	b6744 <_ZNSt11__copy_moveILb0ELb1ESt26random_access_iterator_tagE8__copy_mIfEEPT_PKS3_S6_S4_+0x18>
	    __builtin_memmove(__result, __first, sizeof(_Tp) * _Num);
   b6738:	4601      	mov	r1, r0
   b673a:	4622      	mov	r2, r4
   b673c:	4618      	mov	r0, r3
   b673e:	f005 fd21 	bl	bc184 <memmove>
   b6742:	4603      	mov	r3, r0
	}
   b6744:	1918      	adds	r0, r3, r4
   b6746:	bd10      	pop	{r4, pc}

000b6748 <_ZN7RailwayC1ERKS_>:
class Railway{
   b6748:	e92d 41f0 	stmdb	sp!, {r4, r5, r6, r7, r8, lr}
   b674c:	460d      	mov	r5, r1
   b674e:	4604      	mov	r4, r0
   b6750:	f7fe f8b6 	bl	b48c0 <_ZNSt6vectorI10CheckpointSaIS0_EEC1ERKS2_>
      { return size_type(this->_M_impl._M_finish - this->_M_impl._M_start); }
   b6754:	e9d5 3103 	ldrd	r3, r1, [r5, #12]
	: _M_start(), _M_finish(), _M_end_of_storage()
   b6758:	2600      	movs	r6, #0
      { return size_type(this->_M_impl._M_finish - this->_M_impl._M_start); }
   b675a:	1ac9      	subs	r1, r1, r3
	: _M_start(), _M_finish(), _M_end_of_storage()
   b675c:	e9c4 6603 	strd	r6, r6, [r4, #12]
   b6760:	6166      	str	r6, [r4, #20]
      { _M_create_storage(__n); }
   b6762:	1089      	asrs	r1, r1, #2
   b6764:	f104 000c 	add.w	r0, r4, #12
   b6768:	f7fe fc04 	bl	b4f74 <_ZNSt12_Vector_baseIfSaIfEE17_M_create_storageEj>
			      _Category>::__copy_m(__first, __last, __result);
   b676c:	68e2      	ldr	r2, [r4, #12]
   b676e:	e9d5 0103 	ldrd	r0, r1, [r5, #12]
   b6772:	f7ff ffdb 	bl	b672c <_ZNSt11__copy_moveILb0ELb1ESt26random_access_iterator_tagE8__copy_mIfEEPT_PKS3_S6_S4_>
   b6776:	f105 0118 	add.w	r1, r5, #24
	this->_M_impl._M_finish =
   b677a:	6120      	str	r0, [r4, #16]
   b677c:	f104 0018 	add.w	r0, r4, #24
   b6780:	f7fe fc6e 	bl	b5060 <_ZNSt6vectorIiSaIiEEC1ERKS1_>
      { return size_type(this->_M_impl._M_finish - this->_M_impl._M_start); }
   b6784:	e9d5 3709 	ldrd	r3, r7, [r5, #36]	; 0x24
	this->_M_impl._M_start = this->_M_allocate(__n);
   b6788:	4826      	ldr	r0, [pc, #152]	; (b6824 <_ZN7RailwayC1ERKS_+0xdc>)
	: _M_start(), _M_finish(), _M_end_of_storage()
   b678a:	62e6      	str	r6, [r4, #44]	; 0x2c
      { return size_type(this->_M_impl._M_finish - this->_M_impl._M_start); }
   b678c:	1aff      	subs	r7, r7, r3
   b678e:	10bb      	asrs	r3, r7, #2
	: _M_start(), _M_finish(), _M_end_of_storage()
   b6790:	e9c4 6609 	strd	r6, r6, [r4, #36]	; 0x24
	this->_M_impl._M_start = this->_M_allocate(__n);
   b6794:	4358      	muls	r0, r3
   b6796:	f7fd fca5 	bl	b40e4 <_ZNSt12_Vector_baseISt6vectorIiSaIiEESaIS2_EE11_M_allocateEj.isra.0>
	this->_M_impl._M_finish = this->_M_impl._M_start;
   b679a:	e9c4 0009 	strd	r0, r0, [r4, #36]	; 0x24
	this->_M_impl._M_end_of_storage = this->_M_impl._M_start + __n;
   b679e:	4407      	add	r7, r0
   b67a0:	62e7      	str	r7, [r4, #44]	; 0x2c
      __normal_iterator(const _Iterator& __i) _GLIBCXX_NOEXCEPT
   b67a2:	e9d5 7809 	ldrd	r7, r8, [r5, #36]	; 0x24
	this->_M_impl._M_start = this->_M_allocate(__n);
   b67a6:	4606      	mov	r6, r0
   b67a8:	45b8      	cmp	r8, r7
   b67aa:	d007      	beq.n	b67bc <_ZN7RailwayC1ERKS_+0x74>
    { ::new(static_cast<void*>(__p)) _Tp(std::forward<_Args>(__args)...); }
   b67ac:	b11e      	cbz	r6, b67b6 <_ZN7RailwayC1ERKS_+0x6e>
   b67ae:	4639      	mov	r1, r7
   b67b0:	4630      	mov	r0, r6
   b67b2:	f7fe fc55 	bl	b5060 <_ZNSt6vectorIiSaIiEEC1ERKS1_>
   b67b6:	360c      	adds	r6, #12
   b67b8:	370c      	adds	r7, #12
   b67ba:	e7f5      	b.n	b67a8 <_ZN7RailwayC1ERKS_+0x60>
	this->_M_impl._M_finish =
   b67bc:	62a6      	str	r6, [r4, #40]	; 0x28
   b67be:	f105 0130 	add.w	r1, r5, #48	; 0x30
   b67c2:	f104 0030 	add.w	r0, r4, #48	; 0x30
   b67c6:	f7fd fd05 	bl	b41d4 <_ZNSt7__cxx1112basic_stringIcSt11char_traitsIcESaIcEEC2ERKS4_.isra.0>
      { return size_type(this->_M_impl._M_finish - this->_M_impl._M_start); }
   b67ca:	e9d5 3712 	ldrd	r3, r7, [r5, #72]	; 0x48
	this->_M_impl._M_start = this->_M_allocate(__n);
   b67ce:	4815      	ldr	r0, [pc, #84]	; (b6824 <_ZN7RailwayC1ERKS_+0xdc>)
      { return size_type(this->_M_impl._M_finish - this->_M_impl._M_start); }
   b67d0:	1aff      	subs	r7, r7, r3
	: _M_start(), _M_finish(), _M_end_of_storage()
   b67d2:	2300      	movs	r3, #0
   b67d4:	e9c4 3312 	strd	r3, r3, [r4, #72]	; 0x48
   b67d8:	6523      	str	r3, [r4, #80]	; 0x50
      { return size_type(this->_M_impl._M_finish - this->_M_impl._M_start); }
   b67da:	10fb      	asrs	r3, r7, #3
	this->_M_impl._M_start = this->_M_allocate(__n);
   b67dc:	4358      	muls	r0, r3
   b67de:	f7fd fccd 	bl	b417c <_ZNSt12_Vector_baseINSt7__cxx1112basic_stringIcSt11char_traitsIcESaIcEEESaIS5_EE11_M_allocateEj.isra.0>
	this->_M_impl._M_finish = this->_M_impl._M_start;
   b67e2:	e9c4 0012 	strd	r0, r0, [r4, #72]	; 0x48
	this->_M_impl._M_end_of_storage = this->_M_impl._M_start + __n;
   b67e6:	4407      	add	r7, r0
   b67e8:	6527      	str	r7, [r4, #80]	; 0x50
   b67ea:	e9d5 7812 	ldrd	r7, r8, [r5, #72]	; 0x48
	this->_M_impl._M_start = this->_M_allocate(__n);
   b67ee:	4606      	mov	r6, r0
   b67f0:	45b8      	cmp	r8, r7
   b67f2:	d007      	beq.n	b6804 <_ZN7RailwayC1ERKS_+0xbc>
   b67f4:	b11e      	cbz	r6, b67fe <_ZN7RailwayC1ERKS_+0xb6>
   b67f6:	4639      	mov	r1, r7
   b67f8:	4630      	mov	r0, r6
   b67fa:	f7fd fceb 	bl	b41d4 <_ZNSt7__cxx1112basic_stringIcSt11char_traitsIcESaIcEEC2ERKS4_.isra.0>
   b67fe:	3618      	adds	r6, #24
   b6800:	3718      	adds	r7, #24
   b6802:	e7f5      	b.n	b67f0 <_ZN7RailwayC1ERKS_+0xa8>
	this->_M_impl._M_finish =
   b6804:	64e6      	str	r6, [r4, #76]	; 0x4c
   b6806:	6d6b      	ldr	r3, [r5, #84]	; 0x54
   b6808:	6563      	str	r3, [r4, #84]	; 0x54
   b680a:	6dab      	ldr	r3, [r5, #88]	; 0x58
   b680c:	65a3      	str	r3, [r4, #88]	; 0x58
   b680e:	6deb      	ldr	r3, [r5, #92]	; 0x5c
   b6810:	65e3      	str	r3, [r4, #92]	; 0x5c
   b6812:	6e2b      	ldr	r3, [r5, #96]	; 0x60
   b6814:	6623      	str	r3, [r4, #96]	; 0x60
   b6816:	6e6b      	ldr	r3, [r5, #100]	; 0x64
   b6818:	6663      	str	r3, [r4, #100]	; 0x64
   b681a:	6eab      	ldr	r3, [r5, #104]	; 0x68
   b681c:	66a3      	str	r3, [r4, #104]	; 0x68
   b681e:	4620      	mov	r0, r4
   b6820:	e8bd 81f0 	ldmia.w	sp!, {r4, r5, r6, r7, r8, pc}
   b6824:	aaaaaaab 	.word	0xaaaaaaab

000b6828 <_ZNSt6vectorI7RailwaySaIS0_EEC1ERKS2_>:
      vector(const vector& __x)
   b6828:	b5f8      	push	{r3, r4, r5, r6, r7, lr}
      { return size_type(this->_M_impl._M_finish - this->_M_impl._M_start); }
   b682a:	e9d1 3700 	ldrd	r3, r7, [r1]
   b682e:	1aff      	subs	r7, r7, r3
	: _M_start(), _M_finish(), _M_end_of_storage()
   b6830:	2300      	movs	r3, #0
   b6832:	e9c0 3300 	strd	r3, r3, [r0]
      vector(const vector& __x)
   b6836:	4604      	mov	r4, r0
	: _M_start(), _M_finish(), _M_end_of_storage()
   b6838:	6083      	str	r3, [r0, #8]
	this->_M_impl._M_start = this->_M_allocate(__n);
   b683a:	480d      	ldr	r0, [pc, #52]	; (b6870 <_ZNSt6vectorI7RailwaySaIS0_EEC1ERKS2_+0x48>)
      { return size_type(this->_M_impl._M_finish - this->_M_impl._M_start); }
   b683c:	10bb      	asrs	r3, r7, #2
	this->_M_impl._M_start = this->_M_allocate(__n);
   b683e:	4358      	muls	r0, r3
      vector(const vector& __x)
   b6840:	460e      	mov	r6, r1
	this->_M_impl._M_start = this->_M_allocate(__n);
   b6842:	f7fd fc89 	bl	b4158 <_ZNSt12_Vector_baseI7RailwaySaIS0_EE11_M_allocateEj.isra.0>
	this->_M_impl._M_finish = this->_M_impl._M_start;
   b6846:	e9c4 0000 	strd	r0, r0, [r4]
	this->_M_impl._M_end_of_storage = this->_M_impl._M_start + __n;
   b684a:	4407      	add	r7, r0
   b684c:	60a7      	str	r7, [r4, #8]
   b684e:	e9d6 6700 	ldrd	r6, r7, [r6]
	this->_M_impl._M_start = this->_M_allocate(__n);
   b6852:	4605      	mov	r5, r0
   b6854:	42b7      	cmp	r7, r6
   b6856:	d007      	beq.n	b6868 <_ZNSt6vectorI7RailwaySaIS0_EEC1ERKS2_+0x40>
   b6858:	b11d      	cbz	r5, b6862 <_ZNSt6vectorI7RailwaySaIS0_EEC1ERKS2_+0x3a>
   b685a:	4631      	mov	r1, r6
   b685c:	4628      	mov	r0, r5
   b685e:	f7ff ff73 	bl	b6748 <_ZN7RailwayC1ERKS_>
   b6862:	356c      	adds	r5, #108	; 0x6c
   b6864:	366c      	adds	r6, #108	; 0x6c
   b6866:	e7f5      	b.n	b6854 <_ZNSt6vectorI7RailwaySaIS0_EEC1ERKS2_+0x2c>
	this->_M_impl._M_finish =
   b6868:	6065      	str	r5, [r4, #4]
      }
   b686a:	4620      	mov	r0, r4
   b686c:	bdf8      	pop	{r3, r4, r5, r6, r7, pc}
   b686e:	bf00      	nop
   b6870:	684bda13 	.word	0x684bda13

000b6874 <_ZNSt20__uninitialized_copyILb0EE13__uninit_copyIPK4CityPS2_EET0_T_S7_S6_>:
        __uninit_copy(_InputIterator __first, _InputIterator __last,
   b6874:	b570      	push	{r4, r5, r6, lr}
   b6876:	4605      	mov	r5, r0
   b6878:	460e      	mov	r6, r1
   b687a:	4614      	mov	r4, r2
	      for (; __first != __last; ++__first, (void)++__cur)
   b687c:	42b5      	cmp	r5, r6
   b687e:	d00f      	beq.n	b68a0 <_ZNSt20__uninitialized_copyILb0EE13__uninit_copyIPK4CityPS2_EET0_T_S7_S6_+0x2c>
   b6880:	b15c      	cbz	r4, b689a <_ZNSt20__uninitialized_copyILb0EE13__uninit_copyIPK4CityPS2_EET0_T_S7_S6_+0x26>
   b6882:	4629      	mov	r1, r5
   b6884:	4620      	mov	r0, r4
   b6886:	f7ff ffcf 	bl	b6828 <_ZNSt6vectorI7RailwaySaIS0_EEC1ERKS2_>
   b688a:	f105 010c 	add.w	r1, r5, #12
   b688e:	f104 000c 	add.w	r0, r4, #12
   b6892:	f7fd fc9f 	bl	b41d4 <_ZNSt7__cxx1112basic_stringIcSt11char_traitsIcESaIcEEC2ERKS4_.isra.0>
   b6896:	6a6b      	ldr	r3, [r5, #36]	; 0x24
   b6898:	6263      	str	r3, [r4, #36]	; 0x24
   b689a:	3528      	adds	r5, #40	; 0x28
   b689c:	3428      	adds	r4, #40	; 0x28
   b689e:	e7ed      	b.n	b687c <_ZNSt20__uninitialized_copyILb0EE13__uninit_copyIPK4CityPS2_EET0_T_S7_S6_+0x8>
	}
   b68a0:	4620      	mov	r0, r4
   b68a2:	bd70      	pop	{r4, r5, r6, pc}

000b68a4 <_ZN7RailwayaSERKS_.isra.0>:
   b68a4:	e92d 47f3 	stmdb	sp!, {r0, r1, r4, r5, r6, r7, r8, r9, sl, lr}
   b68a8:	4604      	mov	r4, r0
   b68aa:	460d      	mov	r5, r1
   b68ac:	f7fd fcce 	bl	b424c <_ZNSt6vectorI10CheckpointSaIS0_EEaSERKS2_.isra.0>
   b68b0:	f105 020c 	add.w	r2, r5, #12
   b68b4:	f104 030c 	add.w	r3, r4, #12
      if (&__x != this)
   b68b8:	429a      	cmp	r2, r3
   b68ba:	d025      	beq.n	b6908 <_ZN7RailwayaSERKS_.isra.0+0x64>
      { return size_type(this->_M_impl._M_finish - this->_M_impl._M_start); }
   b68bc:	e9d5 8103 	ldrd	r8, r1, [r5, #12]
			 - this->_M_impl._M_start); }
   b68c0:	68e2      	ldr	r2, [r4, #12]
   b68c2:	6963      	ldr	r3, [r4, #20]
      { return size_type(this->_M_impl._M_finish - this->_M_impl._M_start); }
   b68c4:	eba1 0608 	sub.w	r6, r1, r8
			 - this->_M_impl._M_start); }
   b68c8:	1a9b      	subs	r3, r3, r2
	  if (__xlen > capacity())
   b68ca:	429e      	cmp	r6, r3
   b68cc:	d94a      	bls.n	b6964 <_ZN7RailwayaSERKS_.isra.0+0xc0>
	return __n != 0 ? _Tr::allocate(_M_impl, __n) : pointer();
   b68ce:	2e00      	cmp	r6, #0
   b68d0:	d046      	beq.n	b6960 <_ZN7RailwayaSERKS_.isra.0+0xbc>
	if (__n > this->_M_max_size())
   b68d2:	4b5d      	ldr	r3, [pc, #372]	; (b6a48 <_ZN7RailwayaSERKS_.isra.0+0x1a4>)
   b68d4:	429e      	cmp	r6, r3
   b68d6:	d901      	bls.n	b68dc <_ZN7RailwayaSERKS_.isra.0+0x38>
	  std::__throw_bad_alloc();
   b68d8:	f004 fc5e 	bl	bb198 <_ZSt17__throw_bad_allocv>
	return static_cast<_Tp*>(::operator new(__n * sizeof(_Tp)));
   b68dc:	4630      	mov	r0, r6
   b68de:	9101      	str	r1, [sp, #4]
   b68e0:	f7fd fbd9 	bl	b4096 <_Znwj>
   b68e4:	9901      	ldr	r1, [sp, #4]
   b68e6:	4607      	mov	r7, r0
   b68e8:	463a      	mov	r2, r7
   b68ea:	4640      	mov	r0, r8
   b68ec:	f7ff ff1e 	bl	b672c <_ZNSt11__copy_moveILb0ELb1ESt26random_access_iterator_tagE8__copy_mIfEEPT_PKS3_S6_S4_>
	      std::_Destroy(this->_M_impl._M_start, this->_M_impl._M_finish,
   b68f0:	68e0      	ldr	r0, [r4, #12]
	if (__p)
   b68f2:	b118      	cbz	r0, b68fc <_ZN7RailwayaSERKS_.isra.0+0x58>
			    - this->_M_impl._M_start);
   b68f4:	6961      	ldr	r1, [r4, #20]
	::operator delete(__p
   b68f6:	1a09      	subs	r1, r1, r0
   b68f8:	f7fd fbd3 	bl	b40a2 <_ZdlPvj>
	      this->_M_impl._M_start = __tmp;
   b68fc:	60e7      	str	r7, [r4, #12]
	      this->_M_impl._M_end_of_storage = this->_M_impl._M_start + __xlen;
   b68fe:	4437      	add	r7, r6
   b6900:	6167      	str	r7, [r4, #20]
	  this->_M_impl._M_finish = this->_M_impl._M_start + __xlen;
   b6902:	68e3      	ldr	r3, [r4, #12]
   b6904:	4433      	add	r3, r6
   b6906:	6123      	str	r3, [r4, #16]
   b6908:	f105 0118 	add.w	r1, r5, #24
   b690c:	f104 0018 	add.w	r0, r4, #24
   b6910:	f7fe fbea 	bl	b50e8 <_ZNSt6vectorIiSaIiEEaSERKS1_.isra.0>
   b6914:	f105 0324 	add.w	r3, r5, #36	; 0x24
   b6918:	f104 0224 	add.w	r2, r4, #36	; 0x24
      if (&__x != this)
   b691c:	4293      	cmp	r3, r2
   b691e:	d045      	beq.n	b69ac <_ZN7RailwayaSERKS_.isra.0+0x108>
      { return size_type(this->_M_impl._M_finish - this->_M_impl._M_start); }
   b6920:	e9d5 6a09 	ldrd	r6, sl, [r5, #36]	; 0x24
			 - this->_M_impl._M_start); }
   b6924:	f8d4 9024 	ldr.w	r9, [r4, #36]	; 0x24
   b6928:	6ae3      	ldr	r3, [r4, #44]	; 0x2c
      { return size_type(this->_M_impl._M_finish - this->_M_impl._M_start); }
   b692a:	ebaa 0806 	sub.w	r8, sl, r6
			 - this->_M_impl._M_start); }
   b692e:	eba3 0309 	sub.w	r3, r3, r9
	  if (__xlen > capacity())
   b6932:	4543      	cmp	r3, r8
   b6934:	d255      	bcs.n	b69e2 <_ZN7RailwayaSERKS_.isra.0+0x13e>
	  pointer __result = this->_M_allocate(__n);
   b6936:	4845      	ldr	r0, [pc, #276]	; (b6a4c <_ZN7RailwayaSERKS_.isra.0+0x1a8>)
      { return size_type(this->_M_impl._M_finish - this->_M_impl._M_start); }
   b6938:	ea4f 03a8 	mov.w	r3, r8, asr #2
	  pointer __result = this->_M_allocate(__n);
   b693c:	4358      	muls	r0, r3
   b693e:	f7fd fbd1 	bl	b40e4 <_ZNSt12_Vector_baseISt6vectorIiSaIiEESaIS2_EE11_M_allocateEj.isra.0>
   b6942:	4607      	mov	r7, r0
	  _ForwardIterator __cur = __result;
   b6944:	4681      	mov	r9, r0
	      for (; __first != __last; ++__first, (void)++__cur)
   b6946:	45b2      	cmp	sl, r6
   b6948:	d020      	beq.n	b698c <_ZN7RailwayaSERKS_.isra.0+0xe8>
   b694a:	f1b9 0f00 	cmp.w	r9, #0
   b694e:	d003      	beq.n	b6958 <_ZN7RailwayaSERKS_.isra.0+0xb4>
   b6950:	4631      	mov	r1, r6
   b6952:	4648      	mov	r0, r9
   b6954:	f7fe fb84 	bl	b5060 <_ZNSt6vectorIiSaIiEEC1ERKS1_>
   b6958:	f109 090c 	add.w	r9, r9, #12
   b695c:	360c      	adds	r6, #12
   b695e:	e7f2      	b.n	b6946 <_ZN7RailwayaSERKS_.isra.0+0xa2>
	return __n != 0 ? _Tr::allocate(_M_impl, __n) : pointer();
   b6960:	4637      	mov	r7, r6
   b6962:	e7c1      	b.n	b68e8 <_ZN7RailwayaSERKS_.isra.0+0x44>
      { return size_type(this->_M_impl._M_finish - this->_M_impl._M_start); }
   b6964:	6923      	ldr	r3, [r4, #16]
   b6966:	1a9b      	subs	r3, r3, r2
	  else if (size() >= __xlen)
   b6968:	429e      	cmp	r6, r3
   b696a:	d803      	bhi.n	b6974 <_ZN7RailwayaSERKS_.isra.0+0xd0>
   b696c:	4640      	mov	r0, r8
   b696e:	f7ff fedd 	bl	b672c <_ZNSt11__copy_moveILb0ELb1ESt26random_access_iterator_tagE8__copy_mIfEEPT_PKS3_S6_S4_>
    { return std::uninitialized_copy(__first, __last, __result); }
   b6972:	e7c6      	b.n	b6902 <_ZN7RailwayaSERKS_.isra.0+0x5e>
   b6974:	eb08 0103 	add.w	r1, r8, r3
   b6978:	4640      	mov	r0, r8
   b697a:	f7ff fed7 	bl	b672c <_ZNSt11__copy_moveILb0ELb1ESt26random_access_iterator_tagE8__copy_mIfEEPT_PKS3_S6_S4_>
   b697e:	e9d4 0203 	ldrd	r0, r2, [r4, #12]
   b6982:	e9d5 3103 	ldrd	r3, r1, [r5, #12]
   b6986:	1a10      	subs	r0, r2, r0
   b6988:	4418      	add	r0, r3
   b698a:	e7f0      	b.n	b696e <_ZN7RailwayaSERKS_.isra.0+0xca>
	__destroy(__first, __last);
   b698c:	e9d4 0109 	ldrd	r0, r1, [r4, #36]	; 0x24
   b6990:	f7fe fb05 	bl	b4f9e <_ZNSt12_Destroy_auxILb0EE9__destroyIPSt6vectorIiSaIiEEEEvT_S6_>
	      _M_deallocate(this->_M_impl._M_start,
   b6994:	6a60      	ldr	r0, [r4, #36]	; 0x24
	if (__p)
   b6996:	b118      	cbz	r0, b69a0 <_ZN7RailwayaSERKS_.isra.0+0xfc>
			    - this->_M_impl._M_start);
   b6998:	6ae1      	ldr	r1, [r4, #44]	; 0x2c
   b699a:	1a09      	subs	r1, r1, r0
   b699c:	f7fd fb81 	bl	b40a2 <_ZdlPvj>
	      this->_M_impl._M_start = __tmp;
   b69a0:	6267      	str	r7, [r4, #36]	; 0x24
	      this->_M_impl._M_end_of_storage = this->_M_impl._M_start + __xlen;
   b69a2:	4447      	add	r7, r8
   b69a4:	62e7      	str	r7, [r4, #44]	; 0x2c
	  this->_M_impl._M_finish = this->_M_impl._M_start + __xlen;
   b69a6:	6a63      	ldr	r3, [r4, #36]	; 0x24
   b69a8:	4443      	add	r3, r8
   b69aa:	62a3      	str	r3, [r4, #40]	; 0x28
	this->_M_assign(__str);
   b69ac:	f105 0130 	add.w	r1, r5, #48	; 0x30
   b69b0:	f104 0030 	add.w	r0, r4, #48	; 0x30
   b69b4:	f004 fc46 	bl	bb244 <_ZNSt7__cxx1112basic_stringIcSt11char_traitsIcESaIcEE9_M_assignERKS4_>
   b69b8:	f105 0148 	add.w	r1, r5, #72	; 0x48
   b69bc:	f104 0048 	add.w	r0, r4, #72	; 0x48
   b69c0:	f7fd fc96 	bl	b42f0 <_ZNSt6vectorINSt7__cxx1112basic_stringIcSt11char_traitsIcESaIcEEESaIS5_EEaSERKS7_.isra.0>
   b69c4:	6d6b      	ldr	r3, [r5, #84]	; 0x54
   b69c6:	6563      	str	r3, [r4, #84]	; 0x54
   b69c8:	6dab      	ldr	r3, [r5, #88]	; 0x58
   b69ca:	65a3      	str	r3, [r4, #88]	; 0x58
   b69cc:	6deb      	ldr	r3, [r5, #92]	; 0x5c
   b69ce:	65e3      	str	r3, [r4, #92]	; 0x5c
   b69d0:	6e2b      	ldr	r3, [r5, #96]	; 0x60
   b69d2:	6623      	str	r3, [r4, #96]	; 0x60
   b69d4:	6e6b      	ldr	r3, [r5, #100]	; 0x64
   b69d6:	6663      	str	r3, [r4, #100]	; 0x64
   b69d8:	6eab      	ldr	r3, [r5, #104]	; 0x68
   b69da:	66a3      	str	r3, [r4, #104]	; 0x68
   b69dc:	b002      	add	sp, #8
   b69de:	e8bd 87f0 	ldmia.w	sp!, {r4, r5, r6, r7, r8, r9, sl, pc}
      { return size_type(this->_M_impl._M_finish - this->_M_impl._M_start); }
   b69e2:	6aa7      	ldr	r7, [r4, #40]	; 0x28
   b69e4:	eba7 0709 	sub.w	r7, r7, r9
	  else if (size() >= __xlen)
   b69e8:	45b8      	cmp	r8, r7
   b69ea:	d80d      	bhi.n	b6a08 <_ZN7RailwayaSERKS_.isra.0+0x164>
   b69ec:	4630      	mov	r0, r6
   b69ee:	464a      	mov	r2, r9
   b69f0:	4651      	mov	r1, sl
   b69f2:	f7fe fbb1 	bl	b5158 <_ZNSt11__copy_moveILb0ELb0ESt26random_access_iterator_tagE8__copy_mIPKSt6vectorIiSaIiEEPS5_EET0_T_SA_S9_>
      : _M_current(__i) { }
   b69f6:	6aa7      	ldr	r7, [r4, #40]	; 0x28
	__destroy(_ForwardIterator __first, _ForwardIterator __last)
   b69f8:	4606      	mov	r6, r0
	  for (; __first != __last; ++__first)
   b69fa:	42b7      	cmp	r7, r6
   b69fc:	d0d3      	beq.n	b69a6 <_ZN7RailwayaSERKS_.isra.0+0x102>
      }
   b69fe:	4630      	mov	r0, r6
   b6a00:	f7fd fea0 	bl	b4744 <_ZNSt12_Vector_baseIiSaIiEED1Ev>
      operator++() _GLIBCXX_NOEXCEPT
   b6a04:	360c      	adds	r6, #12
	return *this;
   b6a06:	e7f8      	b.n	b69fa <_ZN7RailwayaSERKS_.isra.0+0x156>
	  for(_Distance __n = __last - __first; __n > 0; --__n)
   b6a08:	4b10      	ldr	r3, [pc, #64]	; (b6a4c <_ZN7RailwayaSERKS_.isra.0+0x1a8>)
   b6a0a:	10bf      	asrs	r7, r7, #2
   b6a0c:	435f      	muls	r7, r3
   b6a0e:	2f00      	cmp	r7, #0
   b6a10:	dd08      	ble.n	b6a24 <_ZN7RailwayaSERKS_.isra.0+0x180>
	      *__result = *__first;
   b6a12:	4631      	mov	r1, r6
   b6a14:	4648      	mov	r0, r9
   b6a16:	f7fe fb67 	bl	b50e8 <_ZNSt6vectorIiSaIiEEaSERKS1_.isra.0>
	      ++__first;
   b6a1a:	360c      	adds	r6, #12
	      ++__result;
   b6a1c:	f109 090c 	add.w	r9, r9, #12
	  for(_Distance __n = __last - __first; __n > 0; --__n)
   b6a20:	3f01      	subs	r7, #1
   b6a22:	e7f4      	b.n	b6a0e <_ZN7RailwayaSERKS_.isra.0+0x16a>
      { return size_type(this->_M_impl._M_finish - this->_M_impl._M_start); }
   b6a24:	e9d4 6709 	ldrd	r6, r7, [r4, #36]	; 0x24
   b6a28:	1bb9      	subs	r1, r7, r6
	      std::__uninitialized_copy_a(__x._M_impl._M_start + size(),
   b6a2a:	6a6e      	ldr	r6, [r5, #36]	; 0x24
					  __x._M_impl._M_finish,
   b6a2c:	f8d5 9028 	ldr.w	r9, [r5, #40]	; 0x28
	      std::__uninitialized_copy_a(__x._M_impl._M_start + size(),
   b6a30:	440e      	add	r6, r1
	      for (; __first != __last; ++__first, (void)++__cur)
   b6a32:	45b1      	cmp	r9, r6
   b6a34:	d0b7      	beq.n	b69a6 <_ZN7RailwayaSERKS_.isra.0+0x102>
    { ::new(static_cast<void*>(__p)) _Tp(std::forward<_Args>(__args)...); }
   b6a36:	b11f      	cbz	r7, b6a40 <_ZN7RailwayaSERKS_.isra.0+0x19c>
   b6a38:	4631      	mov	r1, r6
   b6a3a:	4638      	mov	r0, r7
   b6a3c:	f7fe fb10 	bl	b5060 <_ZNSt6vectorIiSaIiEEC1ERKS1_>
   b6a40:	360c      	adds	r6, #12
   b6a42:	370c      	adds	r7, #12
   b6a44:	e7f5      	b.n	b6a32 <_ZN7RailwayaSERKS_.isra.0+0x18e>
   b6a46:	bf00      	nop
   b6a48:	7ffffffc 	.word	0x7ffffffc
   b6a4c:	aaaaaaab 	.word	0xaaaaaaab

000b6a50 <_ZNSt11__copy_moveILb0ELb0ESt26random_access_iterator_tagE8__copy_mIPK7RailwayPS3_EET0_T_S8_S7_>:
	__copy_m(_II __first, _II __last, _OI __result)
   b6a50:	e92d 41f0 	stmdb	sp!, {r4, r5, r6, r7, r8, lr}
	  for(_Distance __n = __last - __first; __n > 0; --__n)
   b6a54:	1a0c      	subs	r4, r1, r0
	__copy_m(_II __first, _II __last, _OI __result)
   b6a56:	4605      	mov	r5, r0
	  for(_Distance __n = __last - __first; __n > 0; --__n)
   b6a58:	480b      	ldr	r0, [pc, #44]	; (b6a88 <_ZNSt11__copy_moveILb0ELb0ESt26random_access_iterator_tagE8__copy_mIPK7RailwayPS3_EET0_T_S8_S7_+0x38>)
   b6a5a:	10a4      	asrs	r4, r4, #2
   b6a5c:	4344      	muls	r4, r0
	__copy_m(_II __first, _II __last, _OI __result)
   b6a5e:	4616      	mov	r6, r2
	  for(_Distance __n = __last - __first; __n > 0; --__n)
   b6a60:	4627      	mov	r7, r4
   b6a62:	4690      	mov	r8, r2
   b6a64:	2f00      	cmp	r7, #0
   b6a66:	dd08      	ble.n	b6a7a <_ZNSt11__copy_moveILb0ELb0ESt26random_access_iterator_tagE8__copy_mIPK7RailwayPS3_EET0_T_S8_S7_+0x2a>
	      *__result = *__first;
   b6a68:	4629      	mov	r1, r5
   b6a6a:	4640      	mov	r0, r8
   b6a6c:	f7ff ff1a 	bl	b68a4 <_ZN7RailwayaSERKS_.isra.0>
	      ++__first;
   b6a70:	356c      	adds	r5, #108	; 0x6c
	      ++__result;
   b6a72:	f108 086c 	add.w	r8, r8, #108	; 0x6c
	  for(_Distance __n = __last - __first; __n > 0; --__n)
   b6a76:	3f01      	subs	r7, #1
   b6a78:	e7f4      	b.n	b6a64 <_ZNSt11__copy_moveILb0ELb0ESt26random_access_iterator_tagE8__copy_mIPK7RailwayPS3_EET0_T_S8_S7_+0x14>
	  return __result;
   b6a7a:	ea24 74e4 	bic.w	r4, r4, r4, asr #31
	}
   b6a7e:	206c      	movs	r0, #108	; 0x6c
   b6a80:	fb00 6004 	mla	r0, r0, r4, r6
   b6a84:	e8bd 81f0 	ldmia.w	sp!, {r4, r5, r6, r7, r8, pc}
   b6a88:	684bda13 	.word	0x684bda13

000b6a8c <_ZNSt6vectorI7RailwaySaIS0_EEaSERKS2_.isra.0>:
      if (&__x != this)
   b6a8c:	4281      	cmp	r1, r0
    vector<_Tp, _Alloc>::
   b6a8e:	e92d 47f0 	stmdb	sp!, {r4, r5, r6, r7, r8, r9, sl, lr}
   b6a92:	4604      	mov	r4, r0
   b6a94:	460f      	mov	r7, r1
      if (&__x != this)
   b6a96:	d02c      	beq.n	b6af2 <_ZNSt6vectorI7RailwaySaIS0_EEaSERKS2_.isra.0+0x66>
   b6a98:	e9d1 5a00 	ldrd	r5, sl, [r1]
			 - this->_M_impl._M_start); }
   b6a9c:	f8d0 9000 	ldr.w	r9, [r0]
   b6aa0:	6883      	ldr	r3, [r0, #8]
      { return size_type(this->_M_impl._M_finish - this->_M_impl._M_start); }
   b6aa2:	ebaa 0805 	sub.w	r8, sl, r5
			 - this->_M_impl._M_start); }
   b6aa6:	eba3 0309 	sub.w	r3, r3, r9
	  if (__xlen > capacity())
   b6aaa:	4543      	cmp	r3, r8
   b6aac:	d223      	bcs.n	b6af6 <_ZNSt6vectorI7RailwaySaIS0_EEaSERKS2_.isra.0+0x6a>
	  pointer __result = this->_M_allocate(__n);
   b6aae:	482a      	ldr	r0, [pc, #168]	; (b6b58 <_ZNSt6vectorI7RailwaySaIS0_EEaSERKS2_.isra.0+0xcc>)
      { return size_type(this->_M_impl._M_finish - this->_M_impl._M_start); }
   b6ab0:	ea4f 03a8 	mov.w	r3, r8, asr #2
	  pointer __result = this->_M_allocate(__n);
   b6ab4:	4358      	muls	r0, r3
   b6ab6:	f7fd fb4f 	bl	b4158 <_ZNSt12_Vector_baseI7RailwaySaIS0_EE11_M_allocateEj.isra.0>
   b6aba:	4606      	mov	r6, r0
	  _ForwardIterator __cur = __result;
   b6abc:	4607      	mov	r7, r0
	      for (; __first != __last; ++__first, (void)++__cur)
   b6abe:	45aa      	cmp	sl, r5
   b6ac0:	d007      	beq.n	b6ad2 <_ZNSt6vectorI7RailwaySaIS0_EEaSERKS2_.isra.0+0x46>
   b6ac2:	b11f      	cbz	r7, b6acc <_ZNSt6vectorI7RailwaySaIS0_EEaSERKS2_.isra.0+0x40>
   b6ac4:	4629      	mov	r1, r5
   b6ac6:	4638      	mov	r0, r7
   b6ac8:	f7ff fe3e 	bl	b6748 <_ZN7RailwayC1ERKS_>
   b6acc:	376c      	adds	r7, #108	; 0x6c
   b6ace:	356c      	adds	r5, #108	; 0x6c
   b6ad0:	e7f5      	b.n	b6abe <_ZNSt6vectorI7RailwaySaIS0_EEaSERKS2_.isra.0+0x32>
	__destroy(__first, __last);
   b6ad2:	e9d4 0100 	ldrd	r0, r1, [r4]
   b6ad6:	f7fe fa8d 	bl	b4ff4 <_ZNSt12_Destroy_auxILb0EE9__destroyIP7RailwayEEvT_S4_>
	      _M_deallocate(this->_M_impl._M_start,
   b6ada:	6820      	ldr	r0, [r4, #0]
	if (__p)
   b6adc:	b118      	cbz	r0, b6ae6 <_ZNSt6vectorI7RailwaySaIS0_EEaSERKS2_.isra.0+0x5a>
			    - this->_M_impl._M_start);
   b6ade:	68a1      	ldr	r1, [r4, #8]
   b6ae0:	1a09      	subs	r1, r1, r0
   b6ae2:	f7fd fade 	bl	b40a2 <_ZdlPvj>
	      this->_M_impl._M_start = __tmp;
   b6ae6:	6026      	str	r6, [r4, #0]
	      this->_M_impl._M_end_of_storage = this->_M_impl._M_start + __xlen;
   b6ae8:	4446      	add	r6, r8
   b6aea:	60a6      	str	r6, [r4, #8]
	  this->_M_impl._M_finish = this->_M_impl._M_start + __xlen;
   b6aec:	6823      	ldr	r3, [r4, #0]
   b6aee:	4443      	add	r3, r8
   b6af0:	6063      	str	r3, [r4, #4]
    }
   b6af2:	e8bd 87f0 	ldmia.w	sp!, {r4, r5, r6, r7, r8, r9, sl, pc}
      { return size_type(this->_M_impl._M_finish - this->_M_impl._M_start); }
   b6af6:	6846      	ldr	r6, [r0, #4]
   b6af8:	eba6 0609 	sub.w	r6, r6, r9
	  else if (size() >= __xlen)
   b6afc:	45b0      	cmp	r8, r6
   b6afe:	d80d      	bhi.n	b6b1c <_ZNSt6vectorI7RailwaySaIS0_EEaSERKS2_.isra.0+0x90>
			      _Category>::__copy_m(__first, __last, __result);
   b6b00:	4628      	mov	r0, r5
   b6b02:	464a      	mov	r2, r9
   b6b04:	4651      	mov	r1, sl
   b6b06:	f7ff ffa3 	bl	b6a50 <_ZNSt11__copy_moveILb0ELb0ESt26random_access_iterator_tagE8__copy_mIPK7RailwayPS3_EET0_T_S8_S7_>
      : _M_current(__i) { }
   b6b0a:	6866      	ldr	r6, [r4, #4]
	__destroy(_ForwardIterator __first, _ForwardIterator __last)
   b6b0c:	4605      	mov	r5, r0
	  for (; __first != __last; ++__first)
   b6b0e:	42ae      	cmp	r6, r5
   b6b10:	d0ec      	beq.n	b6aec <_ZNSt6vectorI7RailwaySaIS0_EEaSERKS2_.isra.0+0x60>
      __pointer->~_Tp();
   b6b12:	4628      	mov	r0, r5
   b6b14:	f7fe fa4e 	bl	b4fb4 <_ZN7RailwayD1Ev>
      operator++() _GLIBCXX_NOEXCEPT
   b6b18:	356c      	adds	r5, #108	; 0x6c
	return *this;
   b6b1a:	e7f8      	b.n	b6b0e <_ZNSt6vectorI7RailwaySaIS0_EEaSERKS2_.isra.0+0x82>
	  for(_Distance __n = __last - __first; __n > 0; --__n)
   b6b1c:	4b0e      	ldr	r3, [pc, #56]	; (b6b58 <_ZNSt6vectorI7RailwaySaIS0_EEaSERKS2_.isra.0+0xcc>)
   b6b1e:	10b6      	asrs	r6, r6, #2
   b6b20:	435e      	muls	r6, r3
   b6b22:	2e00      	cmp	r6, #0
   b6b24:	dd08      	ble.n	b6b38 <_ZNSt6vectorI7RailwaySaIS0_EEaSERKS2_.isra.0+0xac>
	      *__result = *__first;
   b6b26:	4629      	mov	r1, r5
   b6b28:	4648      	mov	r0, r9
   b6b2a:	f7ff febb 	bl	b68a4 <_ZN7RailwayaSERKS_.isra.0>
	      ++__first;
   b6b2e:	356c      	adds	r5, #108	; 0x6c
	      ++__result;
   b6b30:	f109 096c 	add.w	r9, r9, #108	; 0x6c
	  for(_Distance __n = __last - __first; __n > 0; --__n)
   b6b34:	3e01      	subs	r6, #1
   b6b36:	e7f4      	b.n	b6b22 <_ZNSt6vectorI7RailwaySaIS0_EEaSERKS2_.isra.0+0x96>
   b6b38:	e9d4 5600 	ldrd	r5, r6, [r4]
   b6b3c:	1b71      	subs	r1, r6, r5
	      std::__uninitialized_copy_a(__x._M_impl._M_start + size(),
   b6b3e:	683d      	ldr	r5, [r7, #0]
					  __x._M_impl._M_finish,
   b6b40:	687f      	ldr	r7, [r7, #4]
	      std::__uninitialized_copy_a(__x._M_impl._M_start + size(),
   b6b42:	440d      	add	r5, r1
   b6b44:	42af      	cmp	r7, r5
   b6b46:	d0d1      	beq.n	b6aec <_ZNSt6vectorI7RailwaySaIS0_EEaSERKS2_.isra.0+0x60>
    { ::new(static_cast<void*>(__p)) _Tp(std::forward<_Args>(__args)...); }
   b6b48:	b11e      	cbz	r6, b6b52 <_ZNSt6vectorI7RailwaySaIS0_EEaSERKS2_.isra.0+0xc6>
   b6b4a:	4629      	mov	r1, r5
   b6b4c:	4630      	mov	r0, r6
   b6b4e:	f7ff fdfb 	bl	b6748 <_ZN7RailwayC1ERKS_>
   b6b52:	356c      	adds	r5, #108	; 0x6c
   b6b54:	366c      	adds	r6, #108	; 0x6c
   b6b56:	e7f5      	b.n	b6b44 <_ZNSt6vectorI7RailwaySaIS0_EEaSERKS2_.isra.0+0xb8>
   b6b58:	684bda13 	.word	0x684bda13

000b6b5c <_ZNSt11__copy_moveILb0ELb0ESt26random_access_iterator_tagE8__copy_mIPK4CityPS3_EET0_T_S8_S7_>:
	__copy_m(_II __first, _II __last, _OI __result)
   b6b5c:	e92d 41f0 	stmdb	sp!, {r4, r5, r6, r7, r8, lr}
	  for(_Distance __n = __last - __first; __n > 0; --__n)
   b6b60:	1a0c      	subs	r4, r1, r0
	__copy_m(_II __first, _II __last, _OI __result)
   b6b62:	4605      	mov	r5, r0
	  for(_Distance __n = __last - __first; __n > 0; --__n)
   b6b64:	4810      	ldr	r0, [pc, #64]	; (b6ba8 <_ZNSt11__copy_moveILb0ELb0ESt26random_access_iterator_tagE8__copy_mIPK4CityPS3_EET0_T_S8_S7_+0x4c>)
   b6b66:	10e4      	asrs	r4, r4, #3
   b6b68:	4344      	muls	r4, r0
	__copy_m(_II __first, _II __last, _OI __result)
   b6b6a:	4617      	mov	r7, r2
	  for(_Distance __n = __last - __first; __n > 0; --__n)
   b6b6c:	46a0      	mov	r8, r4
   b6b6e:	4616      	mov	r6, r2
   b6b70:	f1b8 0f00 	cmp.w	r8, #0
   b6b74:	dd10      	ble.n	b6b98 <_ZNSt11__copy_moveILb0ELb0ESt26random_access_iterator_tagE8__copy_mIPK4CityPS3_EET0_T_S8_S7_+0x3c>
   b6b76:	4629      	mov	r1, r5
   b6b78:	4630      	mov	r0, r6
   b6b7a:	f7ff ff87 	bl	b6a8c <_ZNSt6vectorI7RailwaySaIS0_EEaSERKS2_.isra.0>
   b6b7e:	f105 010c 	add.w	r1, r5, #12
   b6b82:	f106 000c 	add.w	r0, r6, #12
   b6b86:	f004 fb5d 	bl	bb244 <_ZNSt7__cxx1112basic_stringIcSt11char_traitsIcESaIcEE9_M_assignERKS4_>
   b6b8a:	6a6b      	ldr	r3, [r5, #36]	; 0x24
   b6b8c:	6273      	str	r3, [r6, #36]	; 0x24
	      ++__first;
   b6b8e:	3528      	adds	r5, #40	; 0x28
	      ++__result;
   b6b90:	3628      	adds	r6, #40	; 0x28
	  for(_Distance __n = __last - __first; __n > 0; --__n)
   b6b92:	f108 38ff 	add.w	r8, r8, #4294967295	; 0xffffffff
   b6b96:	e7eb      	b.n	b6b70 <_ZNSt11__copy_moveILb0ELb0ESt26random_access_iterator_tagE8__copy_mIPK4CityPS3_EET0_T_S8_S7_+0x14>
	  return __result;
   b6b98:	ea24 74e4 	bic.w	r4, r4, r4, asr #31
	}
   b6b9c:	2028      	movs	r0, #40	; 0x28
   b6b9e:	fb00 7004 	mla	r0, r0, r4, r7
   b6ba2:	e8bd 81f0 	ldmia.w	sp!, {r4, r5, r6, r7, r8, pc}
   b6ba6:	bf00      	nop
   b6ba8:	cccccccd 	.word	0xcccccccd

000b6bac <_ZNSt6vectorI7RailwaySaIS0_EE13_M_assign_auxIPKS0_EEvT_S6_St20forward_iterator_tag.isra.0>:
      vector<_Tp, _Alloc>::
   b6bac:	e92d 43f8 	stmdb	sp!, {r3, r4, r5, r6, r7, r8, r9, lr}
      return __last - __first;
   b6bb0:	eba2 0801 	sub.w	r8, r2, r1
			 - this->_M_impl._M_start); }
   b6bb4:	6883      	ldr	r3, [r0, #8]
   b6bb6:	4617      	mov	r7, r2
   b6bb8:	6802      	ldr	r2, [r0, #0]
   b6bba:	1a9b      	subs	r3, r3, r2
	if (__len > capacity())
   b6bbc:	4598      	cmp	r8, r3
      vector<_Tp, _Alloc>::
   b6bbe:	4604      	mov	r4, r0
   b6bc0:	460e      	mov	r6, r1
	if (__len > capacity())
   b6bc2:	d92a      	bls.n	b6c1a <_ZNSt6vectorI7RailwaySaIS0_EE13_M_assign_auxIPKS0_EEvT_S6_St20forward_iterator_tag.isra.0+0x6e>
	if (__n > _S_max_size(_Tp_alloc_type(__a)))
   b6bc4:	4b26      	ldr	r3, [pc, #152]	; (b6c60 <_ZNSt6vectorI7RailwaySaIS0_EE13_M_assign_auxIPKS0_EEvT_S6_St20forward_iterator_tag.isra.0+0xb4>)
   b6bc6:	4598      	cmp	r8, r3
   b6bc8:	d902      	bls.n	b6bd0 <_ZNSt6vectorI7RailwaySaIS0_EE13_M_assign_auxIPKS0_EEvT_S6_St20forward_iterator_tag.isra.0+0x24>
	  __throw_length_error(
   b6bca:	4826      	ldr	r0, [pc, #152]	; (b6c64 <_ZNSt6vectorI7RailwaySaIS0_EE13_M_assign_auxIPKS0_EEvT_S6_St20forward_iterator_tag.isra.0+0xb8>)
   b6bcc:	f004 faea 	bl	bb1a4 <_ZSt20__throw_length_errorPKc>
	  pointer __result = this->_M_allocate(__n);
   b6bd0:	4825      	ldr	r0, [pc, #148]	; (b6c68 <_ZNSt6vectorI7RailwaySaIS0_EE13_M_assign_auxIPKS0_EEvT_S6_St20forward_iterator_tag.isra.0+0xbc>)
   b6bd2:	ea4f 03a8 	mov.w	r3, r8, asr #2
   b6bd6:	4358      	muls	r0, r3
   b6bd8:	f7fd fabe 	bl	b4158 <_ZNSt12_Vector_baseI7RailwaySaIS0_EE11_M_allocateEj.isra.0>
   b6bdc:	4605      	mov	r5, r0
	  _ForwardIterator __cur = __result;
   b6bde:	4681      	mov	r9, r0
	      for (; __first != __last; ++__first, (void)++__cur)
   b6be0:	42b7      	cmp	r7, r6
   b6be2:	d00a      	beq.n	b6bfa <_ZNSt6vectorI7RailwaySaIS0_EE13_M_assign_auxIPKS0_EEvT_S6_St20forward_iterator_tag.isra.0+0x4e>
   b6be4:	f1b9 0f00 	cmp.w	r9, #0
   b6be8:	d003      	beq.n	b6bf2 <_ZNSt6vectorI7RailwaySaIS0_EE13_M_assign_auxIPKS0_EEvT_S6_St20forward_iterator_tag.isra.0+0x46>
   b6bea:	4631      	mov	r1, r6
   b6bec:	4648      	mov	r0, r9
   b6bee:	f7ff fdab 	bl	b6748 <_ZN7RailwayC1ERKS_>
   b6bf2:	366c      	adds	r6, #108	; 0x6c
   b6bf4:	f109 096c 	add.w	r9, r9, #108	; 0x6c
   b6bf8:	e7f2      	b.n	b6be0 <_ZNSt6vectorI7RailwaySaIS0_EE13_M_assign_auxIPKS0_EEvT_S6_St20forward_iterator_tag.isra.0+0x34>
	__destroy(__first, __last);
   b6bfa:	e9d4 0100 	ldrd	r0, r1, [r4]
   b6bfe:	f7fe f9f9 	bl	b4ff4 <_ZNSt12_Destroy_auxILb0EE9__destroyIP7RailwayEEvT_S4_>
	    _M_deallocate(this->_M_impl._M_start,
   b6c02:	6820      	ldr	r0, [r4, #0]
	if (__p)
   b6c04:	b118      	cbz	r0, b6c0e <_ZNSt6vectorI7RailwaySaIS0_EE13_M_assign_auxIPKS0_EEvT_S6_St20forward_iterator_tag.isra.0+0x62>
			  - this->_M_impl._M_start);
   b6c06:	68a1      	ldr	r1, [r4, #8]
   b6c08:	1a09      	subs	r1, r1, r0
   b6c0a:	f7fd fa4a 	bl	b40a2 <_ZdlPvj>
	    this->_M_impl._M_start = __tmp;
   b6c0e:	6025      	str	r5, [r4, #0]
	    this->_M_impl._M_finish = this->_M_impl._M_start + __len;
   b6c10:	4445      	add	r5, r8
	    this->_M_impl._M_end_of_storage = this->_M_impl._M_finish;
   b6c12:	e9c4 5501 	strd	r5, r5, [r4, #4]
	      std::__uninitialized_copy_a(__mid, __last,
					  this->_M_impl._M_finish,
					  _M_get_Tp_allocator());
	    _GLIBCXX_ASAN_ANNOTATE_GREW(__n);
	  }
      }
   b6c16:	e8bd 83f8 	ldmia.w	sp!, {r3, r4, r5, r6, r7, r8, r9, pc}
      { return size_type(this->_M_impl._M_finish - this->_M_impl._M_start); }
   b6c1a:	6845      	ldr	r5, [r0, #4]
   b6c1c:	1aad      	subs	r5, r5, r2
	else if (size() >= __len)
   b6c1e:	45a8      	cmp	r8, r5
   b6c20:	d80b      	bhi.n	b6c3a <_ZNSt6vectorI7RailwaySaIS0_EE13_M_assign_auxIPKS0_EEvT_S6_St20forward_iterator_tag.isra.0+0x8e>
			      _Category>::__copy_m(__first, __last, __result);
   b6c22:	4639      	mov	r1, r7
   b6c24:	4630      	mov	r0, r6
   b6c26:	f7ff ff13 	bl	b6a50 <_ZNSt11__copy_moveILb0ELb0ESt26random_access_iterator_tagE8__copy_mIPK7RailwayPS3_EET0_T_S8_S7_>
	if (size_type __n = this->_M_impl._M_finish - __pos)
   b6c2a:	6861      	ldr	r1, [r4, #4]
   b6c2c:	4288      	cmp	r0, r1
   b6c2e:	4605      	mov	r5, r0
   b6c30:	d0f1      	beq.n	b6c16 <_ZNSt6vectorI7RailwaySaIS0_EE13_M_assign_auxIPKS0_EEvT_S6_St20forward_iterator_tag.isra.0+0x6a>
   b6c32:	f7fe f9df 	bl	b4ff4 <_ZNSt12_Destroy_auxILb0EE9__destroyIP7RailwayEEvT_S4_>
	    this->_M_impl._M_finish = __pos;
   b6c36:	6065      	str	r5, [r4, #4]
   b6c38:	e7ed      	b.n	b6c16 <_ZNSt6vectorI7RailwaySaIS0_EE13_M_assign_auxIPKS0_EEvT_S6_St20forward_iterator_tag.isra.0+0x6a>
	__i += __n;
   b6c3a:	440d      	add	r5, r1
   b6c3c:	4630      	mov	r0, r6
   b6c3e:	4629      	mov	r1, r5
   b6c40:	f7ff ff06 	bl	b6a50 <_ZNSt11__copy_moveILb0ELb0ESt26random_access_iterator_tagE8__copy_mIPK7RailwayPS3_EET0_T_S8_S7_>
      { return size_type(this->_M_impl._M_finish - this->_M_impl._M_start); }
   b6c44:	6866      	ldr	r6, [r4, #4]
   b6c46:	42af      	cmp	r7, r5
   b6c48:	d007      	beq.n	b6c5a <_ZNSt6vectorI7RailwaySaIS0_EE13_M_assign_auxIPKS0_EEvT_S6_St20forward_iterator_tag.isra.0+0xae>
    { ::new(static_cast<void*>(__p)) _Tp(std::forward<_Args>(__args)...); }
   b6c4a:	b11e      	cbz	r6, b6c54 <_ZNSt6vectorI7RailwaySaIS0_EE13_M_assign_auxIPKS0_EEvT_S6_St20forward_iterator_tag.isra.0+0xa8>
   b6c4c:	4629      	mov	r1, r5
   b6c4e:	4630      	mov	r0, r6
   b6c50:	f7ff fd7a 	bl	b6748 <_ZN7RailwayC1ERKS_>
   b6c54:	356c      	adds	r5, #108	; 0x6c
   b6c56:	366c      	adds	r6, #108	; 0x6c
   b6c58:	e7f5      	b.n	b6c46 <_ZNSt6vectorI7RailwaySaIS0_EE13_M_assign_auxIPKS0_EEvT_S6_St20forward_iterator_tag.isra.0+0x9a>
	    this->_M_impl._M_finish =
   b6c5a:	6066      	str	r6, [r4, #4]
      }
   b6c5c:	e7db      	b.n	b6c16 <_ZNSt6vectorI7RailwaySaIS0_EE13_M_assign_auxIPKS0_EEvT_S6_St20forward_iterator_tag.isra.0+0x6a>
   b6c5e:	bf00      	nop
   b6c60:	7fffffa4 	.word	0x7fffffa4
   b6c64:	000be393 	.word	0x000be393
   b6c68:	684bda13 	.word	0x684bda13

000b6c6c <setup>:
void setup(){
   b6c6c:	b570      	push	{r4, r5, r6, lr}
   b6c6e:	f5ad 7d1e 	sub.w	sp, sp, #632	; 0x278
  Serial.begin(9600);
   b6c72:	f004 f8dd 	bl	bae30 <_Z16_fetch_usbserialv>
   b6c76:	f44f 5116 	mov.w	r1, #9600	; 0x2580
   b6c7a:	f004 f8cd 	bl	bae18 <_ZN9USBSerial5beginEl>
  delay(500);
   b6c7e:	f44f 70fa 	mov.w	r0, #500	; 0x1f4
   b6c82:	f001 ff5b 	bl	b8b3c <delay>
  BLE.on();
   b6c86:	f002 fac5 	bl	b9214 <_ZN8particle14BleLocalDevice11getInstanceEv>
   b6c8a:	f002 fb0d 	bl	b92a8 <_ZNK8particle14BleLocalDevice2onEv>
  BLE.addCharacteristic(txCharacteristic);
   b6c8e:	f002 fac1 	bl	b9214 <_ZN8particle14BleLocalDevice11getInstanceEv>
   b6c92:	4a97      	ldr	r2, [pc, #604]	; (b6ef0 <setup+0x284>)
   b6c94:	4d97      	ldr	r5, [pc, #604]	; (b6ef4 <setup+0x288>)
   b6c96:	4601      	mov	r1, r0
   b6c98:	a817      	add	r0, sp, #92	; 0x5c
   b6c9a:	f002 ffef 	bl	b9c7c <_ZN8particle14BleLocalDevice17addCharacteristicERKNS_17BleCharacteristicE>
   b6c9e:	a817      	add	r0, sp, #92	; 0x5c
   b6ca0:	f002 fba9 	bl	b93f6 <_ZN8particle17BleCharacteristicD1Ev>
  BLE.addCharacteristic(rxCharacteristic);
   b6ca4:	f002 fab6 	bl	b9214 <_ZN8particle14BleLocalDevice11getInstanceEv>
   b6ca8:	4a93      	ldr	r2, [pc, #588]	; (b6ef8 <setup+0x28c>)
   b6caa:	4601      	mov	r1, r0
   b6cac:	a817      	add	r0, sp, #92	; 0x5c
   b6cae:	f002 ffe5 	bl	b9c7c <_ZN8particle14BleLocalDevice17addCharacteristicERKNS_17BleCharacteristicE>
   b6cb2:	a817      	add	r0, sp, #92	; 0x5c
   b6cb4:	f002 fb9f 	bl	b93f6 <_ZN8particle17BleCharacteristicD1Ev>
  BleAdvertisingData data;
   b6cb8:	a802      	add	r0, sp, #8
   b6cba:	f002 fcd2 	bl	b9662 <_ZN8particle18BleAdvertisingDataC1Ev>
  data.appendServiceUUID(serviceUuid);
   b6cbe:	cd0f      	ldmia	r5!, {r0, r1, r2, r3}
   b6cc0:	ac11      	add	r4, sp, #68	; 0x44
   b6cc2:	c40f      	stmia	r4!, {r0, r1, r2, r3}
   b6cc4:	682e      	ldr	r6, [r5, #0]
   b6cc6:	6026      	str	r6, [r4, #0]
        BleUuid tempUUID(uuid);
   b6cc8:	ad11      	add	r5, sp, #68	; 0x44
   b6cca:	cd0f      	ldmia	r5!, {r0, r1, r2, r3}
   b6ccc:	ac17      	add	r4, sp, #92	; 0x5c
   b6cce:	c40f      	stmia	r4!, {r0, r1, r2, r3}
        if (tempUUID.type() == BleUuidType::SHORT) {
   b6cd0:	a817      	add	r0, sp, #92	; 0x5c
        BleUuid tempUUID(uuid);
   b6cd2:	6026      	str	r6, [r4, #0]
        if (tempUUID.type() == BleUuidType::SHORT) {
   b6cd4:	f002 f8a0 	bl	b8e18 <_ZNK8particle7BleUuid4typeEv>
   b6cd8:	4604      	mov	r4, r0
            uint16_t uuid16 = tempUUID.shorted();
   b6cda:	a817      	add	r0, sp, #92	; 0x5c
        if (tempUUID.type() == BleUuidType::SHORT) {
   b6cdc:	2c00      	cmp	r4, #0
   b6cde:	f040 80e2 	bne.w	b6ea6 <setup+0x23a>
            uint16_t uuid16 = tempUUID.shorted();
   b6ce2:	f002 f8b5 	bl	b8e50 <_ZNK8particle7BleUuid7shortedEv>
            return append(BleAdvertisingDataType::SERVICE_UUID_16BIT_COMPLETE, reinterpret_cast<const uint8_t*>(&uuid16), sizeof(uint16_t), force);
   b6ce6:	9400      	str	r4, [sp, #0]
            uint16_t uuid16 = tempUUID.shorted();
   b6ce8:	f8ad 002c 	strh.w	r0, [sp, #44]	; 0x2c
            return append(BleAdvertisingDataType::SERVICE_UUID_16BIT_COMPLETE, reinterpret_cast<const uint8_t*>(&uuid16), sizeof(uint16_t), force);
   b6cec:	2302      	movs	r3, #2
   b6cee:	aa0b      	add	r2, sp, #44	; 0x2c
   b6cf0:	2103      	movs	r1, #3
            return append(BleAdvertisingDataType::SERVICE_UUID_128BIT_COMPLETE, tempUUID.rawBytes(), BLE_SIG_UUID_128BIT_LEN, force);
   b6cf2:	a802      	add	r0, sp, #8
   b6cf4:	f002 fcaa 	bl	b964c <_ZN8particle18BleAdvertisingData6appendENS_22BleAdvertisingDataTypeEPKhjb>
  BLE.advertise(&data);
   b6cf8:	f002 fa8c 	bl	b9214 <_ZN8particle14BleLocalDevice11getInstanceEv>
   b6cfc:	2200      	movs	r2, #0
   b6cfe:	a902      	add	r1, sp, #8
   b6d00:	f002 fb1c 	bl	b933c <_ZNK8particle14BleLocalDevice9advertiseEPNS_18BleAdvertisingDataES2_>
  request.hostname = "trek.thewcl.com";
   b6d04:	4c7d      	ldr	r4, [pc, #500]	; (b6efc <setup+0x290>)

    //loopIndex must point to either the first or last checkpoint, tripleIndex cannot be 0
    void setLoopIndex(int triple, int loop){
        tripleIndex = triple;
   b6d06:	4e7e      	ldr	r6, [pc, #504]	; (b6f00 <setup+0x294>)
  acquireWireBuffer();
   b6d08:	a817      	add	r0, sp, #92	; 0x5c
   b6d0a:	f7fd fcf1 	bl	b46f0 <_Z17acquireWireBufferv>
  Wire.begin();
   b6d0e:	f004 f9dd 	bl	bb0cc <_Z19__fetch_global_Wirev>
   b6d12:	f003 f93f 	bl	b9f94 <_ZN7TwoWire5beginEv>
  request.hostname = "trek.thewcl.com";
   b6d16:	497b      	ldr	r1, [pc, #492]	; (b6f04 <setup+0x298>)
   b6d18:	4620      	mov	r0, r4
   b6d1a:	f003 fbf0 	bl	ba4fe <_ZN6StringaSEPKc>
  request.port = 80;
   b6d1e:	2350      	movs	r3, #80	; 0x50
   b6d20:	4979      	ldr	r1, [pc, #484]	; (b6f08 <setup+0x29c>)
   b6d22:	63a3      	str	r3, [r4, #56]	; 0x38
   b6d24:	4c79      	ldr	r4, [pc, #484]	; (b6f0c <setup+0x2a0>)
        loopIndex = loop;
   b6d26:	2502      	movs	r5, #2
   b6d28:	2006      	movs	r0, #6
   b6d2a:	e9c1 5015 	strd	r5, r0, [r1, #84]	; 0x54
   b6d2e:	e9c4 5015 	strd	r5, r0, [r4, #84]	; 0x54
        tripleIndex = triple;
   b6d32:	4d77      	ldr	r5, [pc, #476]	; (b6f10 <setup+0x2a4>)
        loopIndex = loop;
   b6d34:	2203      	movs	r2, #3
   b6d36:	2307      	movs	r3, #7
  ctaRailways = {brownLineCTA, orangeLineCTA, pinkLineCTA, purpleLineCTA, greenLineCTA};
   b6d38:	a817      	add	r0, sp, #92	; 0x5c
   b6d3a:	e9c5 2315 	strd	r2, r3, [r5, #84]	; 0x54
   b6d3e:	e9c6 2315 	strd	r2, r3, [r6, #84]	; 0x54
   b6d42:	f7ff fd01 	bl	b6748 <_ZN7RailwayC1ERKS_>
   b6d46:	4631      	mov	r1, r6
   b6d48:	a832      	add	r0, sp, #200	; 0xc8
   b6d4a:	f7ff fcfd 	bl	b6748 <_ZN7RailwayC1ERKS_>
   b6d4e:	4629      	mov	r1, r5
   b6d50:	a84d      	add	r0, sp, #308	; 0x134
   b6d52:	f7ff fcf9 	bl	b6748 <_ZN7RailwayC1ERKS_>
   b6d56:	4621      	mov	r1, r4
   b6d58:	a868      	add	r0, sp, #416	; 0x1a0
   b6d5a:	f7ff fcf5 	bl	b6748 <_ZN7RailwayC1ERKS_>
   b6d5e:	496d      	ldr	r1, [pc, #436]	; (b6f14 <setup+0x2a8>)
   b6d60:	a883      	add	r0, sp, #524	; 0x20c
   b6d62:	f7ff fcf1 	bl	b6748 <_ZN7RailwayC1ERKS_>
	this->_M_assign_aux(__l.begin(), __l.end(),
   b6d66:	486c      	ldr	r0, [pc, #432]	; (b6f18 <setup+0x2ac>)
   b6d68:	aa9e      	add	r2, sp, #632	; 0x278
   b6d6a:	a917      	add	r1, sp, #92	; 0x5c
   b6d6c:	f7ff ff1e 	bl	b6bac <_ZNSt6vectorI7RailwaySaIS0_EE13_M_assign_auxIPKS0_EEvT_S6_St20forward_iterator_tag.isra.0>
   b6d70:	2404      	movs	r4, #4
   b6d72:	256c      	movs	r5, #108	; 0x6c
   b6d74:	ab17      	add	r3, sp, #92	; 0x5c
   b6d76:	fb05 3004 	mla	r0, r5, r4, r3
   b6d7a:	f7fe f91b 	bl	b4fb4 <_ZN7RailwayD1Ev>
   b6d7e:	3c01      	subs	r4, #1
   b6d80:	d2f8      	bcs.n	b6d74 <setup+0x108>
  mbtaRailways = {redLineMBTA, greenLine1MBTA, greenLine2MBTA, blueLineMBTA, orangeLineMBTA};
   b6d82:	4966      	ldr	r1, [pc, #408]	; (b6f1c <setup+0x2b0>)
   b6d84:	a817      	add	r0, sp, #92	; 0x5c
   b6d86:	f7ff fcdf 	bl	b6748 <_ZN7RailwayC1ERKS_>
   b6d8a:	4965      	ldr	r1, [pc, #404]	; (b6f20 <setup+0x2b4>)
   b6d8c:	a832      	add	r0, sp, #200	; 0xc8
   b6d8e:	f7ff fcdb 	bl	b6748 <_ZN7RailwayC1ERKS_>
   b6d92:	4964      	ldr	r1, [pc, #400]	; (b6f24 <setup+0x2b8>)
   b6d94:	a84d      	add	r0, sp, #308	; 0x134
   b6d96:	f7ff fcd7 	bl	b6748 <_ZN7RailwayC1ERKS_>
   b6d9a:	4963      	ldr	r1, [pc, #396]	; (b6f28 <setup+0x2bc>)
   b6d9c:	a868      	add	r0, sp, #416	; 0x1a0
   b6d9e:	f7ff fcd3 	bl	b6748 <_ZN7RailwayC1ERKS_>
   b6da2:	4962      	ldr	r1, [pc, #392]	; (b6f2c <setup+0x2c0>)
   b6da4:	a883      	add	r0, sp, #524	; 0x20c
   b6da6:	f7ff fccf 	bl	b6748 <_ZN7RailwayC1ERKS_>
   b6daa:	4861      	ldr	r0, [pc, #388]	; (b6f30 <setup+0x2c4>)
   b6dac:	aa9e      	add	r2, sp, #632	; 0x278
   b6dae:	a917      	add	r1, sp, #92	; 0x5c
   b6db0:	f7ff fefc 	bl	b6bac <_ZNSt6vectorI7RailwaySaIS0_EE13_M_assign_auxIPKS0_EEvT_S6_St20forward_iterator_tag.isra.0>
   b6db4:	2404      	movs	r4, #4
   b6db6:	256c      	movs	r5, #108	; 0x6c
   b6db8:	ab17      	add	r3, sp, #92	; 0x5c
   b6dba:	fb05 3004 	mla	r0, r5, r4, r3
   b6dbe:	f7fe f8f9 	bl	b4fb4 <_ZN7RailwayD1Ev>
   b6dc2:	3c01      	subs	r4, #1
   b6dc4:	d2f8      	bcs.n	b6db8 <setup+0x14c>
  cities = {City(ctaRailways, "cta", 5), City(mbtaRailways, "mbta", 5)};
   b6dc6:	4954      	ldr	r1, [pc, #336]	; (b6f18 <setup+0x2ac>)
   b6dc8:	a805      	add	r0, sp, #20
   b6dca:	f7ff fd2d 	bl	b6828 <_ZNSt6vectorI7RailwaySaIS0_EEC1ERKS2_>
   b6dce:	4959      	ldr	r1, [pc, #356]	; (b6f34 <setup+0x2c8>)
   b6dd0:	a80b      	add	r0, sp, #44	; 0x2c
   b6dd2:	f7fd f999 	bl	b4108 <_ZNSt7__cxx1112basic_stringIcSt11char_traitsIcESaIcEEC2IS3_EEPKcRKS3_.constprop.0.isra.0>
	: _M_start(), _M_finish(), _M_end_of_storage()
   b6dd6:	2400      	movs	r4, #0
	: allocator_type(std::move(__a)), _M_p(__dat) { }
   b6dd8:	ab1c      	add	r3, sp, #112	; 0x70
        std::vector<Railway> railways;
        std::string name;
        int slaveCountExpected;

        City(std::vector<Railway> railwaysInput, std::string nameInput, int slaveCountExpectedInput){
            railways = railwaysInput;
   b6dda:	a905      	add	r1, sp, #20
   b6ddc:	a817      	add	r0, sp, #92	; 0x5c
      { _M_string_length = __length; }
   b6dde:	e9cd 341a 	strd	r3, r4, [sp, #104]	; 0x68
   b6de2:	e9cd 4417 	strd	r4, r4, [sp, #92]	; 0x5c
   b6de6:	9419      	str	r4, [sp, #100]	; 0x64
   b6de8:	f88d 4070 	strb.w	r4, [sp, #112]	; 0x70
   b6dec:	f7ff fe4e 	bl	b6a8c <_ZNSt6vectorI7RailwaySaIS0_EEaSERKS2_.isra.0>
	this->_M_assign(__str);
   b6df0:	a90b      	add	r1, sp, #44	; 0x2c
   b6df2:	a81a      	add	r0, sp, #104	; 0x68
   b6df4:	f004 fa26 	bl	bb244 <_ZNSt7__cxx1112basic_stringIcSt11char_traitsIcESaIcEE9_M_assignERKS4_>
            name = nameInput;
            slaveCountExpected = slaveCountExpectedInput;
   b6df8:	2505      	movs	r5, #5
   b6dfa:	494d      	ldr	r1, [pc, #308]	; (b6f30 <setup+0x2c4>)
   b6dfc:	9520      	str	r5, [sp, #128]	; 0x80
   b6dfe:	a808      	add	r0, sp, #32
   b6e00:	f7ff fd12 	bl	b6828 <_ZNSt6vectorI7RailwaySaIS0_EEC1ERKS2_>
   b6e04:	494c      	ldr	r1, [pc, #304]	; (b6f38 <setup+0x2cc>)
   b6e06:	a811      	add	r0, sp, #68	; 0x44
   b6e08:	f7fd f97e 	bl	b4108 <_ZNSt7__cxx1112basic_stringIcSt11char_traitsIcESaIcEEC2IS3_EEPKcRKS3_.constprop.0.isra.0>
	: allocator_type(std::move(__a)), _M_p(__dat) { }
   b6e0c:	ab26      	add	r3, sp, #152	; 0x98
      { _M_string_length = __length; }
   b6e0e:	e9cd 3424 	strd	r3, r4, [sp, #144]	; 0x90
   b6e12:	e9cd 4421 	strd	r4, r4, [sp, #132]	; 0x84
   b6e16:	9423      	str	r4, [sp, #140]	; 0x8c
   b6e18:	f88d 4098 	strb.w	r4, [sp, #152]	; 0x98
            railways = railwaysInput;
   b6e1c:	a908      	add	r1, sp, #32
			 - this->_M_impl._M_start); }
   b6e1e:	4c47      	ldr	r4, [pc, #284]	; (b6f3c <setup+0x2d0>)
   b6e20:	a821      	add	r0, sp, #132	; 0x84
   b6e22:	f7ff fe33 	bl	b6a8c <_ZNSt6vectorI7RailwaySaIS0_EEaSERKS2_.isra.0>
	this->_M_assign(__str);
   b6e26:	a911      	add	r1, sp, #68	; 0x44
   b6e28:	a824      	add	r0, sp, #144	; 0x90
   b6e2a:	f004 fa0b 	bl	bb244 <_ZNSt7__cxx1112basic_stringIcSt11char_traitsIcESaIcEE9_M_assignERKS4_>
   b6e2e:	6822      	ldr	r2, [r4, #0]
   b6e30:	68a3      	ldr	r3, [r4, #8]
            slaveCountExpected = slaveCountExpectedInput;
   b6e32:	952a      	str	r5, [sp, #168]	; 0xa8
   b6e34:	1a9b      	subs	r3, r3, r2
	if (__len > capacity())
   b6e36:	2b4f      	cmp	r3, #79	; 0x4f
   b6e38:	d83d      	bhi.n	b6eb6 <setup+0x24a>
	return static_cast<_Tp*>(::operator new(__n * sizeof(_Tp)));
   b6e3a:	2050      	movs	r0, #80	; 0x50
   b6e3c:	f7fd f92b 	bl	b4096 <_Znwj>
	__uninit_copy(__first, __last, __result);
   b6e40:	a92b      	add	r1, sp, #172	; 0xac
   b6e42:	4602      	mov	r2, r0
   b6e44:	4605      	mov	r5, r0
   b6e46:	a817      	add	r0, sp, #92	; 0x5c
   b6e48:	f7ff fd14 	bl	b6874 <_ZNSt20__uninitialized_copyILb0EE13__uninit_copyIPK4CityPS2_EET0_T_S7_S6_>
	__destroy(__first, __last);
   b6e4c:	e9d4 0100 	ldrd	r0, r1, [r4]
   b6e50:	f7fe f8e9 	bl	b5026 <_ZNSt12_Destroy_auxILb0EE9__destroyIP4CityEEvT_S4_>
	    _M_deallocate(this->_M_impl._M_start,
   b6e54:	6820      	ldr	r0, [r4, #0]
	if (__p)
   b6e56:	b118      	cbz	r0, b6e60 <setup+0x1f4>
			  - this->_M_impl._M_start);
   b6e58:	68a1      	ldr	r1, [r4, #8]
	::operator delete(__p
   b6e5a:	1a09      	subs	r1, r1, r0
   b6e5c:	f7fd f921 	bl	b40a2 <_ZdlPvj>
	    this->_M_impl._M_start = __tmp;
   b6e60:	4b36      	ldr	r3, [pc, #216]	; (b6f3c <setup+0x2d0>)
   b6e62:	601d      	str	r5, [r3, #0]
	    this->_M_impl._M_finish = this->_M_impl._M_start + __len;
   b6e64:	3550      	adds	r5, #80	; 0x50
	    this->_M_impl._M_end_of_storage = this->_M_impl._M_finish;
   b6e66:	e9c3 5501 	strd	r5, r5, [r3, #4]
      { _M_dispose(); }
   b6e6a:	a824      	add	r0, sp, #144	; 0x90
   b6e6c:	f004 f9cc 	bl	bb208 <_ZNSt7__cxx1112basic_stringIcSt11char_traitsIcESaIcEE10_M_disposeEv>
class City{
   b6e70:	a821      	add	r0, sp, #132	; 0x84
   b6e72:	f7fe f8ca 	bl	b500a <_ZNSt6vectorI7RailwaySaIS0_EED1Ev>
   b6e76:	a81a      	add	r0, sp, #104	; 0x68
   b6e78:	f004 f9c6 	bl	bb208 <_ZNSt7__cxx1112basic_stringIcSt11char_traitsIcESaIcEE10_M_disposeEv>
   b6e7c:	a817      	add	r0, sp, #92	; 0x5c
   b6e7e:	f7fe f8c4 	bl	b500a <_ZNSt6vectorI7RailwaySaIS0_EED1Ev>
   b6e82:	a811      	add	r0, sp, #68	; 0x44
   b6e84:	f004 f9c0 	bl	bb208 <_ZNSt7__cxx1112basic_stringIcSt11char_traitsIcESaIcEE10_M_disposeEv>
   b6e88:	a808      	add	r0, sp, #32
   b6e8a:	f7fe f8be 	bl	b500a <_ZNSt6vectorI7RailwaySaIS0_EED1Ev>
   b6e8e:	a80b      	add	r0, sp, #44	; 0x2c
   b6e90:	f004 f9ba 	bl	bb208 <_ZNSt7__cxx1112basic_stringIcSt11char_traitsIcESaIcEE10_M_disposeEv>
   b6e94:	a805      	add	r0, sp, #20
   b6e96:	f7fe f8b8 	bl	b500a <_ZNSt6vectorI7RailwaySaIS0_EED1Ev>
inline void* spark::DefaultAllocator::realloc(void* ptr, size_t size) {
    return ::realloc(ptr, size);
}

inline void spark::DefaultAllocator::free(void* ptr) {
    ::free(ptr);
   b6e9a:	9802      	ldr	r0, [sp, #8]
   b6e9c:	f001 fe06 	bl	b8aac <free>
}
   b6ea0:	f50d 7d1e 	add.w	sp, sp, #632	; 0x278
   b6ea4:	bd70      	pop	{r4, r5, r6, pc}
   b6ea6:	f001 ffd5 	bl	b8e54 <_ZNK8particle7BleUuid8rawBytesEv>
   b6eaa:	2300      	movs	r3, #0
   b6eac:	9300      	str	r3, [sp, #0]
   b6eae:	4602      	mov	r2, r0
   b6eb0:	2310      	movs	r3, #16
   b6eb2:	2107      	movs	r1, #7
   b6eb4:	e71d      	b.n	b6cf2 <setup+0x86>
      { return size_type(this->_M_impl._M_finish - this->_M_impl._M_start); }
   b6eb6:	6865      	ldr	r5, [r4, #4]
   b6eb8:	1aad      	subs	r5, r5, r2
	else if (size() >= __len)
   b6eba:	2d4f      	cmp	r5, #79	; 0x4f
   b6ebc:	d90b      	bls.n	b6ed6 <setup+0x26a>
   b6ebe:	a92b      	add	r1, sp, #172	; 0xac
   b6ec0:	a817      	add	r0, sp, #92	; 0x5c
   b6ec2:	f7ff fe4b 	bl	b6b5c <_ZNSt11__copy_moveILb0ELb0ESt26random_access_iterator_tagE8__copy_mIPK4CityPS3_EET0_T_S8_S7_>
	if (size_type __n = this->_M_impl._M_finish - __pos)
   b6ec6:	6861      	ldr	r1, [r4, #4]
   b6ec8:	4288      	cmp	r0, r1
   b6eca:	4605      	mov	r5, r0
   b6ecc:	d0cd      	beq.n	b6e6a <setup+0x1fe>
   b6ece:	f7fe f8aa 	bl	b5026 <_ZNSt12_Destroy_auxILb0EE9__destroyIP4CityEEvT_S4_>
	    this->_M_impl._M_finish = __pos;
   b6ed2:	6065      	str	r5, [r4, #4]
   b6ed4:	e7c9      	b.n	b6e6a <setup+0x1fe>
   b6ed6:	ab17      	add	r3, sp, #92	; 0x5c
   b6ed8:	441d      	add	r5, r3
   b6eda:	4629      	mov	r1, r5
   b6edc:	4618      	mov	r0, r3
   b6ede:	f7ff fe3d 	bl	b6b5c <_ZNSt11__copy_moveILb0ELb0ESt26random_access_iterator_tagE8__copy_mIPK4CityPS3_EET0_T_S8_S7_>
   b6ee2:	6862      	ldr	r2, [r4, #4]
   b6ee4:	a92b      	add	r1, sp, #172	; 0xac
   b6ee6:	4628      	mov	r0, r5
   b6ee8:	f7ff fcc4 	bl	b6874 <_ZNSt20__uninitialized_copyILb0EE13__uninit_copyIPK4CityPS2_EET0_T_S7_S6_>
	    this->_M_impl._M_finish =
   b6eec:	6060      	str	r0, [r4, #4]
   b6eee:	e7bc      	b.n	b6e6a <setup+0x1fe>
   b6ef0:	2003e6ac 	.word	0x2003e6ac
   b6ef4:	200352bc 	.word	0x200352bc
   b6ef8:	2003e694 	.word	0x2003e694
   b6efc:	2003e634 	.word	0x2003e634
   b6f00:	20037de0 	.word	0x20037de0
   b6f04:	000be599 	.word	0x000be599
   b6f08:	200353e0 	.word	0x200353e0
   b6f0c:	2003e4f0 	.word	0x2003e4f0
   b6f10:	2003e484 	.word	0x2003e484
   b6f14:	20035544 	.word	0x20035544
   b6f18:	20035460 	.word	0x20035460
   b6f1c:	2003e5c8 	.word	0x2003e5c8
   b6f20:	2003546c 	.word	0x2003546c
   b6f24:	200354d8 	.word	0x200354d8
   b6f28:	20035374 	.word	0x20035374
   b6f2c:	20037e4c 	.word	0x20037e4c
   b6f30:	20037dd4 	.word	0x20037dd4
   b6f34:	000be5a9 	.word	0x000be5a9
   b6f38:	000be5ad 	.word	0x000be5ad
   b6f3c:	20035450 	.word	0x20035450

000b6f40 <_GLOBAL__sub_I_SystemMode>:
   b6f40:	2001      	movs	r0, #1
   b6f42:	f7fe ba17 	b.w	b5374 <_Z41__static_initialization_and_destruction_0ii.constprop.0>
	...

000b6f48 <loop>:
void loop(){
   b6f48:	e92d 4ff0 	stmdb	sp!, {r4, r5, r6, r7, r8, r9, sl, fp, lr}
   b6f4c:	ed2d 8b06 	vpush	{d8-d10}
        WLanCredentials creds = credentials.getHalCredentials();
        network_set_credentials(*this, 0, &creds, NULL);
    }

    bool hasCredentials(void) {
        return network_has_credentials(*this, 0, NULL);
   b6f50:	4b53      	ldr	r3, [pc, #332]	; (b70a0 <loop+0x158>)
   b6f52:	2200      	movs	r2, #0
   b6f54:	b0b7      	sub	sp, #220	; 0xdc
   b6f56:	6858      	ldr	r0, [r3, #4]
   b6f58:	4611      	mov	r1, r2
   b6f5a:	f001 fd6f 	bl	b8a3c <network_has_credentials>
  if(WiFi.hasCredentials() && userInput){
   b6f5e:	2800      	cmp	r0, #0
   b6f60:	f000 850d 	beq.w	b797e <loop+0xa36>
   b6f64:	4b4f      	ldr	r3, [pc, #316]	; (b70a4 <loop+0x15c>)
   b6f66:	781b      	ldrb	r3, [r3, #0]
   b6f68:	2b00      	cmp	r3, #0
   b6f6a:	f000 8508 	beq.w	b797e <loop+0xa36>
      : _M_current(__i) { }
   b6f6e:	f8df 817c 	ldr.w	r8, [pc, #380]	; b70ec <loop+0x1a4>
      Serial.printf("%i, ", i);
   b6f72:	4d4d      	ldr	r5, [pc, #308]	; (b70a8 <loop+0x160>)
    Serial.println("loop start");
   b6f74:	f003 ff5c 	bl	bae30 <_Z16_fetch_usbserialv>
   b6f78:	494c      	ldr	r1, [pc, #304]	; (b70ac <loop+0x164>)
   b6f7a:	f003 f9ce 	bl	ba31a <_ZN5Print7printlnEPKc>
   b6f7e:	e9d8 4600 	ldrd	r4, r6, [r8]
    for(int i : sequenceArr){
   b6f82:	42a6      	cmp	r6, r4
   b6f84:	d009      	beq.n	b6f9a <loop+0x52>
   b6f86:	f854 2b04 	ldr.w	r2, [r4], #4
   b6f8a:	9202      	str	r2, [sp, #8]
      Serial.printf("%i, ", i);
   b6f8c:	f003 ff50 	bl	bae30 <_Z16_fetch_usbserialv>
   b6f90:	9a02      	ldr	r2, [sp, #8]
   b6f92:	4629      	mov	r1, r5
   b6f94:	f7fd fa2c 	bl	b43f0 <_ZN5Print6printfEPKcz>
	return *this;
   b6f98:	e7f3      	b.n	b6f82 <loop+0x3a>
    Serial.println();
   b6f9a:	f003 ff49 	bl	bae30 <_Z16_fetch_usbserialv>
   b6f9e:	f003 f9b0 	bl	ba302 <_ZN5Print7printlnEv>
    cityIndexBuffer = cityIndex;
   b6fa2:	4b43      	ldr	r3, [pc, #268]	; (b70b0 <loop+0x168>)
   b6fa4:	f8df a140 	ldr.w	sl, [pc, #320]	; b70e8 <loop+0x1a0>
   b6fa8:	681b      	ldr	r3, [r3, #0]
   b6faa:	f8ca 3000 	str.w	r3, [sl]
    for(int j = 0; j < cities[cityIndexBuffer].railways.size(); j++){
   b6fae:	2300      	movs	r3, #0
	return *(this->_M_impl._M_start + __n);
   b6fb0:	4e40      	ldr	r6, [pc, #256]	; (b70b4 <loop+0x16c>)
   b6fb2:	f8da 2000 	ldr.w	r2, [sl]
   b6fb6:	6831      	ldr	r1, [r6, #0]
   b6fb8:	9302      	str	r3, [sp, #8]
   b6fba:	2528      	movs	r5, #40	; 0x28
   b6fbc:	436a      	muls	r2, r5
   b6fbe:	188b      	adds	r3, r1, r2
      { return size_type(this->_M_impl._M_finish - this->_M_impl._M_start); }
   b6fc0:	588a      	ldr	r2, [r1, r2]
   b6fc2:	685b      	ldr	r3, [r3, #4]
   b6fc4:	1a9b      	subs	r3, r3, r2
   b6fc6:	4a3c      	ldr	r2, [pc, #240]	; (b70b8 <loop+0x170>)
   b6fc8:	109b      	asrs	r3, r3, #2
   b6fca:	4353      	muls	r3, r2
   b6fcc:	9a02      	ldr	r2, [sp, #8]
   b6fce:	4293      	cmp	r3, r2
   b6fd0:	f240 845e 	bls.w	b7890 <loop+0x948>
      delay(1000);
   b6fd4:	f44f 707a 	mov.w	r0, #1000	; 0x3e8
   b6fd8:	f001 fdb0 	bl	b8b3c <delay>
      if(cityIndex == -1){
   b6fdc:	4b34      	ldr	r3, [pc, #208]	; (b70b0 <loop+0x168>)
   b6fde:	681b      	ldr	r3, [r3, #0]
   b6fe0:	3301      	adds	r3, #1
   b6fe2:	f000 84cc 	beq.w	b797e <loop+0xa36>
	StringSumHelper(const char *p) : String(p) {}
   b6fe6:	4935      	ldr	r1, [pc, #212]	; (b70bc <loop+0x174>)
   b6fe8:	a817      	add	r0, sp, #92	; 0x5c
   b6fea:	f003 fa40 	bl	ba46e <_ZN6StringC1EPK19__FlashStringHelper>
	return *(this->_M_impl._M_start + __n);
   b6fee:	f8da 2000 	ldr.w	r2, [sl]
      { return _M_dataplus._M_p; }
   b6ff2:	6833      	ldr	r3, [r6, #0]
   b6ff4:	fb05 3302 	mla	r3, r5, r2, r3
      request.path = "/loop-tracks/" + String(cities[cityIndexBuffer].name.c_str()) + "?lines=" + String(cities[cityIndexBuffer].railways[j].name.c_str());
   b6ff8:	a813      	add	r0, sp, #76	; 0x4c
   b6ffa:	68d9      	ldr	r1, [r3, #12]
   b6ffc:	f003 fa37 	bl	ba46e <_ZN6StringC1EPK19__FlashStringHelper>
   b7000:	a913      	add	r1, sp, #76	; 0x4c
   b7002:	a817      	add	r0, sp, #92	; 0x5c
   b7004:	f003 fac8 	bl	ba598 <_ZplRK15StringSumHelperRK6String>
   b7008:	492d      	ldr	r1, [pc, #180]	; (b70c0 <loop+0x178>)
   b700a:	f003 fad1 	bl	ba5b0 <_ZplRK15StringSumHelperPKc>
   b700e:	9b02      	ldr	r3, [sp, #8]
   b7010:	6832      	ldr	r2, [r6, #0]
   b7012:	246c      	movs	r4, #108	; 0x6c
   b7014:	435c      	muls	r4, r3
   b7016:	f8da 3000 	ldr.w	r3, [sl]
   b701a:	436b      	muls	r3, r5
   b701c:	4607      	mov	r7, r0
   b701e:	58d3      	ldr	r3, [r2, r3]
   b7020:	4423      	add	r3, r4
   b7022:	a81b      	add	r0, sp, #108	; 0x6c
   b7024:	6b19      	ldr	r1, [r3, #48]	; 0x30
   b7026:	f003 fa22 	bl	ba46e <_ZN6StringC1EPK19__FlashStringHelper>
   b702a:	a91b      	add	r1, sp, #108	; 0x6c
   b702c:	4638      	mov	r0, r7
   b702e:	f003 fab3 	bl	ba598 <_ZplRK15StringSumHelperRK6String>
   b7032:	4601      	mov	r1, r0
   b7034:	4823      	ldr	r0, [pc, #140]	; (b70c4 <loop+0x17c>)
        request(aRequest, aResponse, (http_header_t*)NULL, HTTP_METHOD_DELETE);
    }

    void get(http_request_t &aRequest, http_response_t &aResponse, http_header_t headers[])
    {
        request(aRequest, aResponse, headers, HTTP_METHOD_GET);
   b7036:	4f24      	ldr	r7, [pc, #144]	; (b70c8 <loop+0x180>)
   b7038:	f003 fa4a 	bl	ba4d0 <_ZN6StringaSERKS_>
   b703c:	a81b      	add	r0, sp, #108	; 0x6c
   b703e:	f003 f9cb 	bl	ba3d8 <_ZN6StringD1Ev>
   b7042:	a813      	add	r0, sp, #76	; 0x4c
   b7044:	f003 f9c8 	bl	ba3d8 <_ZN6StringD1Ev>
class StringSumHelper : public String
   b7048:	a817      	add	r0, sp, #92	; 0x5c
   b704a:	f003 f9c5 	bl	ba3d8 <_ZN6StringD1Ev>
   b704e:	4b1f      	ldr	r3, [pc, #124]	; (b70cc <loop+0x184>)
   b7050:	491f      	ldr	r1, [pc, #124]	; (b70d0 <loop+0x188>)
   b7052:	4820      	ldr	r0, [pc, #128]	; (b70d4 <loop+0x18c>)
   b7054:	9300      	str	r3, [sp, #0]
   b7056:	463a      	mov	r2, r7
   b7058:	4b1f      	ldr	r3, [pc, #124]	; (b70d8 <loop+0x190>)
   b705a:	f000 fcd3 	bl	b7a04 <_ZN10HttpClient7requestER14http_request_tR15http_response_tP13http_header_tPKc>
      Serial.println("parsing");
   b705e:	f003 fee7 	bl	bae30 <_Z16_fetch_usbserialv>
   b7062:	491e      	ldr	r1, [pc, #120]	; (b70dc <loop+0x194>)
   b7064:	f003 f959 	bl	ba31a <_ZN5Print7printlnEPKc>
      parser.clear();
   b7068:	481d      	ldr	r0, [pc, #116]	; (b70e0 <loop+0x198>)
   b706a:	f000 fe63 	bl	b7d34 <_ZN10JsonBuffer5clearEv>
	const char * c_str() const { return buffer; }
   b706e:	6879      	ldr	r1, [r7, #4]
	bool addString(const char *data) { return addData(data, strlen(data)); }
   b7070:	9103      	str	r1, [sp, #12]
   b7072:	4608      	mov	r0, r1
   b7074:	f005 f8e8 	bl	bc248 <strlen>
   b7078:	9903      	ldr	r1, [sp, #12]
   b707a:	4602      	mov	r2, r0
   b707c:	4818      	ldr	r0, [pc, #96]	; (b70e0 <loop+0x198>)
   b707e:	f000 fe3c 	bl	b7cfa <_ZN10JsonBuffer7addDataEPKcj>
      if(!parser.parse()){
   b7082:	4817      	ldr	r0, [pc, #92]	; (b70e0 <loop+0x198>)
   b7084:	f001 fa46 	bl	b8514 <_ZN10JsonParser5parseEv>
   b7088:	9003      	str	r0, [sp, #12]
   b708a:	bb98      	cbnz	r0, b70f4 <loop+0x1ac>
        Serial.println("parsing failed");
   b708c:	f003 fed0 	bl	bae30 <_Z16_fetch_usbserialv>
   b7090:	4914      	ldr	r1, [pc, #80]	; (b70e4 <loop+0x19c>)
}
   b7092:	b037      	add	sp, #220	; 0xdc
   b7094:	ecbd 8b06 	vpop	{d8-d10}
   b7098:	e8bd 4ff0 	ldmia.w	sp!, {r4, r5, r6, r7, r8, r9, sl, fp, lr}
        Serial.println("parsing failed");
   b709c:	f003 b93d 	b.w	ba31a <_ZN5Print7printlnEPKc>
   b70a0:	2003e718 	.word	0x2003e718
   b70a4:	2003e6b4 	.word	0x2003e6b4
   b70a8:	000be5bd 	.word	0x000be5bd
   b70ac:	000be5b2 	.word	0x000be5b2
   b70b0:	200350a8 	.word	0x200350a8
   b70b4:	20035450 	.word	0x20035450
   b70b8:	684bda13 	.word	0x684bda13
   b70bc:	000be5c2 	.word	0x000be5c2
   b70c0:	000be5d0 	.word	0x000be5d0
   b70c4:	2003e65c 	.word	0x2003e65c
   b70c8:	2003e680 	.word	0x2003e680
   b70cc:	000be5d8 	.word	0x000be5d8
   b70d0:	2003e634 	.word	0x2003e634
   b70d4:	200355b8 	.word	0x200355b8
   b70d8:	200350ac 	.word	0x200350ac
   b70dc:	000be5dc 	.word	0x000be5dc
   b70e0:	20037eb8 	.word	0x20037eb8
   b70e4:	000be5e4 	.word	0x000be5e4
   b70e8:	2003545c 	.word	0x2003545c
   b70ec:	2003e69c 	.word	0x2003e69c
   b70f0:	00000000 	.word	0x00000000
   b70f4:	f8da 3000 	ldr.w	r3, [sl]
   b70f8:	6832      	ldr	r2, [r6, #0]
        float lat = train.key("latitude").valueFloat();
   b70fa:	ed1f 9a03 	vldr	s18, [pc, #-12]	; b70f0 <loop+0x1a8>
   b70fe:	436b      	muls	r3, r5
      Railway currentRailway = cities[cityIndexBuffer].railways[j];
   b7100:	a81b      	add	r0, sp, #108	; 0x6c
   b7102:	58d1      	ldr	r1, [r2, r3]
   b7104:	4421      	add	r1, r4
   b7106:	f7ff fb1f 	bl	b6748 <_ZN7RailwayC1ERKS_>
      std::vector<Checkpoint> currentCheckpoints = currentRailway.checkpoints;
   b710a:	a91b      	add	r1, sp, #108	; 0x6c
   b710c:	a807      	add	r0, sp, #28
   b710e:	f7fd fbd7 	bl	b48c0 <_ZNSt6vectorI10CheckpointSaIS0_EEC1ERKS2_>
      int count = 0;
   b7112:	f04f 0900 	mov.w	r9, #0
        JsonReference train = parser.getReference().key("lines").index(0).key("trains").index(count);
   b7116:	49a2      	ldr	r1, [pc, #648]	; (b73a0 <loop+0x458>)
   b7118:	a80d      	add	r0, sp, #52	; 0x34
   b711a:	f000 fe25 	bl	b7d68 <_ZNK10JsonParser12getReferenceEv>
   b711e:	4aa1      	ldr	r2, [pc, #644]	; (b73a4 <loop+0x45c>)
   b7120:	a90d      	add	r1, sp, #52	; 0x34
   b7122:	a810      	add	r0, sp, #64	; 0x40
   b7124:	f000 fff0 	bl	b8108 <_ZNK13JsonReference3keyEPKc>
   b7128:	2200      	movs	r2, #0
   b712a:	a910      	add	r1, sp, #64	; 0x40
   b712c:	a813      	add	r0, sp, #76	; 0x4c
   b712e:	f000 febf 	bl	b7eb0 <_ZNK13JsonReference5indexEj>
   b7132:	4a9d      	ldr	r2, [pc, #628]	; (b73a8 <loop+0x460>)
   b7134:	a913      	add	r1, sp, #76	; 0x4c
   b7136:	a817      	add	r0, sp, #92	; 0x5c
   b7138:	f000 ffe6 	bl	b8108 <_ZNK13JsonReference3keyEPKc>
   b713c:	464a      	mov	r2, r9
   b713e:	a917      	add	r1, sp, #92	; 0x5c
   b7140:	a80a      	add	r0, sp, #40	; 0x28
   b7142:	f000 feb5 	bl	b7eb0 <_ZNK13JsonReference5indexEj>
   b7146:	a817      	add	r0, sp, #92	; 0x5c
   b7148:	f000 fd86 	bl	b7c58 <_ZN13JsonReferenceD1Ev>
   b714c:	a813      	add	r0, sp, #76	; 0x4c
   b714e:	f000 fd83 	bl	b7c58 <_ZN13JsonReferenceD1Ev>
   b7152:	a810      	add	r0, sp, #64	; 0x40
   b7154:	f000 fd80 	bl	b7c58 <_ZN13JsonReferenceD1Ev>
   b7158:	a80d      	add	r0, sp, #52	; 0x34
   b715a:	f000 fd7d 	bl	b7c58 <_ZN13JsonReferenceD1Ev>
        String nextStation = train.key("next_stop").valueString();
   b715e:	4a93      	ldr	r2, [pc, #588]	; (b73ac <loop+0x464>)
   b7160:	a90a      	add	r1, sp, #40	; 0x28
   b7162:	a817      	add	r0, sp, #92	; 0x5c
   b7164:	f000 ffd0 	bl	b8108 <_ZNK13JsonReference3keyEPKc>
   b7168:	a917      	add	r1, sp, #92	; 0x5c
   b716a:	a813      	add	r0, sp, #76	; 0x4c
   b716c:	f000 ffe6 	bl	b813c <_ZNK13JsonReference11valueStringEv>
   b7170:	a817      	add	r0, sp, #92	; 0x5c
   b7172:	f000 fd71 	bl	b7c58 <_ZN13JsonReferenceD1Ev>
        String destNm = train.key("destination").valueString();
   b7176:	4a8e      	ldr	r2, [pc, #568]	; (b73b0 <loop+0x468>)
   b7178:	a90a      	add	r1, sp, #40	; 0x28
   b717a:	a810      	add	r0, sp, #64	; 0x40
   b717c:	f000 ffc4 	bl	b8108 <_ZNK13JsonReference3keyEPKc>
   b7180:	a910      	add	r1, sp, #64	; 0x40
   b7182:	a817      	add	r0, sp, #92	; 0x5c
   b7184:	f000 ffda 	bl	b813c <_ZNK13JsonReference11valueStringEv>
   b7188:	a810      	add	r0, sp, #64	; 0x40
   b718a:	f000 fd65 	bl	b7c58 <_ZN13JsonReferenceD1Ev>
        int trainDir = train.key("direction").valueInt();
   b718e:	4a89      	ldr	r2, [pc, #548]	; (b73b4 <loop+0x46c>)
   b7190:	a90a      	add	r1, sp, #40	; 0x28
   b7192:	a810      	add	r0, sp, #64	; 0x40
   b7194:	f000 ffb8 	bl	b8108 <_ZNK13JsonReference3keyEPKc>
   b7198:	2100      	movs	r1, #0
   b719a:	a810      	add	r0, sp, #64	; 0x40
   b719c:	f000 fea2 	bl	b7ee4 <_ZNK13JsonReference8valueIntEi>
   b71a0:	4604      	mov	r4, r0
   b71a2:	a810      	add	r0, sp, #64	; 0x40
   b71a4:	f000 fd58 	bl	b7c58 <_ZN13JsonReferenceD1Ev>
        float lat = train.key("latitude").valueFloat();
   b71a8:	4a83      	ldr	r2, [pc, #524]	; (b73b8 <loop+0x470>)
   b71aa:	a90a      	add	r1, sp, #40	; 0x28
   b71ac:	a810      	add	r0, sp, #64	; 0x40
   b71ae:	f000 ffab 	bl	b8108 <_ZNK13JsonReference3keyEPKc>
   b71b2:	a810      	add	r0, sp, #64	; 0x40
   b71b4:	eeb0 0a49 	vmov.f32	s0, s18
   b71b8:	f000 fea0 	bl	b7efc <_ZNK13JsonReference10valueFloatEf>
   b71bc:	a810      	add	r0, sp, #64	; 0x40
   b71be:	eef0 8a40 	vmov.f32	s17, s0
   b71c2:	f000 fd49 	bl	b7c58 <_ZN13JsonReferenceD1Ev>
        float lon = train.key("longitude").valueFloat();
   b71c6:	4a7d      	ldr	r2, [pc, #500]	; (b73bc <loop+0x474>)
   b71c8:	a90a      	add	r1, sp, #40	; 0x28
   b71ca:	a810      	add	r0, sp, #64	; 0x40
   b71cc:	f000 ff9c 	bl	b8108 <_ZNK13JsonReference3keyEPKc>
   b71d0:	a810      	add	r0, sp, #64	; 0x40
   b71d2:	eeb0 0a49 	vmov.f32	s0, s18
   b71d6:	f000 fe91 	bl	b7efc <_ZNK13JsonReference10valueFloatEf>
   b71da:	a810      	add	r0, sp, #64	; 0x40
   b71dc:	eeb0 8a40 	vmov.f32	s16, s0
   b71e0:	f000 fd3a 	bl	b7c58 <_ZN13JsonReferenceD1Ev>
        if(nextStation.length() <= 1){
   b71e4:	9b15      	ldr	r3, [sp, #84]	; 0x54
   b71e6:	2b01      	cmp	r3, #1
   b71e8:	d87f      	bhi.n	b72ea <loop+0x3a2>
          Serial.println("break");
   b71ea:	f003 fe21 	bl	bae30 <_Z16_fetch_usbserialv>
   b71ee:	4974      	ldr	r1, [pc, #464]	; (b73c0 <loop+0x478>)
        if(cityIndexBuffer == 0 && (i == 2 || currentRailway.name == purpleLineCTA.name)){
   b71f0:	4f74      	ldr	r7, [pc, #464]	; (b73c4 <loop+0x47c>)
          Serial.println("break");
   b71f2:	f003 f892 	bl	ba31a <_ZN5Print7printlnEPKc>
          break;
   b71f6:	a817      	add	r0, sp, #92	; 0x5c
   b71f8:	f003 f8ee 	bl	ba3d8 <_ZN6StringD1Ev>
   b71fc:	a813      	add	r0, sp, #76	; 0x4c
   b71fe:	f003 f8eb 	bl	ba3d8 <_ZN6StringD1Ev>
   b7202:	a80a      	add	r0, sp, #40	; 0x28
   b7204:	f000 fd28 	bl	b7c58 <_ZN13JsonReferenceD1Ev>
      for(int i = 0; i < 4; i++){
   b7208:	9b02      	ldr	r3, [sp, #8]
   b720a:	2500      	movs	r5, #0
   b720c:	00de      	lsls	r6, r3, #3
        if(cityIndexBuffer == 0 && (i == 2 || currentRailway.name == purpleLineCTA.name)){
   b720e:	683b      	ldr	r3, [r7, #0]
   b7210:	2b00      	cmp	r3, #0
   b7212:	f040 8285 	bne.w	b7720 <loop+0x7d8>
   b7216:	2d02      	cmp	r5, #2
   b7218:	d006      	beq.n	b7228 <loop+0x2e0>
   b721a:	496b      	ldr	r1, [pc, #428]	; (b73c8 <loop+0x480>)
   b721c:	a827      	add	r0, sp, #156	; 0x9c
   b721e:	f7fd fb73 	bl	b4908 <_ZSteqIcEN9__gnu_cxx11__enable_ifIXsrSt9__is_charIT_E7__valueEbE6__typeERKNSt7__cxx1112basic_stringIS3_St11char_traitsIS3_ESaIS3_EEESE_>
   b7222:	2800      	cmp	r0, #0
   b7224:	f000 826c 	beq.w	b7700 <loop+0x7b8>
          Wire.beginTransmission(brownLineCTAAdr);
   b7228:	f003 ff50 	bl	bb0cc <_Z19__fetch_global_Wirev>
   b722c:	4b67      	ldr	r3, [pc, #412]	; (b73cc <loop+0x484>)
   b722e:	6819      	ldr	r1, [r3, #0]
          Wire.beginTransmission(sequenceArr[j * 2 + i]);
   b7230:	f002 fee6 	bl	ba000 <_ZN7TwoWire17beginTransmissionEi>
        Wire.write(String(currentRailway.colors[0].c_str()));
   b7234:	f003 ff4a 	bl	bb0cc <_Z19__fetch_global_Wirev>
   b7238:	9b2d      	ldr	r3, [sp, #180]	; 0xb4
   b723a:	4604      	mov	r4, r0
   b723c:	6819      	ldr	r1, [r3, #0]
   b723e:	a817      	add	r0, sp, #92	; 0x5c
   b7240:	f003 f915 	bl	ba46e <_ZN6StringC1EPK19__FlashStringHelper>
   b7244:	9917      	ldr	r1, [sp, #92]	; 0x5c
   b7246:	4620      	mov	r0, r4
   b7248:	f7fc ffee 	bl	b4228 <_ZN5Print5writeEPKc.isra.0>
   b724c:	a817      	add	r0, sp, #92	; 0x5c
   b724e:	f003 f8c3 	bl	ba3d8 <_ZN6StringD1Ev>
        Wire.write(String(currentRailway.colors[1].c_str()));
   b7252:	f003 ff3b 	bl	bb0cc <_Z19__fetch_global_Wirev>
   b7256:	9b2d      	ldr	r3, [sp, #180]	; 0xb4
   b7258:	4604      	mov	r4, r0
   b725a:	6999      	ldr	r1, [r3, #24]
   b725c:	a817      	add	r0, sp, #92	; 0x5c
   b725e:	f003 f906 	bl	ba46e <_ZN6StringC1EPK19__FlashStringHelper>
   b7262:	9917      	ldr	r1, [sp, #92]	; 0x5c
   b7264:	4620      	mov	r0, r4
   b7266:	f7fc ffdf 	bl	b4228 <_ZN5Print5writeEPKc.isra.0>
   b726a:	a817      	add	r0, sp, #92	; 0x5c
   b726c:	f003 f8b4 	bl	ba3d8 <_ZN6StringD1Ev>
        Wire.endTransmission();
   b7270:	f003 ff2c 	bl	bb0cc <_Z19__fetch_global_Wirev>
   b7274:	f002 fecb 	bl	ba00e <_ZN7TwoWire15endTransmissionEv>
        if(cityIndexBuffer == 0 && (i == 2 || currentRailway.name == purpleLineCTA.name)){
   b7278:	683b      	ldr	r3, [r7, #0]
   b727a:	2b00      	cmp	r3, #0
   b727c:	f040 8266 	bne.w	b774c <loop+0x804>
   b7280:	2d02      	cmp	r5, #2
   b7282:	d006      	beq.n	b7292 <loop+0x34a>
   b7284:	4950      	ldr	r1, [pc, #320]	; (b73c8 <loop+0x480>)
   b7286:	a827      	add	r0, sp, #156	; 0x9c
   b7288:	f7fd fb3e 	bl	b4908 <_ZSteqIcEN9__gnu_cxx11__enable_ifIXsrSt9__is_charIT_E7__valueEbE6__typeERKNSt7__cxx1112basic_stringIS3_St11char_traitsIS3_ESaIS3_EEESE_>
   b728c:	2800      	cmp	r0, #0
   b728e:	f000 824d 	beq.w	b772c <loop+0x7e4>
          Wire.beginTransmission(brownLineCTAAdr);
   b7292:	f003 ff1b 	bl	bb0cc <_Z19__fetch_global_Wirev>
   b7296:	4b4d      	ldr	r3, [pc, #308]	; (b73cc <loop+0x484>)
   b7298:	6819      	ldr	r1, [r3, #0]
          Wire.beginTransmission(sequenceArr[j * 2 + i]);
   b729a:	f002 feb1 	bl	ba000 <_ZN7TwoWire17beginTransmissionEi>
        if(cityIndexBuffer == 0){
   b729e:	683c      	ldr	r4, [r7, #0]
   b72a0:	2c00      	cmp	r4, #0
   b72a2:	f040 8319 	bne.w	b78d8 <loop+0x990>
          if(i == 2){
   b72a6:	2d02      	cmp	r5, #2
   b72a8:	f040 8285 	bne.w	b77b6 <loop+0x86e>
            if(currentRailway.name == greenLineCTA.name){
   b72ac:	4948      	ldr	r1, [pc, #288]	; (b73d0 <loop+0x488>)
   b72ae:	f8df 9124 	ldr.w	r9, [pc, #292]	; b73d4 <loop+0x48c>
   b72b2:	a827      	add	r0, sp, #156	; 0x9c
   b72b4:	f7fd fb28 	bl	b4908 <_ZSteqIcEN9__gnu_cxx11__enable_ifIXsrSt9__is_charIT_E7__valueEbE6__typeERKNSt7__cxx1112basic_stringIS3_St11char_traitsIS3_ESaIS3_EEESE_>
   b72b8:	2800      	cmp	r0, #0
   b72ba:	f000 824d 	beq.w	b7758 <loop+0x810>
   b72be:	f8d9 1024 	ldr.w	r1, [r9, #36]	; 0x24
      { return size_type(this->_M_impl._M_finish - this->_M_impl._M_start); }
   b72c2:	e9d1 2306 	ldrd	r2, r3, [r1, #24]
   b72c6:	1a9b      	subs	r3, r3, r2
   b72c8:	109a      	asrs	r2, r3, #2
   b72ca:	e9d1 1300 	ldrd	r1, r3, [r1]
   b72ce:	1a5b      	subs	r3, r3, r1
   b72d0:	109b      	asrs	r3, r3, #2
              for(int j = 0; j < brownLineCTA.outputs[0].size() + (brownLineCTA.outputs[2].size() / 2); j++){
   b72d2:	eb03 0352 	add.w	r3, r3, r2, lsr #1
   b72d6:	42a3      	cmp	r3, r4
   b72d8:	f240 82fe 	bls.w	b78d8 <loop+0x990>
                Wire.write('0');
   b72dc:	f003 fef6 	bl	bb0cc <_Z19__fetch_global_Wirev>
   b72e0:	2130      	movs	r1, #48	; 0x30
   b72e2:	f7fc ff9d 	bl	b4220 <_ZN7TwoWire5writeEi.isra.0>
              for(int j = 0; j < brownLineCTA.outputs[0].size() + (brownLineCTA.outputs[2].size() / 2); j++){
   b72e6:	3401      	adds	r4, #1
   b72e8:	e7e9      	b.n	b72be <loop+0x376>
   b72ea:	e9dd 3507 	ldrd	r3, r5, [sp, #28]
   b72ee:	1aed      	subs	r5, r5, r3
   b72f0:	10ed      	asrs	r5, r5, #3
        for(int i = 0; i < checkpointCount; i++){
   b72f2:	f04f 0b00 	mov.w	fp, #0
   b72f6:	45ab      	cmp	fp, r5
	return *(this->_M_impl._M_start + __n);
   b72f8:	9907      	ldr	r1, [sp, #28]
   b72fa:	da3b      	bge.n	b7374 <loop+0x42c>
   b72fc:	eb01 06cb 	add.w	r6, r1, fp, lsl #3
    }

    float getDistance(float trainLat, float trainLon){
      return sqrt(pow((trainLat - lat), 2) + pow((trainLon - lon), 2));
   b7300:	edd6 7a00 	vldr	s15, [r6]
    inline _GLIBCXX_CONSTEXPR
    typename __gnu_cxx::__promote_2<_Tp, _Up>::__type
    pow(_Tp __x, _Up __y)
    {
      typedef typename __gnu_cxx::__promote_2<_Tp, _Up>::__type __type;
      return pow(__type(__x), __type(__y));
   b7304:	ee78 7ae7 	vsub.f32	s15, s17, s15
   b7308:	ee17 0a90 	vmov	r0, s15
   b730c:	f004 fb7c 	bl	bba08 <__aeabi_f2d>
   b7310:	edd6 7a01 	vldr	s15, [r6, #4]
   b7314:	ee78 7a67 	vsub.f32	s15, s16, s15
   b7318:	4602      	mov	r2, r0
   b731a:	460b      	mov	r3, r1
   b731c:	ee17 0a90 	vmov	r0, s15
   b7320:	e9cd 2304 	strd	r2, r3, [sp, #16]
   b7324:	f004 fb70 	bl	bba08 <__aeabi_f2d>
   b7328:	e9dd 2304 	ldrd	r2, r3, [sp, #16]
   b732c:	ec41 0b1a 	vmov	d10, r0, r1
   b7330:	4610      	mov	r0, r2
   b7332:	4619      	mov	r1, r3
   b7334:	f004 fbc0 	bl	bbab8 <__aeabi_dmul>
   b7338:	ec53 2b1a 	vmov	r2, r3, d10
   b733c:	4606      	mov	r6, r0
   b733e:	460f      	mov	r7, r1
   b7340:	ee1a 0a10 	vmov	r0, s20
   b7344:	4619      	mov	r1, r3
   b7346:	f004 fbb7 	bl	bbab8 <__aeabi_dmul>
   b734a:	4602      	mov	r2, r0
   b734c:	460b      	mov	r3, r1
   b734e:	4630      	mov	r0, r6
   b7350:	4639      	mov	r1, r7
   b7352:	f004 f9fb 	bl	bb74c <__adddf3>
   b7356:	ec41 0b10 	vmov	d0, r0, r1
   b735a:	f004 f8eb 	bl	bb534 <sqrt>
          currentRailway.distances[i] = currentCheckpoints[i].getDistance(lat, lon);
   b735e:	9e1e      	ldr	r6, [sp, #120]	; 0x78
   b7360:	ec51 0b10 	vmov	r0, r1, d0
   b7364:	f004 fe78 	bl	bc058 <__aeabi_d2f>
   b7368:	eb06 068b 	add.w	r6, r6, fp, lsl #2
        for(int i = 0; i < checkpointCount; i++){
   b736c:	f10b 0b01 	add.w	fp, fp, #1
   b7370:	6030      	str	r0, [r6, #0]
   b7372:	e7c0      	b.n	b72f6 <loop+0x3ae>
      : _M_current(__i) { }
   b7374:	e9dd 671e 	ldrd	r6, r7, [sp, #120]	; 0x78
    _GLIBCXX14_CONSTEXPR
    _ForwardIterator
    __min_element(_ForwardIterator __first, _ForwardIterator __last,
		  _Compare __comp)
    {
      if (__first == __last)
   b7378:	42be      	cmp	r6, r7
   b737a:	d02f      	beq.n	b73dc <loop+0x494>
   b737c:	1d32      	adds	r2, r6, #4
   b737e:	4633      	mov	r3, r6
	return __first;
      _ForwardIterator __result = __first;
      while (++__first != __last)
   b7380:	4297      	cmp	r7, r2
	++_M_current;
   b7382:	4610      	mov	r0, r2
   b7384:	d02b      	beq.n	b73de <loop+0x496>
	if (__comp(__first, __result))
   b7386:	edd3 7a00 	vldr	s15, [r3]
   b738a:	ed90 7a00 	vldr	s14, [r0]
   b738e:	eeb4 7a67 	vcmp.f32	s14, s15
   b7392:	eef1 fa10 	vmrs	APSR_nzcv, fpscr
   b7396:	f102 0204 	add.w	r2, r2, #4
   b739a:	bf48      	it	mi
   b739c:	4603      	movmi	r3, r0
   b739e:	e7ef      	b.n	b7380 <loop+0x438>
   b73a0:	20037eb8 	.word	0x20037eb8
   b73a4:	000be5f3 	.word	0x000be5f3
   b73a8:	000be5f9 	.word	0x000be5f9
   b73ac:	000be600 	.word	0x000be600
   b73b0:	000be60a 	.word	0x000be60a
   b73b4:	000be616 	.word	0x000be616
   b73b8:	000be620 	.word	0x000be620
   b73bc:	000be629 	.word	0x000be629
   b73c0:	000be633 	.word	0x000be633
   b73c4:	2003545c 	.word	0x2003545c
   b73c8:	2003e520 	.word	0x2003e520
   b73cc:	2003544c 	.word	0x2003544c
   b73d0:	20035574 	.word	0x20035574
   b73d4:	200353e0 	.word	0x200353e0
   b73d8:	7dcccccc 	.word	0x7dcccccc
   b73dc:	4633      	mov	r3, r6
        if(closestIndex == currentRailway.tripleIndex){
   b73de:	9a30      	ldr	r2, [sp, #192]	; 0xc0
    _GLIBCXX20_CONSTEXPR
    inline typename __normal_iterator<_Iterator, _Container>::difference_type
    operator-(const __normal_iterator<_Iterator, _Container>& __lhs,
	      const __normal_iterator<_Iterator, _Container>& __rhs)
    _GLIBCXX_NOEXCEPT
    { return __lhs.base() - __rhs.base(); }
   b73e0:	1b9b      	subs	r3, r3, r6
   b73e2:	ebb2 0fa3 	cmp.w	r2, r3, asr #2
   b73e6:	ea4f 00a3 	mov.w	r0, r3, asr #2
          closestIndex = currentRailway.loopIndex;
   b73ea:	bf08      	it	eq
   b73ec:	9831      	ldreq	r0, [sp, #196]	; 0xc4
   b73ee:	eb01 03c0 	add.w	r3, r1, r0, lsl #3
        x1 = currentCheckpoints[closestIndex].lat;
   b73f2:	edd3 7a00 	vldr	s15, [r3]
        y1 = currentCheckpoints[closestIndex].lon;
   b73f6:	edd3 6a01 	vldr	s13, [r3, #4]
        if(currentCheckpoints[closestIndex].lat > lat){
   b73fa:	eef4 8ae7 	vcmpe.f32	s17, s15
   b73fe:	eef1 fa10 	vmrs	APSR_nzcv, fpscr
          slope = (y1 - y) / (x1 - x);
   b7402:	ee77 5ae8 	vsub.f32	s11, s15, s17
          slope = (y - y1) / (x - x1);
   b7406:	bf55      	itete	pl
   b7408:	ee38 6a66 	vsubpl.f32	s12, s16, s13
          slope = (y1 - y) / (x1 - x);
   b740c:	ee76 7ac8 	vsubmi.f32	s15, s13, s16
          slope = (y - y1) / (x - x1);
   b7410:	ee78 7ae7 	vsubpl.f32	s15, s17, s15
          slope = (y1 - y) / (x1 - x);
   b7414:	ee87 7aa5 	vdivmi.f32	s14, s15, s11
   b7418:	ea4f 0cc0 	mov.w	ip, r0, lsl #3
          slope = (y - y1) / (x - x1);
   b741c:	bf58      	it	pl
   b741e:	ee86 7a27 	vdivpl.f32	s14, s12, s15
        if(slope == 0){
   b7422:	ed5f 7a13 	vldr	s15, [pc, #-76]	; b73d8 <loop+0x490>
   b7426:	eeb5 7a40 	vcmp.f32	s14, #0.0
   b742a:	eef1 fa10 	vmrs	APSR_nzcv, fpscr
   b742e:	d00a      	beq.n	b7446 <loop+0x4fe>
        }else if(slope >= __FLT_MAX__ / 10){
   b7430:	eeb4 7ae7 	vcmpe.f32	s14, s15
   b7434:	eef1 fa10 	vmrs	APSR_nzcv, fpscr
          perpendicularSlope = -1 / slope;
   b7438:	bfba      	itte	lt
   b743a:	eebf 6a00 	vmovlt.f32	s12, #240	; 0xbf800000 -1.0
   b743e:	eec6 7a07 	vdivlt.f32	s15, s12, s14
          perpendicularSlope = 0;
   b7442:	eef0 7a49 	vmovge.f32	s15, s18
          nearestSide = (perpendicularSlope * (currentCheckpoints[closestIndex].lat - x) + y) > currentCheckpoints[closestIndex].lon;
   b7446:	eeb0 7a48 	vmov.f32	s14, s16
   b744a:	eea7 7aa5 	vfma.f32	s14, s15, s11
   b744e:	eef4 6ac7 	vcmpe.f32	s13, s14
   b7452:	eef1 fa10 	vmrs	APSR_nzcv, fpscr
   b7456:	bf4c      	ite	mi
   b7458:	2701      	movmi	r7, #1
   b745a:	2700      	movpl	r7, #0
        if(closestIndex == 0){
   b745c:	2800      	cmp	r0, #0
   b745e:	d171      	bne.n	b7544 <loop+0x5fc>
          pointSide = (perpendicularSlope * (currentCheckpoints[closestIndex + 1].lat - x) + y) > currentCheckpoints[closestIndex + 1].lon;
   b7460:	ed91 7a02 	vldr	s14, [r1, #8]
          if(currentRailway.loopIndex == closestIndex){
   b7464:	f8dd c0c4 	ldr.w	ip, [sp, #196]	; 0xc4
          pointSide = (perpendicularSlope * (currentCheckpoints[closestIndex + 1].lat - x) + y) > currentCheckpoints[closestIndex + 1].lon;
   b7468:	ee37 7a68 	vsub.f32	s14, s14, s17
   b746c:	eef0 6a48 	vmov.f32	s13, s16
   b7470:	eee7 6a27 	vfma.f32	s13, s14, s15
   b7474:	ed91 7a03 	vldr	s14, [r1, #12]
   b7478:	eef4 6ac7 	vcmpe.f32	s13, s14
   b747c:	eef1 fa10 	vmrs	APSR_nzcv, fpscr
   b7480:	bfcc      	ite	gt
   b7482:	2501      	movgt	r5, #1
   b7484:	2500      	movle	r5, #0
          if(currentRailway.loopIndex == closestIndex){
   b7486:	f1bc 0f00 	cmp.w	ip, #0
   b748a:	d11d      	bne.n	b74c8 <loop+0x580>
            loopPointSide = (perpendicularSlope * (currentCheckpoints[currentRailway.tripleIndex - 1].lat - x) + y) > currentCheckpoints[currentRailway.tripleIndex - 1].lon;
   b748c:	1e53      	subs	r3, r2, #1
   b748e:	eb01 01c3 	add.w	r1, r1, r3, lsl #3
            if(nearestSide != pointSide){
   b7492:	42bd      	cmp	r5, r7
            loopPointSide = (perpendicularSlope * (currentCheckpoints[currentRailway.tripleIndex - 1].lat - x) + y) > currentCheckpoints[currentRailway.tripleIndex - 1].lon;
   b7494:	ed91 0a00 	vldr	s0, [r1]
   b7498:	ed91 7a01 	vldr	s14, [r1, #4]
            if(nearestSide != pointSide){
   b749c:	f040 809b 	bne.w	b75d6 <loop+0x68e>
            loopPointSide = (perpendicularSlope * (currentCheckpoints[currentRailway.tripleIndex - 1].lat - x) + y) > currentCheckpoints[currentRailway.tripleIndex - 1].lon;
   b74a0:	ee70 8a68 	vsub.f32	s17, s0, s17
   b74a4:	eea8 8aa7 	vfma.f32	s16, s17, s15
   b74a8:	eeb4 8ac7 	vcmpe.f32	s16, s14
   b74ac:	eef1 fa10 	vmrs	APSR_nzcv, fpscr
            }else if(nearestSide != loopPointSide){
   b74b0:	bfcc      	ite	gt
   b74b2:	2101      	movgt	r1, #1
   b74b4:	2100      	movle	r1, #0
   b74b6:	42a9      	cmp	r1, r5
              }else if(nearestSide != loopPointSide){
   b74b8:	d100      	bne.n	b74bc <loop+0x574>
                secondClosestIndex = currentRailway.tripleIndex + 1;
   b74ba:	1c53      	adds	r3, r2, #1
          if(closestIndex < secondClosestIndex){
   b74bc:	429a      	cmp	r2, r3
   b74be:	f2c0 808c 	blt.w	b75da <loop+0x692>
   b74c2:	4611      	mov	r1, r2
   b74c4:	469c      	mov	ip, r3
   b74c6:	e005      	b.n	b74d4 <loop+0x58c>
            if(pointSide == nearestSide){
   b74c8:	42bd      	cmp	r5, r7
   b74ca:	d074      	beq.n	b75b6 <loop+0x66e>
   b74cc:	4602      	mov	r2, r0
   b74ce:	4684      	mov	ip, r0
   b74d0:	2301      	movs	r3, #1
   b74d2:	4619      	mov	r1, r3
          segmentPos = currentRailway.distances[lowerIndex] / (currentRailway.distances[lowerIndex] + currentRailway.distances[upperIndex]);
   b74d4:	eb06 008c 	add.w	r0, r6, ip, lsl #2
   b74d8:	eb06 0181 	add.w	r1, r6, r1, lsl #2
   b74dc:	ed90 7a00 	vldr	s14, [r0]
   b74e0:	edd1 7a00 	vldr	s15, [r1]
   b74e4:	9821      	ldr	r0, [sp, #132]	; 0x84
          if(closestIndex <= currentRailway.upperGreenBound && closestIndex >= currentRailway.lowerGreenBound && secondClosestIndex <= currentRailway.upperGreenBound && secondClosestIndex >= currentRailway.lowerGreenBound){
   b74e6:	9d35      	ldr	r5, [sp, #212]	; 0xd4
          segmentPos *= currentRailway.scalers[lowerIndex];
   b74e8:	f850 102c 	ldr.w	r1, [r0, ip, lsl #2]
          segmentPos = currentRailway.distances[lowerIndex] / (currentRailway.distances[lowerIndex] + currentRailway.distances[upperIndex]);
   b74ec:	ee77 7a27 	vadd.f32	s15, s14, s15
          if(closestIndex <= currentRailway.upperGreenBound && closestIndex >= currentRailway.lowerGreenBound && secondClosestIndex <= currentRailway.upperGreenBound && secondClosestIndex >= currentRailway.lowerGreenBound){
   b74f0:	4295      	cmp	r5, r2
          segmentPos = currentRailway.distances[lowerIndex] / (currentRailway.distances[lowerIndex] + currentRailway.distances[upperIndex]);
   b74f2:	eec7 6a27 	vdiv.f32	s13, s14, s15
          segmentPos *= currentRailway.scalers[lowerIndex];
   b74f6:	ee07 1a90 	vmov	s15, r1
   b74fa:	eeb8 8ae7 	vcvt.f32.s32	s16, s15
   b74fe:	ee28 8a26 	vmul.f32	s16, s16, s13
          if(closestIndex <= currentRailway.upperGreenBound && closestIndex >= currentRailway.lowerGreenBound && secondClosestIndex <= currentRailway.upperGreenBound && secondClosestIndex >= currentRailway.lowerGreenBound){
   b7502:	db06      	blt.n	b7512 <loop+0x5ca>
   b7504:	9934      	ldr	r1, [sp, #208]	; 0xd0
   b7506:	4291      	cmp	r1, r2
   b7508:	dc03      	bgt.n	b7512 <loop+0x5ca>
   b750a:	429d      	cmp	r5, r3
   b750c:	db01      	blt.n	b7512 <loop+0x5ca>
   b750e:	4299      	cmp	r1, r3
   b7510:	dd66      	ble.n	b75e0 <loop+0x698>
          else if(closestIndex < currentRailway.lowerLoopBound || secondClosestIndex < currentRailway.lowerLoopBound){
   b7512:	9d32      	ldr	r5, [sp, #200]	; 0xc8
   b7514:	4295      	cmp	r5, r2
   b7516:	dc66      	bgt.n	b75e6 <loop+0x69e>
   b7518:	429d      	cmp	r5, r3
   b751a:	dc64      	bgt.n	b75e6 <loop+0x69e>
          else if(closestIndex > currentRailway.upperLoopBound || secondClosestIndex > currentRailway.upperLoopBound){
   b751c:	9933      	ldr	r1, [sp, #204]	; 0xcc
   b751e:	4291      	cmp	r1, r2
   b7520:	db65      	blt.n	b75ee <loop+0x6a6>
   b7522:	4299      	cmp	r1, r3
   b7524:	db63      	blt.n	b75ee <loop+0x6a6>
            inLoop = true;
   b7526:	9b03      	ldr	r3, [sp, #12]
          else if(closestIndex > currentRailway.upperLoopBound || secondClosestIndex > currentRailway.upperLoopBound){
   b7528:	4629      	mov	r1, r5
            pcbSegment = 2;
   b752a:	2502      	movs	r5, #2
          for(int i = lowerScaleBound; i < lowerIndex; i++){
   b752c:	458c      	cmp	ip, r1
   b752e:	dd61      	ble.n	b75f4 <loop+0x6ac>
            segmentPos += currentRailway.scalers[i];
   b7530:	f850 2021 	ldr.w	r2, [r0, r1, lsl #2]
   b7534:	ee07 2a90 	vmov	s15, r2
   b7538:	eef8 7ae7 	vcvt.f32.s32	s15, s15
          for(int i = lowerScaleBound; i < lowerIndex; i++){
   b753c:	3101      	adds	r1, #1
            segmentPos += currentRailway.scalers[i];
   b753e:	ee38 8a27 	vadd.f32	s16, s16, s15
          for(int i = lowerScaleBound; i < lowerIndex; i++){
   b7542:	e7f3      	b.n	b752c <loop+0x5e4>
   b7544:	f1ac 0c08 	sub.w	ip, ip, #8
   b7548:	448c      	add	ip, r1
          pointSide = (perpendicularSlope * (currentCheckpoints[closestIndex - 1].lat - x) + y) > currentCheckpoints[closestIndex - 1].lon;
   b754a:	ed9c 7a00 	vldr	s14, [ip]
   b754e:	ee37 7a68 	vsub.f32	s14, s14, s17
   b7552:	eef0 6a48 	vmov.f32	s13, s16
   b7556:	eee7 6a27 	vfma.f32	s13, s14, s15
          if(closestIndex == checkpointCount - 1){
   b755a:	f105 3eff 	add.w	lr, r5, #4294967295	; 0xffffffff
          pointSide = (perpendicularSlope * (currentCheckpoints[closestIndex - 1].lat - x) + y) > currentCheckpoints[closestIndex - 1].lon;
   b755e:	1e43      	subs	r3, r0, #1
   b7560:	ed9c 7a01 	vldr	s14, [ip, #4]
   b7564:	eef4 6ac7 	vcmpe.f32	s13, s14
   b7568:	eef1 fa10 	vmrs	APSR_nzcv, fpscr
   b756c:	bfcc      	ite	gt
   b756e:	f04f 0c01 	movgt.w	ip, #1
   b7572:	f04f 0c00 	movle.w	ip, #0
          if(closestIndex == checkpointCount - 1){
   b7576:	4586      	cmp	lr, r0
   b7578:	d129      	bne.n	b75ce <loop+0x686>
            if(closestIndex == currentRailway.loopIndex){
   b757a:	9b31      	ldr	r3, [sp, #196]	; 0xc4
   b757c:	4283      	cmp	r3, r0
   b757e:	d118      	bne.n	b75b2 <loop+0x66a>
              loopPointSide = (perpendicularSlope * (currentCheckpoints[currentRailway.tripleIndex - 1].lat - x) + y) > currentCheckpoints[currentRailway.tripleIndex - 1].lon;
   b7580:	1e53      	subs	r3, r2, #1
   b7582:	eb01 01c3 	add.w	r1, r1, r3, lsl #3
              if(nearestSide != pointSide){
   b7586:	45bc      	cmp	ip, r7
              loopPointSide = (perpendicularSlope * (currentCheckpoints[currentRailway.tripleIndex - 1].lat - x) + y) > currentCheckpoints[currentRailway.tripleIndex - 1].lon;
   b7588:	ed91 0a00 	vldr	s0, [r1]
   b758c:	ed91 7a01 	vldr	s14, [r1, #4]
              if(nearestSide != pointSide){
   b7590:	d002      	beq.n	b7598 <loop+0x650>
                secondClosestIndex = checkpointCount - 2;
   b7592:	1eab      	subs	r3, r5, #2
   b7594:	4602      	mov	r2, r0
   b7596:	e791      	b.n	b74bc <loop+0x574>
              loopPointSide = (perpendicularSlope * (currentCheckpoints[currentRailway.tripleIndex - 1].lat - x) + y) > currentCheckpoints[currentRailway.tripleIndex - 1].lon;
   b7598:	ee70 8a68 	vsub.f32	s17, s0, s17
   b759c:	eea8 8aa7 	vfma.f32	s16, s17, s15
   b75a0:	eeb4 8ac7 	vcmpe.f32	s16, s14
   b75a4:	eef1 fa10 	vmrs	APSR_nzcv, fpscr
              }else if(nearestSide != loopPointSide){
   b75a8:	bfcc      	ite	gt
   b75aa:	2101      	movgt	r1, #1
   b75ac:	2100      	movle	r1, #0
   b75ae:	4561      	cmp	r1, ip
   b75b0:	e782      	b.n	b74b8 <loop+0x570>
              if(pointSide == nearestSide){
   b75b2:	45bc      	cmp	ip, r7
   b75b4:	d1ed      	bne.n	b7592 <loop+0x64a>
        String destNm = train.key("destination").valueString();
   b75b6:	a817      	add	r0, sp, #92	; 0x5c
   b75b8:	f002 ff0e 	bl	ba3d8 <_ZN6StringD1Ev>
        String nextStation = train.key("next_stop").valueString();
   b75bc:	a813      	add	r0, sp, #76	; 0x4c
   b75be:	f002 ff0b 	bl	ba3d8 <_ZN6StringD1Ev>
        JsonReference train = parser.getReference().key("lines").index(0).key("trains").index(count);
   b75c2:	a80a      	add	r0, sp, #40	; 0x28
        count++;
   b75c4:	f109 0901 	add.w	r9, r9, #1
        JsonReference train = parser.getReference().key("lines").index(0).key("trains").index(count);
   b75c8:	f000 fb46 	bl	b7c58 <_ZN13JsonReferenceD1Ev>
   b75cc:	e5a3      	b.n	b7116 <loop+0x1ce>
            if(pointSide == nearestSide){
   b75ce:	45bc      	cmp	ip, r7
   b75d0:	d1e0      	bne.n	b7594 <loop+0x64c>
              secondClosestIndex = closestIndex + 1;
   b75d2:	1c43      	adds	r3, r0, #1
   b75d4:	e7de      	b.n	b7594 <loop+0x64c>
   b75d6:	4602      	mov	r2, r0
   b75d8:	e77a      	b.n	b74d0 <loop+0x588>
   b75da:	4619      	mov	r1, r3
   b75dc:	4694      	mov	ip, r2
   b75de:	e779      	b.n	b74d4 <loop+0x58c>
        bool inLoop = false;
   b75e0:	2300      	movs	r3, #0
            pcbSegment = 3;
   b75e2:	2503      	movs	r5, #3
   b75e4:	e7a2      	b.n	b752c <loop+0x5e4>
            lowerScaleBound = 0;
   b75e6:	2100      	movs	r1, #0
        bool inLoop = false;
   b75e8:	460b      	mov	r3, r1
            pcbSegment = 0;
   b75ea:	460d      	mov	r5, r1
   b75ec:	e79e      	b.n	b752c <loop+0x5e4>
        bool inLoop = false;
   b75ee:	2300      	movs	r3, #0
            pcbSegment = 1;
   b75f0:	2501      	movs	r5, #1
          for(int i = lowerScaleBound; i < lowerIndex; i++){
   b75f2:	e79b      	b.n	b752c <loop+0x5e4>
          if(cityIndexBuffer == 0){
   b75f4:	4aab      	ldr	r2, [pc, #684]	; (b78a4 <loop+0x95c>)
   b75f6:	9e24      	ldr	r6, [sp, #144]	; 0x90
   b75f8:	6812      	ldr	r2, [r2, #0]
   b75fa:	2a00      	cmp	r2, #0
   b75fc:	d170      	bne.n	b76e0 <loop+0x798>
            if(inLoop){
   b75fe:	2b00      	cmp	r3, #0
   b7600:	d04a      	beq.n	b7698 <loop+0x750>
              if(currentRailway.name == pinkLineCTA.name){
   b7602:	49a9      	ldr	r1, [pc, #676]	; (b78a8 <loop+0x960>)
   b7604:	a827      	add	r0, sp, #156	; 0x9c
   b7606:	f7fd f97f 	bl	b4908 <_ZSteqIcEN9__gnu_cxx11__enable_ifIXsrSt9__is_charIT_E7__valueEbE6__typeERKNSt7__cxx1112basic_stringIS3_St11char_traitsIS3_ESaIS3_EEESE_>
   b760a:	b1f0      	cbz	r0, b764a <loop+0x702>
      { return size_type(this->_M_impl._M_finish - this->_M_impl._M_start); }
   b760c:	e9d6 2306 	ldrd	r2, r3, [r6, #24]
   b7610:	1a9b      	subs	r3, r3, r2
   b7612:	109b      	asrs	r3, r3, #2
                segmentPos = (float)currentRailway.outputs[2].size() - segmentPos;
   b7614:	ee07 3a90 	vmov	s15, r3
   b7618:	eef8 7a67 	vcvt.f32.u32	s15, s15
   b761c:	ee37 8ac8 	vsub.f32	s16, s15, s16
            if(pcbSegment == 1 && currentRailway.name == greenLineCTA.name){
   b7620:	2d01      	cmp	r5, #1
   b7622:	d147      	bne.n	b76b4 <loop+0x76c>
   b7624:	49a1      	ldr	r1, [pc, #644]	; (b78ac <loop+0x964>)
   b7626:	a827      	add	r0, sp, #156	; 0x9c
   b7628:	f7fd f96e 	bl	b4908 <_ZSteqIcEN9__gnu_cxx11__enable_ifIXsrSt9__is_charIT_E7__valueEbE6__typeERKNSt7__cxx1112basic_stringIS3_St11char_traitsIS3_ESaIS3_EEESE_>
   b762c:	2800      	cmp	r0, #0
   b762e:	d049      	beq.n	b76c4 <loop+0x77c>
   b7630:	e9d6 2303 	ldrd	r2, r3, [r6, #12]
   b7634:	1a9b      	subs	r3, r3, r2
   b7636:	109b      	asrs	r3, r3, #2
              segmentPos = (float)currentRailway.outputs[1].size() - segmentPos;
   b7638:	ee07 3a90 	vmov	s15, r3
   b763c:	eef8 7a67 	vcvt.f32.u32	s15, s15
   b7640:	ee37 8ac8 	vsub.f32	s16, s15, s16
              trainDir = 6 - trainDir;
   b7644:	f1c4 0406 	rsb	r4, r4, #6
   b7648:	e03c      	b.n	b76c4 <loop+0x77c>
              }else if(currentRailway.name == orangeLineCTA.name){
   b764a:	4999      	ldr	r1, [pc, #612]	; (b78b0 <loop+0x968>)
   b764c:	a827      	add	r0, sp, #156	; 0x9c
   b764e:	f7fd f95b 	bl	b4908 <_ZSteqIcEN9__gnu_cxx11__enable_ifIXsrSt9__is_charIT_E7__valueEbE6__typeERKNSt7__cxx1112basic_stringIS3_St11char_traitsIS3_ESaIS3_EEESE_>
   b7652:	b1c8      	cbz	r0, b7688 <loop+0x740>
	return *(this->_M_impl._M_start + __n);
   b7654:	4b97      	ldr	r3, [pc, #604]	; (b78b4 <loop+0x96c>)
   b7656:	6a5b      	ldr	r3, [r3, #36]	; 0x24
      { return size_type(this->_M_impl._M_finish - this->_M_impl._M_start); }
   b7658:	e9d3 3206 	ldrd	r3, r2, [r3, #24]
   b765c:	1ad2      	subs	r2, r2, r3
   b765e:	1092      	asrs	r2, r2, #2
                segmentPos = (int)(segmentPos + orangeLineCTA.outputs[2].size() / 2) % orangeLineCTA.outputs[2].size();
   b7660:	0853      	lsrs	r3, r2, #1
   b7662:	ee07 3a90 	vmov	s15, r3
   b7666:	eef8 7ae7 	vcvt.f32.s32	s15, s15
   b766a:	ee37 8a88 	vadd.f32	s16, s15, s16
   b766e:	eefd 7ac8 	vcvt.s32.f32	s15, s16
   b7672:	ee17 3a90 	vmov	r3, s15
   b7676:	fbb3 f1f2 	udiv	r1, r3, r2
   b767a:	fb02 3311 	mls	r3, r2, r1, r3
   b767e:	ee08 3a10 	vmov	s16, r3
   b7682:	eeb8 8a48 	vcvt.f32.u32	s16, s16
   b7686:	e7cb      	b.n	b7620 <loop+0x6d8>
              }else if(currentRailway.name == purpleLineCTA.name){
   b7688:	498b      	ldr	r1, [pc, #556]	; (b78b8 <loop+0x970>)
   b768a:	a827      	add	r0, sp, #156	; 0x9c
   b768c:	f7fd f93c 	bl	b4908 <_ZSteqIcEN9__gnu_cxx11__enable_ifIXsrSt9__is_charIT_E7__valueEbE6__typeERKNSt7__cxx1112basic_stringIS3_St11char_traitsIS3_ESaIS3_EEESE_>
                trainDir = 1;
   b7690:	2800      	cmp	r0, #0
   b7692:	bf18      	it	ne
   b7694:	2401      	movne	r4, #1
   b7696:	e7c3      	b.n	b7620 <loop+0x6d8>
              if(currentRailway.name == brownLineCTA.name || currentRailway.name == purpleLineCTA.name){
   b7698:	4988      	ldr	r1, [pc, #544]	; (b78bc <loop+0x974>)
   b769a:	a827      	add	r0, sp, #156	; 0x9c
   b769c:	f7fd f934 	bl	b4908 <_ZSteqIcEN9__gnu_cxx11__enable_ifIXsrSt9__is_charIT_E7__valueEbE6__typeERKNSt7__cxx1112basic_stringIS3_St11char_traitsIS3_ESaIS3_EEESE_>
   b76a0:	b928      	cbnz	r0, b76ae <loop+0x766>
   b76a2:	4985      	ldr	r1, [pc, #532]	; (b78b8 <loop+0x970>)
   b76a4:	a827      	add	r0, sp, #156	; 0x9c
   b76a6:	f7fd f92f 	bl	b4908 <_ZSteqIcEN9__gnu_cxx11__enable_ifIXsrSt9__is_charIT_E7__valueEbE6__typeERKNSt7__cxx1112basic_stringIS3_St11char_traitsIS3_ESaIS3_EEESE_>
   b76aa:	2800      	cmp	r0, #0
   b76ac:	d0b8      	beq.n	b7620 <loop+0x6d8>
                trainDir = 6 - trainDir;
   b76ae:	f1c4 0406 	rsb	r4, r4, #6
   b76b2:	e7b5      	b.n	b7620 <loop+0x6d8>
            if(pcbSegment == 3 && currentRailway.name == pinkLineCTA.name){
   b76b4:	2d03      	cmp	r5, #3
   b76b6:	d105      	bne.n	b76c4 <loop+0x77c>
   b76b8:	497b      	ldr	r1, [pc, #492]	; (b78a8 <loop+0x960>)
            if(currentRailway.name == orangeLineMBTA.name || currentRailway.name == greenLine1MBTA.name || currentRailway.name == redLineMBTA.name){
   b76ba:	a827      	add	r0, sp, #156	; 0x9c
   b76bc:	f7fd f924 	bl	b4908 <_ZSteqIcEN9__gnu_cxx11__enable_ifIXsrSt9__is_charIT_E7__valueEbE6__typeERKNSt7__cxx1112basic_stringIS3_St11char_traitsIS3_ESaIS3_EEESE_>
   b76c0:	2800      	cmp	r0, #0
   b76c2:	d1bf      	bne.n	b7644 <loop+0x6fc>
  { return __builtin_floorf(__x); }
   b76c4:	eeb0 0a48 	vmov.f32	s0, s16
   b76c8:	f003 feee 	bl	bb4a8 <floorf>
	return *(this->_M_impl._M_start + __n);
   b76cc:	230c      	movs	r3, #12
          currentRailway.outputs[pcbSegment][(int)floor(segmentPos)] = trainDir;
   b76ce:	eebd 0ac0 	vcvt.s32.f32	s0, s0
   b76d2:	435d      	muls	r5, r3
   b76d4:	ee10 2a10 	vmov	r2, s0
   b76d8:	5973      	ldr	r3, [r6, r5]
   b76da:	f843 4022 	str.w	r4, [r3, r2, lsl #2]
   b76de:	e76a      	b.n	b75b6 <loop+0x66e>
          else if(cityIndexBuffer == 1){
   b76e0:	2a01      	cmp	r2, #1
   b76e2:	d1ef      	bne.n	b76c4 <loop+0x77c>
            if(currentRailway.name == orangeLineMBTA.name || currentRailway.name == greenLine1MBTA.name || currentRailway.name == redLineMBTA.name){
   b76e4:	4976      	ldr	r1, [pc, #472]	; (b78c0 <loop+0x978>)
   b76e6:	a827      	add	r0, sp, #156	; 0x9c
   b76e8:	f7fd f90e 	bl	b4908 <_ZSteqIcEN9__gnu_cxx11__enable_ifIXsrSt9__is_charIT_E7__valueEbE6__typeERKNSt7__cxx1112basic_stringIS3_St11char_traitsIS3_ESaIS3_EEESE_>
   b76ec:	2800      	cmp	r0, #0
   b76ee:	d1a9      	bne.n	b7644 <loop+0x6fc>
   b76f0:	4974      	ldr	r1, [pc, #464]	; (b78c4 <loop+0x97c>)
   b76f2:	a827      	add	r0, sp, #156	; 0x9c
   b76f4:	f7fd f908 	bl	b4908 <_ZSteqIcEN9__gnu_cxx11__enable_ifIXsrSt9__is_charIT_E7__valueEbE6__typeERKNSt7__cxx1112basic_stringIS3_St11char_traitsIS3_ESaIS3_EEESE_>
   b76f8:	2800      	cmp	r0, #0
   b76fa:	d1a3      	bne.n	b7644 <loop+0x6fc>
   b76fc:	4972      	ldr	r1, [pc, #456]	; (b78c8 <loop+0x980>)
   b76fe:	e7dc      	b.n	b76ba <loop+0x772>
        }else if(cityIndexBuffer == 0 && i == 3){
   b7700:	2d03      	cmp	r5, #3
   b7702:	d10d      	bne.n	b7720 <loop+0x7d8>
          if(currentRailway.name == orangeLineCTA.name){
   b7704:	496a      	ldr	r1, [pc, #424]	; (b78b0 <loop+0x968>)
   b7706:	4c71      	ldr	r4, [pc, #452]	; (b78cc <loop+0x984>)
   b7708:	a827      	add	r0, sp, #156	; 0x9c
   b770a:	f7fd f8fd 	bl	b4908 <_ZSteqIcEN9__gnu_cxx11__enable_ifIXsrSt9__is_charIT_E7__valueEbE6__typeERKNSt7__cxx1112basic_stringIS3_St11char_traitsIS3_ESaIS3_EEESE_>
   b770e:	b118      	cbz	r0, b7718 <loop+0x7d0>
            Wire.beginTransmission(greenLineCTAAdr[0]);
   b7710:	f003 fcdc 	bl	bb0cc <_Z19__fetch_global_Wirev>
   b7714:	6821      	ldr	r1, [r4, #0]
   b7716:	e58b      	b.n	b7230 <loop+0x2e8>
            Wire.beginTransmission(greenLineCTAAdr[1]);
   b7718:	f003 fcd8 	bl	bb0cc <_Z19__fetch_global_Wirev>
   b771c:	6861      	ldr	r1, [r4, #4]
   b771e:	e587      	b.n	b7230 <loop+0x2e8>
          Wire.beginTransmission(sequenceArr[j * 2 + i]);
   b7720:	f003 fcd4 	bl	bb0cc <_Z19__fetch_global_Wirev>
   b7724:	f8d8 3000 	ldr.w	r3, [r8]
   b7728:	5999      	ldr	r1, [r3, r6]
   b772a:	e581      	b.n	b7230 <loop+0x2e8>
        }else if(cityIndexBuffer == 0 && i == 3){
   b772c:	2d03      	cmp	r5, #3
   b772e:	d10d      	bne.n	b774c <loop+0x804>
          if(currentRailway.name == orangeLineCTA.name){
   b7730:	495f      	ldr	r1, [pc, #380]	; (b78b0 <loop+0x968>)
   b7732:	4c66      	ldr	r4, [pc, #408]	; (b78cc <loop+0x984>)
   b7734:	a827      	add	r0, sp, #156	; 0x9c
   b7736:	f7fd f8e7 	bl	b4908 <_ZSteqIcEN9__gnu_cxx11__enable_ifIXsrSt9__is_charIT_E7__valueEbE6__typeERKNSt7__cxx1112basic_stringIS3_St11char_traitsIS3_ESaIS3_EEESE_>
   b773a:	b118      	cbz	r0, b7744 <loop+0x7fc>
            Wire.beginTransmission(greenLineCTAAdr[0]);
   b773c:	f003 fcc6 	bl	bb0cc <_Z19__fetch_global_Wirev>
   b7740:	6821      	ldr	r1, [r4, #0]
   b7742:	e5aa      	b.n	b729a <loop+0x352>
            Wire.beginTransmission(greenLineCTAAdr[1]);
   b7744:	f003 fcc2 	bl	bb0cc <_Z19__fetch_global_Wirev>
   b7748:	6861      	ldr	r1, [r4, #4]
   b774a:	e5a6      	b.n	b729a <loop+0x352>
          Wire.beginTransmission(sequenceArr[j * 2 + i]);
   b774c:	f003 fcbe 	bl	bb0cc <_Z19__fetch_global_Wirev>
   b7750:	f8d8 3000 	ldr.w	r3, [r8]
   b7754:	5999      	ldr	r1, [r3, r6]
   b7756:	e5a0      	b.n	b729a <loop+0x352>
            else if(currentRailway.name == brownLineCTA.name || currentRailway.name == purpleLineCTA.name){
   b7758:	f109 0130 	add.w	r1, r9, #48	; 0x30
   b775c:	a827      	add	r0, sp, #156	; 0x9c
   b775e:	f7fd f8d3 	bl	b4908 <_ZSteqIcEN9__gnu_cxx11__enable_ifIXsrSt9__is_charIT_E7__valueEbE6__typeERKNSt7__cxx1112basic_stringIS3_St11char_traitsIS3_ESaIS3_EEESE_>
   b7762:	b920      	cbnz	r0, b776e <loop+0x826>
   b7764:	4954      	ldr	r1, [pc, #336]	; (b78b8 <loop+0x970>)
   b7766:	a827      	add	r0, sp, #156	; 0x9c
   b7768:	f7fd f8ce 	bl	b4908 <_ZSteqIcEN9__gnu_cxx11__enable_ifIXsrSt9__is_charIT_E7__valueEbE6__typeERKNSt7__cxx1112basic_stringIS3_St11char_traitsIS3_ESaIS3_EEESE_>
   b776c:	b198      	cbz	r0, b7796 <loop+0x84e>
   b776e:	f8d9 2024 	ldr.w	r2, [r9, #36]	; 0x24
      { return size_type(this->_M_impl._M_finish - this->_M_impl._M_start); }
   b7772:	e9d2 2300 	ldrd	r2, r3, [r2]
   b7776:	1a9b      	subs	r3, r3, r2
              for(int j = 0; j < brownLineCTA.outputs[0].size(); j++){
   b7778:	ebb4 0fa3 	cmp.w	r4, r3, asr #2
   b777c:	f080 80ac 	bcs.w	b78d8 <loop+0x990>
                Wire.write((char)currentRailway.outputs[0][j] + '0');
   b7780:	f003 fca4 	bl	bb0cc <_Z19__fetch_global_Wirev>
	return *(this->_M_impl._M_start + __n);
   b7784:	9b24      	ldr	r3, [sp, #144]	; 0x90
   b7786:	681b      	ldr	r3, [r3, #0]
   b7788:	f813 1024 	ldrb.w	r1, [r3, r4, lsl #2]
   b778c:	3130      	adds	r1, #48	; 0x30
   b778e:	f7fc fd47 	bl	b4220 <_ZN7TwoWire5writeEi.isra.0>
              for(int j = 0; j < brownLineCTA.outputs[0].size(); j++){
   b7792:	3401      	adds	r4, #1
   b7794:	e7eb      	b.n	b776e <loop+0x826>
   b7796:	f8d9 2024 	ldr.w	r2, [r9, #36]	; 0x24
      { return size_type(this->_M_impl._M_finish - this->_M_impl._M_start); }
   b779a:	e9d2 2300 	ldrd	r2, r3, [r2]
   b779e:	1a9b      	subs	r3, r3, r2
              for(int j = 0; j < brownLineCTA.outputs[0].size(); j++){
   b77a0:	ebb4 0fa3 	cmp.w	r4, r3, asr #2
   b77a4:	f080 8098 	bcs.w	b78d8 <loop+0x990>
                Wire.write('0');
   b77a8:	f003 fc90 	bl	bb0cc <_Z19__fetch_global_Wirev>
   b77ac:	2130      	movs	r1, #48	; 0x30
   b77ae:	f7fc fd37 	bl	b4220 <_ZN7TwoWire5writeEi.isra.0>
              for(int j = 0; j < brownLineCTA.outputs[0].size(); j++){
   b77b2:	3401      	adds	r4, #1
   b77b4:	e7ef      	b.n	b7796 <loop+0x84e>
          if(i == 1 && (currentRailway.name == brownLineCTA.name || currentRailway.name == purpleLineCTA.name)){
   b77b6:	2d01      	cmp	r5, #1
   b77b8:	f040 80c0 	bne.w	b793c <loop+0x9f4>
   b77bc:	493f      	ldr	r1, [pc, #252]	; (b78bc <loop+0x974>)
   b77be:	a827      	add	r0, sp, #156	; 0x9c
   b77c0:	f7fd f8a2 	bl	b4908 <_ZSteqIcEN9__gnu_cxx11__enable_ifIXsrSt9__is_charIT_E7__valueEbE6__typeERKNSt7__cxx1112basic_stringIS3_St11char_traitsIS3_ESaIS3_EEESE_>
   b77c4:	b930      	cbnz	r0, b77d4 <loop+0x88c>
   b77c6:	493c      	ldr	r1, [pc, #240]	; (b78b8 <loop+0x970>)
   b77c8:	a827      	add	r0, sp, #156	; 0x9c
   b77ca:	f7fd f89d 	bl	b4908 <_ZSteqIcEN9__gnu_cxx11__enable_ifIXsrSt9__is_charIT_E7__valueEbE6__typeERKNSt7__cxx1112basic_stringIS3_St11char_traitsIS3_ESaIS3_EEESE_>
   b77ce:	2800      	cmp	r0, #0
   b77d0:	f000 8082 	beq.w	b78d8 <loop+0x990>
	return *(this->_M_impl._M_start + __n);
   b77d4:	9a24      	ldr	r2, [sp, #144]	; 0x90
      { return size_type(this->_M_impl._M_finish - this->_M_impl._M_start); }
   b77d6:	e9d2 2306 	ldrd	r2, r3, [r2, #24]
   b77da:	1a9b      	subs	r3, r3, r2
            for(int j = 0; j < currentRailway.outputs[2].size(); j++){
   b77dc:	ebb4 0fa3 	cmp.w	r4, r3, asr #2
   b77e0:	d27a      	bcs.n	b78d8 <loop+0x990>
              Wire.write('0');
   b77e2:	f003 fc73 	bl	bb0cc <_Z19__fetch_global_Wirev>
   b77e6:	2130      	movs	r1, #48	; 0x30
   b77e8:	f7fc fd1a 	bl	b4220 <_ZN7TwoWire5writeEi.isra.0>
            for(int j = 0; j < currentRailway.outputs[2].size(); j++){
   b77ec:	3401      	adds	r4, #1
   b77ee:	e7f1      	b.n	b77d4 <loop+0x88c>
          }else if(i == 3 && currentRailway.name == pinkLineCTA.name){
   b77f0:	492d      	ldr	r1, [pc, #180]	; (b78a8 <loop+0x960>)
   b77f2:	a827      	add	r0, sp, #156	; 0x9c
   b77f4:	f7fd f888 	bl	b4908 <_ZSteqIcEN9__gnu_cxx11__enable_ifIXsrSt9__is_charIT_E7__valueEbE6__typeERKNSt7__cxx1112basic_stringIS3_St11char_traitsIS3_ESaIS3_EEESE_>
   b77f8:	2800      	cmp	r0, #0
   b77fa:	d06d      	beq.n	b78d8 <loop+0x990>
	return *(this->_M_impl._M_start + __n);
   b77fc:	f8df 90d0 	ldr.w	r9, [pc, #208]	; b78d0 <loop+0x988>
   b7800:	f8df b0d0 	ldr.w	fp, [pc, #208]	; b78d4 <loop+0x98c>
   b7804:	f8d9 0024 	ldr.w	r0, [r9, #36]	; 0x24
   b7808:	f8db 1024 	ldr.w	r1, [fp, #36]	; 0x24
      { return size_type(this->_M_impl._M_finish - this->_M_impl._M_start); }
   b780c:	e9d0 3200 	ldrd	r3, r2, [r0]
   b7810:	1ad2      	subs	r2, r2, r3
   b7812:	e9d1 1309 	ldrd	r1, r3, [r1, #36]	; 0x24
   b7816:	1a5b      	subs	r3, r3, r1
   b7818:	109b      	asrs	r3, r3, #2
            for(int j = 0; j < greenLineCTA.outputs[0].size() - pinkLineCTA.outputs[3].size(); j++){
   b781a:	ebc3 03a2 	rsb	r3, r3, r2, asr #2
   b781e:	42a3      	cmp	r3, r4
   b7820:	d95a      	bls.n	b78d8 <loop+0x990>
              Wire.write('0');
   b7822:	f003 fc53 	bl	bb0cc <_Z19__fetch_global_Wirev>
   b7826:	2130      	movs	r1, #48	; 0x30
   b7828:	f7fc fcfa 	bl	b4220 <_ZN7TwoWire5writeEi.isra.0>
            for(int j = 0; j < greenLineCTA.outputs[0].size() - pinkLineCTA.outputs[3].size(); j++){
   b782c:	3401      	adds	r4, #1
   b782e:	e7e9      	b.n	b7804 <loop+0x8bc>
            val = n;
   b7830:	4619      	mov	r1, r3
   b7832:	e07c      	b.n	b792e <loop+0x9e6>
        Serial.println();
   b7834:	f003 fafc 	bl	bae30 <_Z16_fetch_usbserialv>
   b7838:	f002 fd63 	bl	ba302 <_ZN5Print7printlnEv>
      for(int i = 0; i < 4; i++){
   b783c:	3501      	adds	r5, #1
        Wire.endTransmission();
   b783e:	f003 fc45 	bl	bb0cc <_Z19__fetch_global_Wirev>
   b7842:	f002 fbe4 	bl	ba00e <_ZN7TwoWire15endTransmissionEv>
      for(int i = 0; i < 4; i++){
   b7846:	2d04      	cmp	r5, #4
   b7848:	f106 0604 	add.w	r6, r6, #4
   b784c:	f47f acdf 	bne.w	b720e <loop+0x2c6>
   b7850:	2300      	movs	r3, #0
          currentRailway.outputs[i][j] = 0;
   b7852:	461c      	mov	r4, r3
        for(int j = 0; j < currentRailway.outputs[i].size(); j++){
   b7854:	2200      	movs	r2, #0
	return *(this->_M_impl._M_start + __n);
   b7856:	9924      	ldr	r1, [sp, #144]	; 0x90
   b7858:	18cd      	adds	r5, r1, r3
      { return size_type(this->_M_impl._M_finish - this->_M_impl._M_start); }
   b785a:	58c8      	ldr	r0, [r1, r3]
   b785c:	6869      	ldr	r1, [r5, #4]
   b785e:	1a09      	subs	r1, r1, r0
   b7860:	ebb2 0fa1 	cmp.w	r2, r1, asr #2
   b7864:	d203      	bcs.n	b786e <loop+0x926>
          currentRailway.outputs[i][j] = 0;
   b7866:	f840 4022 	str.w	r4, [r0, r2, lsl #2]
        for(int j = 0; j < currentRailway.outputs[i].size(); j++){
   b786a:	3201      	adds	r2, #1
   b786c:	e7f3      	b.n	b7856 <loop+0x90e>
      for(int i = 0; i < 4; i++){
   b786e:	330c      	adds	r3, #12
   b7870:	2b30      	cmp	r3, #48	; 0x30
   b7872:	d1ef      	bne.n	b7854 <loop+0x90c>
      Serial.println();
   b7874:	f003 fadc 	bl	bae30 <_Z16_fetch_usbserialv>
   b7878:	f002 fd43 	bl	ba302 <_ZN5Print7printlnEv>
      }
   b787c:	a807      	add	r0, sp, #28
   b787e:	f7fc ff4d 	bl	b471c <_ZNSt12_Vector_baseI10CheckpointSaIS0_EED1Ev>
      Railway currentRailway = cities[cityIndexBuffer].railways[j];
   b7882:	a81b      	add	r0, sp, #108	; 0x6c
   b7884:	f7fd fb96 	bl	b4fb4 <_ZN7RailwayD1Ev>
    for(int j = 0; j < cities[cityIndexBuffer].railways.size(); j++){
   b7888:	9b02      	ldr	r3, [sp, #8]
   b788a:	3301      	adds	r3, #1
   b788c:	f7ff bb90 	b.w	b6fb0 <loop+0x68>
    Serial.println();
   b7890:	f003 face 	bl	bae30 <_Z16_fetch_usbserialv>
}
   b7894:	b037      	add	sp, #220	; 0xdc
   b7896:	ecbd 8b06 	vpop	{d8-d10}
   b789a:	e8bd 4ff0 	ldmia.w	sp!, {r4, r5, r6, r7, r8, r9, sl, fp, lr}
    Serial.println();
   b789e:	f002 bd30 	b.w	ba302 <_ZN5Print7printlnEv>
   b78a2:	bf00      	nop
   b78a4:	2003545c 	.word	0x2003545c
   b78a8:	2003e4b4 	.word	0x2003e4b4
   b78ac:	20035574 	.word	0x20035574
   b78b0:	20037e10 	.word	0x20037e10
   b78b4:	20037de0 	.word	0x20037de0
   b78b8:	2003e520 	.word	0x2003e520
   b78bc:	20035410 	.word	0x20035410
   b78c0:	20037e7c 	.word	0x20037e7c
   b78c4:	2003549c 	.word	0x2003549c
   b78c8:	2003e5f8 	.word	0x2003e5f8
   b78cc:	200355b0 	.word	0x200355b0
   b78d0:	20035544 	.word	0x20035544
   b78d4:	2003e484 	.word	0x2003e484
        Serial.printf("%s rail part %i: ", currentRailway.name.c_str(), i);
   b78d8:	f003 faaa 	bl	bae30 <_Z16_fetch_usbserialv>
   b78dc:	9a27      	ldr	r2, [sp, #156]	; 0x9c
   b78de:	492a      	ldr	r1, [pc, #168]	; (b7988 <loop+0xa40>)
   b78e0:	462b      	mov	r3, r5
   b78e2:	f7fc fd85 	bl	b43f0 <_ZN5Print6printfEPKcz>
        for(int j = 0; j < currentRailway.outputs[i].size(); j++){
   b78e6:	240c      	movs	r4, #12
   b78e8:	436c      	muls	r4, r5
   b78ea:	f04f 0900 	mov.w	r9, #0
	return *(this->_M_impl._M_start + __n);
   b78ee:	9a24      	ldr	r2, [sp, #144]	; 0x90
   b78f0:	1913      	adds	r3, r2, r4
      { return size_type(this->_M_impl._M_finish - this->_M_impl._M_start); }
   b78f2:	5912      	ldr	r2, [r2, r4]
   b78f4:	685b      	ldr	r3, [r3, #4]
   b78f6:	1a9b      	subs	r3, r3, r2
   b78f8:	ebb9 0fa3 	cmp.w	r9, r3, asr #2
   b78fc:	d29a      	bcs.n	b7834 <loop+0x8ec>
          Wire.write((char)currentRailway.outputs[i][j] + '0');
   b78fe:	f003 fbe5 	bl	bb0cc <_Z19__fetch_global_Wirev>
	return *(this->_M_impl._M_start + __n);
   b7902:	9b24      	ldr	r3, [sp, #144]	; 0x90
   b7904:	591b      	ldr	r3, [r3, r4]
   b7906:	f813 1029 	ldrb.w	r1, [r3, r9, lsl #2]
   b790a:	3130      	adds	r1, #48	; 0x30
   b790c:	f7fc fc88 	bl	b4220 <_ZN7TwoWire5writeEi.isra.0>
          Serial.print(currentRailway.outputs[i][j]);
   b7910:	f003 fa8e 	bl	bae30 <_Z16_fetch_usbserialv>
   b7914:	9b24      	ldr	r3, [sp, #144]	; 0x90
   b7916:	591b      	ldr	r3, [r3, r4]
   b7918:	f853 3029 	ldr.w	r3, [r3, r9, lsl #2]
        if (n < 0 && base == 10) {
   b791c:	2b00      	cmp	r3, #0
   b791e:	4683      	mov	fp, r0
   b7920:	da86      	bge.n	b7830 <loop+0x8e8>
            t = print('-');
   b7922:	212d      	movs	r1, #45	; 0x2d
   b7924:	9303      	str	r3, [sp, #12]
   b7926:	f002 fce9 	bl	ba2fc <_ZN5Print5printEc>
            val = -n;
   b792a:	9b03      	ldr	r3, [sp, #12]
   b792c:	4259      	negs	r1, r3
        return printNumber(val, base) + t;
   b792e:	220a      	movs	r2, #10
   b7930:	4658      	mov	r0, fp
   b7932:	f002 fcfc 	bl	ba32e <_ZN5Print11printNumberEmh>
        for(int j = 0; j < currentRailway.outputs[i].size(); j++){
   b7936:	f109 0901 	add.w	r9, r9, #1
   b793a:	e7d8      	b.n	b78ee <loop+0x9a6>
          if(i == 3 && currentRailway.name == orangeLineCTA.name){
   b793c:	2d03      	cmp	r5, #3
   b793e:	d1cb      	bne.n	b78d8 <loop+0x990>
   b7940:	4912      	ldr	r1, [pc, #72]	; (b798c <loop+0xa44>)
   b7942:	a827      	add	r0, sp, #156	; 0x9c
   b7944:	f7fc ffe0 	bl	b4908 <_ZSteqIcEN9__gnu_cxx11__enable_ifIXsrSt9__is_charIT_E7__valueEbE6__typeERKNSt7__cxx1112basic_stringIS3_St11char_traitsIS3_ESaIS3_EEESE_>
   b7948:	2800      	cmp	r0, #0
   b794a:	f43f af51 	beq.w	b77f0 <loop+0x8a8>
   b794e:	f8df 9044 	ldr.w	r9, [pc, #68]	; b7994 <loop+0xa4c>
   b7952:	4b0f      	ldr	r3, [pc, #60]	; (b7990 <loop+0xa48>)
   b7954:	f8d9 0024 	ldr.w	r0, [r9, #36]	; 0x24
   b7958:	6a59      	ldr	r1, [r3, #36]	; 0x24
      { return size_type(this->_M_impl._M_finish - this->_M_impl._M_start); }
   b795a:	e9d0 3200 	ldrd	r3, r2, [r0]
   b795e:	1ad2      	subs	r2, r2, r3
   b7960:	e9d1 1309 	ldrd	r1, r3, [r1, #36]	; 0x24
   b7964:	1a5b      	subs	r3, r3, r1
   b7966:	109b      	asrs	r3, r3, #2
            for(int j = 0; j < greenLineCTA.outputs[0].size() - orangeLineCTA.outputs[3].size(); j++){
   b7968:	ebc3 03a2 	rsb	r3, r3, r2, asr #2
   b796c:	42a3      	cmp	r3, r4
   b796e:	d9b3      	bls.n	b78d8 <loop+0x990>
              Wire.write('0');
   b7970:	f003 fbac 	bl	bb0cc <_Z19__fetch_global_Wirev>
   b7974:	2130      	movs	r1, #48	; 0x30
   b7976:	f7fc fc53 	bl	b4220 <_ZN7TwoWire5writeEi.isra.0>
            for(int j = 0; j < greenLineCTA.outputs[0].size() - orangeLineCTA.outputs[3].size(); j++){
   b797a:	3401      	adds	r4, #1
   b797c:	e7e9      	b.n	b7952 <loop+0xa0a>
}
   b797e:	b037      	add	sp, #220	; 0xdc
   b7980:	ecbd 8b06 	vpop	{d8-d10}
   b7984:	e8bd 8ff0 	ldmia.w	sp!, {r4, r5, r6, r7, r8, r9, sl, fp, pc}
   b7988:	000be639 	.word	0x000be639
   b798c:	20037e10 	.word	0x20037e10
   b7990:	20037de0 	.word	0x20037de0
   b7994:	20035544 	.word	0x20035544

000b7998 <_ZN10HttpClientC1Ev>:
static const uint16_t TIMEOUT = 5000; // Allow maximum 5s between data packets.

/**
* Constructor.
*/
HttpClient::HttpClient()
   b7998:	b510      	push	{r4, lr}
   b799a:	4604      	mov	r4, r0
   b799c:	f003 f97a 	bl	bac94 <_ZN9TCPClientC1Ev>
{

}
   b79a0:	4620      	mov	r0, r4
   b79a2:	bd10      	pop	{r4, pc}

000b79a4 <_ZN10HttpClient10sendHeaderEPKcS1_>:

/**
* Method to send a header, should only be called from within the class.
*/
void HttpClient::sendHeader(const char* aHeaderName, const char* aHeaderValue)
{
   b79a4:	b538      	push	{r3, r4, r5, lr}
   b79a6:	4604      	mov	r4, r0
   b79a8:	4615      	mov	r5, r2
    client.print(aHeaderName);
   b79aa:	f002 fca3 	bl	ba2f4 <_ZN5Print5printEPKc>
    client.print(": ");
   b79ae:	4905      	ldr	r1, [pc, #20]	; (b79c4 <_ZN10HttpClient10sendHeaderEPKcS1_+0x20>)
   b79b0:	4620      	mov	r0, r4
   b79b2:	f002 fc9f 	bl	ba2f4 <_ZN5Print5printEPKc>
    client.println(aHeaderValue);
   b79b6:	4629      	mov	r1, r5
   b79b8:	4620      	mov	r0, r4
    #ifdef LOGGING
    Serial.print(aHeaderName);
    Serial.print(": ");
    Serial.println(aHeaderValue);
    #endif
}
   b79ba:	e8bd 4038 	ldmia.w	sp!, {r3, r4, r5, lr}
    client.println(aHeaderValue);
   b79be:	f002 bcac 	b.w	ba31a <_ZN5Print7printlnEPKc>
   b79c2:	bf00      	nop
   b79c4:	000be337 	.word	0x000be337

000b79c8 <_ZN10HttpClient10sendHeaderEPKci>:

void HttpClient::sendHeader(const char* aHeaderName, const int aHeaderValue)
{
   b79c8:	b538      	push	{r3, r4, r5, lr}
   b79ca:	4605      	mov	r5, r0
   b79cc:	4614      	mov	r4, r2
    client.print(aHeaderName);
   b79ce:	f002 fc91 	bl	ba2f4 <_ZN5Print5printEPKc>
    client.print(": ");
   b79d2:	490b      	ldr	r1, [pc, #44]	; (b7a00 <_ZN10HttpClient10sendHeaderEPKci+0x38>)
   b79d4:	4628      	mov	r0, r5
   b79d6:	f002 fc8d 	bl	ba2f4 <_ZN5Print5printEPKc>
        if (n < 0 && base == 10) {
   b79da:	2c00      	cmp	r4, #0
   b79dc:	da0d      	bge.n	b79fa <_ZN10HttpClient10sendHeaderEPKci+0x32>
            t = print('-');
   b79de:	212d      	movs	r1, #45	; 0x2d
   b79e0:	4628      	mov	r0, r5
   b79e2:	f002 fc8b 	bl	ba2fc <_ZN5Print5printEc>
            val = -n;
   b79e6:	4261      	negs	r1, r4
        return printNumber(val, base) + t;
   b79e8:	4628      	mov	r0, r5
   b79ea:	220a      	movs	r2, #10
   b79ec:	f002 fc9f 	bl	ba32e <_ZN5Print11printNumberEmh>
        n += println();
   b79f0:	4628      	mov	r0, r5
    #ifdef LOGGING
    Serial.print(aHeaderName);
    Serial.print(": ");
    Serial.println(aHeaderValue);
    #endif
}
   b79f2:	e8bd 4038 	ldmia.w	sp!, {r3, r4, r5, lr}
   b79f6:	f002 bc84 	b.w	ba302 <_ZN5Print7printlnEv>
            val = n;
   b79fa:	4621      	mov	r1, r4
   b79fc:	e7f4      	b.n	b79e8 <_ZN10HttpClient10sendHeaderEPKci+0x20>
   b79fe:	bf00      	nop
   b7a00:	000be337 	.word	0x000be337

000b7a04 <_ZN10HttpClient7requestER14http_request_tR15http_response_tP13http_header_tPKc>:
* Method to send an HTTP Request. Allocate variables in your application code
* in the aResponse struct and set the headers and the options in the aRequest
* struct.
*/
void HttpClient::request(http_request_t &aRequest, http_response_t &aResponse, http_header_t headers[], const char* aHttpMethod)
{
   b7a04:	e92d 4ff0 	stmdb	sp!, {r4, r5, r6, r7, r8, r9, sl, fp, lr}
   b7a08:	460e      	mov	r6, r1
   b7a0a:	b091      	sub	sp, #68	; 0x44
   b7a0c:	4698      	mov	r8, r3
    // If a proper response code isn't received it will be set to -1.
    aResponse.status = -1;
   b7a0e:	f04f 33ff 	mov.w	r3, #4294967295	; 0xffffffff
   b7a12:	6013      	str	r3, [r2, #0]
{
   b7a14:	4604      	mov	r4, r0
	unsigned char operator != (const char *cstr) const {return !equals(cstr);}
   b7a16:	2100      	movs	r1, #0
   b7a18:	4630      	mov	r0, r6
   b7a1a:	f8dd 9068 	ldr.w	r9, [sp, #104]	; 0x68
   b7a1e:	4617      	mov	r7, r2
   b7a20:	f002 fdfd 	bl	ba61e <_ZNK6String6equalsEPKc>
   b7a24:	f8d6 e038 	ldr.w	lr, [r6, #56]	; 0x38

    // NOTE: The default port tertiary statement is unpredictable if the request structure is not initialised
    // http_request_t request = {0} or memset(&request, 0, sizeof(http_request_t)) should be used
    // to ensure all fields are zero
    bool connected = false;
    if(aRequest.hostname!=NULL) {
   b7a28:	4603      	mov	r3, r0
   b7a2a:	b998      	cbnz	r0, b7a54 <_ZN10HttpClient7requestER14http_request_tR15http_response_tP13http_header_tPKc+0x50>
	const char * c_str() const { return buffer; }
   b7a2c:	f1be 0f00 	cmp.w	lr, #0
   b7a30:	bf14      	ite	ne
   b7a32:	4672      	movne	r2, lr
   b7a34:	2250      	moveq	r2, #80	; 0x50
        connected = client.connect(aRequest.hostname.c_str(), (aRequest.port) ? aRequest.port : 80 );
   b7a36:	6831      	ldr	r1, [r6, #0]
   b7a38:	b292      	uxth	r2, r2
   b7a3a:	4620      	mov	r0, r4
   b7a3c:	f002 ff2a 	bl	ba894 <_ZN9TCPClient7connectEPKctm>
    }   else {
        connected = client.connect(aRequest.ip, aRequest.port);
   b7a40:	1e05      	subs	r5, r0, #0
   b7a42:	bf18      	it	ne
   b7a44:	2501      	movne	r5, #1
    } else {
        Serial.println("HttpClient>\tConnection failed.");
    }
    #endif

    if (!connected) {
   b7a46:	b9c5      	cbnz	r5, b7a7a <_ZN10HttpClient7requestER14http_request_tR15http_response_tP13http_header_tPKc+0x76>
        client.stop();
   b7a48:	4620      	mov	r0, r4
    }
    // Return the entire message body from bodyPos+4 till end.
    aResponse.body = "";
    aResponse.body += raw_response.substring(bodyPos+4);
    aResponse.status = atoi(statusCode.c_str());
}
   b7a4a:	b011      	add	sp, #68	; 0x44
   b7a4c:	e8bd 4ff0 	ldmia.w	sp!, {r4, r5, r6, r7, r8, r9, sl, fp, lr}
        client.stop();
   b7a50:	f003 b8d6 	b.w	bac00 <_ZN9TCPClient4stopEv>

/**
 * The IP address stored in host order.
 *
 */
class IPAddress : public Printable {
   b7a54:	4b76      	ldr	r3, [pc, #472]	; (b7c30 <_ZN10HttpClient7requestER14http_request_tR15http_response_tP13http_header_tPKc+0x22c>)
   b7a56:	930a      	str	r3, [sp, #40]	; 0x28
   b7a58:	f106 0c14 	add.w	ip, r6, #20
   b7a5c:	e8bc 000f 	ldmia.w	ip!, {r0, r1, r2, r3}
   b7a60:	ad0b      	add	r5, sp, #44	; 0x2c
   b7a62:	c50f      	stmia	r5!, {r0, r1, r2, r3}
   b7a64:	f8dc 3000 	ldr.w	r3, [ip]
   b7a68:	702b      	strb	r3, [r5, #0]
        connected = client.connect(aRequest.ip, aRequest.port);
   b7a6a:	fa1f f28e 	uxth.w	r2, lr
   b7a6e:	2300      	movs	r3, #0
   b7a70:	a90a      	add	r1, sp, #40	; 0x28
   b7a72:	4620      	mov	r0, r4
   b7a74:	f002 ffee 	bl	baa54 <_ZN9TCPClient7connectE9IPAddresstm>
   b7a78:	e7e2      	b.n	b7a40 <_ZN10HttpClient7requestER14http_request_tR15http_response_tP13http_header_tPKc+0x3c>
    client.print(aHttpMethod);
   b7a7a:	4649      	mov	r1, r9
   b7a7c:	4620      	mov	r0, r4
   b7a7e:	f002 fc39 	bl	ba2f4 <_ZN5Print5printEPKc>
    client.print(" ");
   b7a82:	496c      	ldr	r1, [pc, #432]	; (b7c34 <_ZN10HttpClient7requestER14http_request_tR15http_response_tP13http_header_tPKc+0x230>)
   b7a84:	4620      	mov	r0, r4
   b7a86:	f002 fc35 	bl	ba2f4 <_ZN5Print5printEPKc>
    client.print(aRequest.path);
   b7a8a:	6ab1      	ldr	r1, [r6, #40]	; 0x28
   b7a8c:	4620      	mov	r0, r4
   b7a8e:	f002 fc31 	bl	ba2f4 <_ZN5Print5printEPKc>
    client.print(" HTTP/1.0\r\n");
   b7a92:	4969      	ldr	r1, [pc, #420]	; (b7c38 <_ZN10HttpClient7requestER14http_request_tR15http_response_tP13http_header_tPKc+0x234>)
   b7a94:	4620      	mov	r0, r4
   b7a96:	f002 fc2d 	bl	ba2f4 <_ZN5Print5printEPKc>
    sendHeader("Connection", "close"); // Not supporting keep-alive for now.
   b7a9a:	4968      	ldr	r1, [pc, #416]	; (b7c3c <_ZN10HttpClient7requestER14http_request_tR15http_response_tP13http_header_tPKc+0x238>)
   b7a9c:	4a68      	ldr	r2, [pc, #416]	; (b7c40 <_ZN10HttpClient7requestER14http_request_tR15http_response_tP13http_header_tPKc+0x23c>)
   b7a9e:	4620      	mov	r0, r4
   b7aa0:	f7ff ff80 	bl	b79a4 <_ZN10HttpClient10sendHeaderEPKcS1_>
	unsigned char operator != (const char *cstr) const {return !equals(cstr);}
   b7aa4:	2100      	movs	r1, #0
   b7aa6:	4630      	mov	r0, r6
   b7aa8:	f002 fdb9 	bl	ba61e <_ZNK6String6equalsEPKc>
    if(aRequest.hostname!=NULL) {
   b7aac:	b920      	cbnz	r0, b7ab8 <_ZN10HttpClient7requestER14http_request_tR15http_response_tP13http_header_tPKc+0xb4>
        sendHeader("HOST", aRequest.hostname.c_str());
   b7aae:	6832      	ldr	r2, [r6, #0]
   b7ab0:	4964      	ldr	r1, [pc, #400]	; (b7c44 <_ZN10HttpClient7requestER14http_request_tR15http_response_tP13http_header_tPKc+0x240>)
   b7ab2:	4620      	mov	r0, r4
   b7ab4:	f7ff ff76 	bl	b79a4 <_ZN10HttpClient10sendHeaderEPKcS1_>
    if (aRequest.body != NULL) {
   b7ab8:	f106 0a3c 	add.w	sl, r6, #60	; 0x3c
   b7abc:	2100      	movs	r1, #0
   b7abe:	4650      	mov	r0, sl
   b7ac0:	f002 fdad 	bl	ba61e <_ZNK6String6equalsEPKc>
   b7ac4:	b928      	cbnz	r0, b7ad2 <_ZN10HttpClient7requestER14http_request_tR15http_response_tP13http_header_tPKc+0xce>
        sendHeader("Content-Length", (aRequest.body).length());
   b7ac6:	6c72      	ldr	r2, [r6, #68]	; 0x44
        sendHeader("Content-Length", 0);
   b7ac8:	495f      	ldr	r1, [pc, #380]	; (b7c48 <_ZN10HttpClient7requestER14http_request_tR15http_response_tP13http_header_tPKc+0x244>)
   b7aca:	4620      	mov	r0, r4
   b7acc:	f7ff ff7c 	bl	b79c8 <_ZN10HttpClient10sendHeaderEPKci>
   b7ad0:	e006      	b.n	b7ae0 <_ZN10HttpClient7requestER14http_request_tR15http_response_tP13http_header_tPKc+0xdc>
    } else if (strcmp(aHttpMethod, HTTP_METHOD_POST) == 0) { //Check to see if its a Post method.
   b7ad2:	495e      	ldr	r1, [pc, #376]	; (b7c4c <_ZN10HttpClient7requestER14http_request_tR15http_response_tP13http_header_tPKc+0x248>)
   b7ad4:	4648      	mov	r0, r9
   b7ad6:	f004 fba5 	bl	bc224 <strcmp>
   b7ada:	4602      	mov	r2, r0
   b7adc:	2800      	cmp	r0, #0
   b7ade:	d0f3      	beq.n	b7ac8 <_ZN10HttpClient7requestER14http_request_tR15http_response_tP13http_header_tPKc+0xc4>
    if (headers != NULL)
   b7ae0:	f1b8 0f00 	cmp.w	r8, #0
   b7ae4:	d00e      	beq.n	b7b04 <_ZN10HttpClient7requestER14http_request_tR15http_response_tP13http_header_tPKc+0x100>
        while (headers[i].header != NULL)
   b7ae6:	f8d8 1000 	ldr.w	r1, [r8]
   b7aea:	b159      	cbz	r1, b7b04 <_ZN10HttpClient7requestER14http_request_tR15http_response_tP13http_header_tPKc+0x100>
            if (headers[i].value != NULL) {
   b7aec:	f8d8 2004 	ldr.w	r2, [r8, #4]
                sendHeader(headers[i].header, headers[i].value);
   b7af0:	4620      	mov	r0, r4
            if (headers[i].value != NULL) {
   b7af2:	b122      	cbz	r2, b7afe <_ZN10HttpClient7requestER14http_request_tR15http_response_tP13http_header_tPKc+0xfa>
                sendHeader(headers[i].header, headers[i].value);
   b7af4:	f7ff ff56 	bl	b79a4 <_ZN10HttpClient10sendHeaderEPKcS1_>
            i++;
   b7af8:	f108 0808 	add.w	r8, r8, #8
        while (headers[i].header != NULL)
   b7afc:	e7f3      	b.n	b7ae6 <_ZN10HttpClient7requestER14http_request_tR15http_response_tP13http_header_tPKc+0xe2>
    client.println(aHeaderName);
   b7afe:	f002 fc0c 	bl	ba31a <_ZN5Print7printlnEPKc>
}
   b7b02:	e7f9      	b.n	b7af8 <_ZN10HttpClient7requestER14http_request_tR15http_response_tP13http_header_tPKc+0xf4>
    client.println();
   b7b04:	4620      	mov	r0, r4
   b7b06:	f002 fbfc 	bl	ba302 <_ZN5Print7printlnEv>
    client.flush();
   b7b0a:	4620      	mov	r0, r4
   b7b0c:	f002 fe22 	bl	ba754 <_ZN9TCPClient5flushEv>
   b7b10:	2100      	movs	r1, #0
   b7b12:	4650      	mov	r0, sl
   b7b14:	f002 fd83 	bl	ba61e <_ZNK6String6equalsEPKc>
    if (aRequest.body != NULL) {
   b7b18:	b918      	cbnz	r0, b7b22 <_ZN10HttpClient7requestER14http_request_tR15http_response_tP13http_header_tPKc+0x11e>
        client.println(aRequest.body);
   b7b1a:	6bf1      	ldr	r1, [r6, #60]	; 0x3c
   b7b1c:	4620      	mov	r0, r4
   b7b1e:	f002 fbfc 	bl	ba31a <_ZN5Print7printlnEPKc>
    memset(&buffer[0], 0, sizeof(buffer));
   b7b22:	f104 0a1c 	add.w	sl, r4, #28
   b7b26:	f44f 5220 	mov.w	r2, #10240	; 0x2800
   b7b2a:	2100      	movs	r1, #0
   b7b2c:	4650      	mov	r0, sl
   b7b2e:	f004 fb43 	bl	bc1b8 <memset>

#ifdef __cplusplus
extern "C" {
#endif

inline system_tick_t millis(void) { return HAL_Timer_Get_Milli_Seconds(); }
   b7b32:	f000 fddf 	bl	b86f4 <HAL_Timer_Get_Milli_Seconds>
   b7b36:	9001      	str	r0, [sp, #4]
   b7b38:	f000 fddc 	bl	b86f4 <HAL_Timer_Get_Milli_Seconds>
    bool error = false;
   b7b3c:	f04f 0800 	mov.w	r8, #0
    unsigned int bufferPosition = 0;
   b7b40:	4646      	mov	r6, r8
    } while (client.connected() && !timeout && !error);
   b7b42:	f241 3b88 	movw	fp, #5000	; 0x1388
        while (client.available()) {
   b7b46:	4620      	mov	r0, r4
   b7b48:	f003 f800 	bl	bab4c <_ZN9TCPClient9availableEv>
   b7b4c:	b1e8      	cbz	r0, b7b8a <_ZN10HttpClient7requestER14http_request_tR15http_response_tP13http_header_tPKc+0x186>
            char c = client.read();
   b7b4e:	4620      	mov	r0, r4
   b7b50:	f002 fde6 	bl	ba720 <_ZN9TCPClient4readEv>
   b7b54:	4681      	mov	r9, r0
   b7b56:	f000 fdcd 	bl	b86f4 <HAL_Timer_Get_Milli_Seconds>
            if (bufferPosition < sizeof(buffer)-1) {
   b7b5a:	f242 73fe 	movw	r3, #10238	; 0x27fe
   b7b5e:	429e      	cmp	r6, r3
   b7b60:	9001      	str	r0, [sp, #4]
   b7b62:	d804      	bhi.n	b7b6e <_ZN10HttpClient7requestER14http_request_tR15http_response_tP13http_header_tPKc+0x16a>
                buffer[bufferPosition] = c;
   b7b64:	19a3      	adds	r3, r4, r6
            char c = client.read();
   b7b66:	f883 901c 	strb.w	r9, [r3, #28]
            bufferPosition++;
   b7b6a:	3601      	adds	r6, #1
        while (client.available()) {
   b7b6c:	e7eb      	b.n	b7b46 <_ZN10HttpClient7requestER14http_request_tR15http_response_tP13http_header_tPKc+0x142>
            } else if ((bufferPosition == sizeof(buffer)-1)) {
   b7b6e:	f242 73ff 	movw	r3, #10239	; 0x27ff
   b7b72:	429e      	cmp	r6, r3
   b7b74:	d1f9      	bne.n	b7b6a <_ZN10HttpClient7requestER14http_request_tR15http_response_tP13http_header_tPKc+0x166>
                buffer[bufferPosition] = '\0'; // Null-terminate buffer
   b7b76:	f504 5300 	add.w	r3, r4, #8192	; 0x2000
   b7b7a:	2200      	movs	r2, #0
   b7b7c:	f883 281b 	strb.w	r2, [r3, #2075]	; 0x81b
                client.stop();
   b7b80:	4620      	mov	r0, r4
   b7b82:	f003 f83d 	bl	bac00 <_ZN9TCPClient4stopEv>
                error = true;
   b7b86:	46a8      	mov	r8, r5
   b7b88:	e7ef      	b.n	b7b6a <_ZN10HttpClient7requestER14http_request_tR15http_response_tP13http_header_tPKc+0x166>
        buffer[bufferPosition] = '\0'; // Null-terminate buffer
   b7b8a:	19a3      	adds	r3, r4, r6
   b7b8c:	7718      	strb	r0, [r3, #28]
   b7b8e:	f000 fdb1 	bl	b86f4 <HAL_Timer_Get_Milli_Seconds>
        timeout = millis() - lastRead > TIMEOUT;
   b7b92:	9b01      	ldr	r3, [sp, #4]
   b7b94:	eba0 0903 	sub.w	r9, r0, r3
        if (!error && !timeout) {
   b7b98:	f1b8 0f00 	cmp.w	r8, #0
   b7b9c:	d104      	bne.n	b7ba8 <_ZN10HttpClient7requestER14http_request_tR15http_response_tP13http_header_tPKc+0x1a4>
   b7b9e:	45d9      	cmp	r9, fp
   b7ba0:	d802      	bhi.n	b7ba8 <_ZN10HttpClient7requestER14http_request_tR15http_response_tP13http_header_tPKc+0x1a4>
            delay(200);
   b7ba2:	20c8      	movs	r0, #200	; 0xc8
   b7ba4:	f000 ffca 	bl	b8b3c <delay>
    } while (client.connected() && !timeout && !error);
   b7ba8:	4620      	mov	r0, r4
   b7baa:	f002 fef1 	bl	ba990 <_ZN9TCPClient9connectedEv>
   b7bae:	b120      	cbz	r0, b7bba <_ZN10HttpClient7requestER14http_request_tR15http_response_tP13http_header_tPKc+0x1b6>
   b7bb0:	45d9      	cmp	r9, fp
   b7bb2:	d802      	bhi.n	b7bba <_ZN10HttpClient7requestER14http_request_tR15http_response_tP13http_header_tPKc+0x1b6>
   b7bb4:	f1b8 0f00 	cmp.w	r8, #0
   b7bb8:	d0c5      	beq.n	b7b46 <_ZN10HttpClient7requestER14http_request_tR15http_response_tP13http_header_tPKc+0x142>
    client.stop();
   b7bba:	4620      	mov	r0, r4
   b7bbc:	f003 f820 	bl	bac00 <_ZN9TCPClient4stopEv>
    String raw_response(buffer);
   b7bc0:	4651      	mov	r1, sl
   b7bc2:	a802      	add	r0, sp, #8
   b7bc4:	f002 fc53 	bl	ba46e <_ZN6StringC1EPK19__FlashStringHelper>
    String statusCode = raw_response.substring(9,12);
   b7bc8:	230c      	movs	r3, #12
   b7bca:	2209      	movs	r2, #9
   b7bcc:	a902      	add	r1, sp, #8
   b7bce:	a806      	add	r0, sp, #24
   b7bd0:	f002 fd4a 	bl	ba668 <_ZNK6String9substringEjj>
    int bodyPos = raw_response.indexOf("\r\n\r\n");
   b7bd4:	491e      	ldr	r1, [pc, #120]	; (b7c50 <_ZN10HttpClient7requestER14http_request_tR15http_response_tP13http_header_tPKc+0x24c>)
   b7bd6:	a80a      	add	r0, sp, #40	; 0x28
   b7bd8:	f002 fc49 	bl	ba46e <_ZN6StringC1EPK19__FlashStringHelper>
   b7bdc:	a90a      	add	r1, sp, #40	; 0x28
   b7bde:	a802      	add	r0, sp, #8
   b7be0:	f002 fd3e 	bl	ba660 <_ZNK6String7indexOfERKS_>
   b7be4:	4604      	mov	r4, r0
   b7be6:	a80a      	add	r0, sp, #40	; 0x28
   b7be8:	f002 fbf6 	bl	ba3d8 <_ZN6StringD1Ev>
    if (bodyPos == -1) {
   b7bec:	1c63      	adds	r3, r4, #1
   b7bee:	d108      	bne.n	b7c02 <_ZN10HttpClient7requestER14http_request_tR15http_response_tP13http_header_tPKc+0x1fe>
    String statusCode = raw_response.substring(9,12);
   b7bf0:	a806      	add	r0, sp, #24
   b7bf2:	f002 fbf1 	bl	ba3d8 <_ZN6StringD1Ev>
    String raw_response(buffer);
   b7bf6:	a802      	add	r0, sp, #8
   b7bf8:	f002 fbee 	bl	ba3d8 <_ZN6StringD1Ev>
}
   b7bfc:	b011      	add	sp, #68	; 0x44
   b7bfe:	e8bd 8ff0 	ldmia.w	sp!, {r4, r5, r6, r7, r8, r9, sl, fp, pc}
    aResponse.body = "";
   b7c02:	1d3d      	adds	r5, r7, #4
   b7c04:	4913      	ldr	r1, [pc, #76]	; (b7c54 <_ZN10HttpClient7requestER14http_request_tR15http_response_tP13http_header_tPKc+0x250>)
   b7c06:	4628      	mov	r0, r5
   b7c08:	f002 fc79 	bl	ba4fe <_ZN6StringaSEPKc>
    aResponse.body += raw_response.substring(bodyPos+4);
   b7c0c:	1d22      	adds	r2, r4, #4
   b7c0e:	a902      	add	r1, sp, #8
   b7c10:	a80a      	add	r0, sp, #40	; 0x28
   b7c12:	f002 fd49 	bl	ba6a8 <_ZNK6String9substringEj>
	String & operator += (const String &rhs)	{concat(rhs); return (*this);}
   b7c16:	a90a      	add	r1, sp, #40	; 0x28
   b7c18:	4628      	mov	r0, r5
   b7c1a:	f002 fcac 	bl	ba576 <_ZN6String6concatERKS_>
   b7c1e:	a80a      	add	r0, sp, #40	; 0x28
   b7c20:	f002 fbda 	bl	ba3d8 <_ZN6StringD1Ev>
    aResponse.status = atoi(statusCode.c_str());
   b7c24:	9806      	ldr	r0, [sp, #24]
   b7c26:	f004 fa8b 	bl	bc140 <atoi>
   b7c2a:	6038      	str	r0, [r7, #0]
   b7c2c:	e7e0      	b.n	b7bf0 <_ZN10HttpClient7requestER14http_request_tR15http_response_tP13http_header_tPKc+0x1ec>
   b7c2e:	bf00      	nop
   b7c30:	000bea80 	.word	0x000bea80
   b7c34:	000be5c0 	.word	0x000be5c0
   b7c38:	000be7c4 	.word	0x000be7c4
   b7c3c:	000be7d6 	.word	0x000be7d6
   b7c40:	000be7d0 	.word	0x000be7d0
   b7c44:	000be7e1 	.word	0x000be7e1
   b7c48:	000be7e6 	.word	0x000be7e6
   b7c4c:	000be7f5 	.word	0x000be7f5
   b7c50:	000be7fa 	.word	0x000be7fa
   b7c54:	000be7fe 	.word	0x000be7fe

000b7c58 <_ZN13JsonReferenceD1Ev>:
JsonReference::JsonReference(const JsonParser *parser) : parser(parser), token(0) {

}

JsonReference::~JsonReference() {
}
   b7c58:	4770      	bx	lr

000b7c5a <_ZN13JsonReferenceD0Ev>:
JsonReference::~JsonReference() {
   b7c5a:	b510      	push	{r4, lr}
}
   b7c5c:	210c      	movs	r1, #12
JsonReference::~JsonReference() {
   b7c5e:	4604      	mov	r4, r0
}
   b7c60:	f7fc fa1f 	bl	b40a2 <_ZdlPvj>
   b7c64:	4620      	mov	r0, r4
   b7c66:	bd10      	pop	{r4, pc}

000b7c68 <_ZN10JsonBufferD1Ev>:
JsonBuffer::~JsonBuffer() {
   b7c68:	b510      	push	{r4, lr}
   b7c6a:	4b05      	ldr	r3, [pc, #20]	; (b7c80 <_ZN10JsonBufferD1Ev+0x18>)
   b7c6c:	6003      	str	r3, [r0, #0]
	if (!staticBuffers && buffer) {
   b7c6e:	7c03      	ldrb	r3, [r0, #16]
JsonBuffer::~JsonBuffer() {
   b7c70:	4604      	mov	r4, r0
	if (!staticBuffers && buffer) {
   b7c72:	b91b      	cbnz	r3, b7c7c <_ZN10JsonBufferD1Ev+0x14>
   b7c74:	6840      	ldr	r0, [r0, #4]
   b7c76:	b108      	cbz	r0, b7c7c <_ZN10JsonBufferD1Ev+0x14>
		free(buffer);
   b7c78:	f000 ff18 	bl	b8aac <free>
}
   b7c7c:	4620      	mov	r0, r4
   b7c7e:	bd10      	pop	{r4, pc}
   b7c80:	000be80c 	.word	0x000be80c

000b7c84 <_ZN10JsonBufferD0Ev>:
JsonBuffer::~JsonBuffer() {
   b7c84:	b510      	push	{r4, lr}
   b7c86:	4604      	mov	r4, r0
}
   b7c88:	f7ff ffee 	bl	b7c68 <_ZN10JsonBufferD1Ev>
   b7c8c:	4620      	mov	r0, r4
   b7c8e:	2114      	movs	r1, #20
   b7c90:	f7fc fa07 	bl	b40a2 <_ZdlPvj>
   b7c94:	4620      	mov	r0, r4
   b7c96:	bd10      	pop	{r4, pc}

000b7c98 <_ZN10JsonParserD1Ev>:
JsonParser::~JsonParser() {
   b7c98:	b510      	push	{r4, lr}
   b7c9a:	4b07      	ldr	r3, [pc, #28]	; (b7cb8 <_ZN10JsonParserD1Ev+0x20>)
   b7c9c:	6003      	str	r3, [r0, #0]
	if (!staticBuffers && tokens) {
   b7c9e:	7c03      	ldrb	r3, [r0, #16]
JsonParser::~JsonParser() {
   b7ca0:	4604      	mov	r4, r0
	if (!staticBuffers && tokens) {
   b7ca2:	b91b      	cbnz	r3, b7cac <_ZN10JsonParserD1Ev+0x14>
   b7ca4:	6940      	ldr	r0, [r0, #20]
   b7ca6:	b108      	cbz	r0, b7cac <_ZN10JsonParserD1Ev+0x14>
		free(tokens);
   b7ca8:	f000 ff00 	bl	b8aac <free>
JsonParser::~JsonParser() {
   b7cac:	4620      	mov	r0, r4
   b7cae:	f7ff ffdb 	bl	b7c68 <_ZN10JsonBufferD1Ev>
}
   b7cb2:	4620      	mov	r0, r4
   b7cb4:	bd10      	pop	{r4, pc}
   b7cb6:	bf00      	nop
   b7cb8:	000be81c 	.word	0x000be81c

000b7cbc <_ZN10JsonParserD0Ev>:
JsonParser::~JsonParser() {
   b7cbc:	b510      	push	{r4, lr}
   b7cbe:	4604      	mov	r4, r0
}
   b7cc0:	f7ff ffea 	bl	b7c98 <_ZN10JsonParserD1Ev>
   b7cc4:	4620      	mov	r0, r4
   b7cc6:	212c      	movs	r1, #44	; 0x2c
   b7cc8:	f7fc f9eb 	bl	b40a2 <_ZdlPvj>
   b7ccc:	4620      	mov	r0, r4
   b7cce:	bd10      	pop	{r4, pc}

000b7cd0 <_ZN10JsonBuffer8allocateEj>:
bool JsonBuffer::allocate(size_t len) {
   b7cd0:	b538      	push	{r3, r4, r5, lr}
	if (!staticBuffers) {
   b7cd2:	7c03      	ldrb	r3, [r0, #16]
bool JsonBuffer::allocate(size_t len) {
   b7cd4:	4604      	mov	r4, r0
   b7cd6:	460d      	mov	r5, r1
	if (!staticBuffers) {
   b7cd8:	b10b      	cbz	r3, b7cde <_ZN10JsonBuffer8allocateEj+0xe>
		return false;
   b7cda:	2000      	movs	r0, #0
}
   b7cdc:	bd38      	pop	{r3, r4, r5, pc}
		if (buffer) {
   b7cde:	6840      	ldr	r0, [r0, #4]
   b7ce0:	b138      	cbz	r0, b7cf2 <_ZN10JsonBuffer8allocateEj+0x22>
			newBuffer = (char *) realloc(buffer, len);
   b7ce2:	f000 feeb 	bl	b8abc <realloc>
		if (newBuffer) {
   b7ce6:	2800      	cmp	r0, #0
   b7ce8:	d0f7      	beq.n	b7cda <_ZN10JsonBuffer8allocateEj+0xa>
			bufferLen = len;
   b7cea:	e9c4 0501 	strd	r0, r5, [r4, #4]
			return true;
   b7cee:	2001      	movs	r0, #1
   b7cf0:	e7f4      	b.n	b7cdc <_ZN10JsonBuffer8allocateEj+0xc>
			newBuffer = (char *) malloc(len);
   b7cf2:	4608      	mov	r0, r1
   b7cf4:	f000 fed2 	bl	b8a9c <malloc>
   b7cf8:	e7f5      	b.n	b7ce6 <_ZN10JsonBuffer8allocateEj+0x16>

000b7cfa <_ZN10JsonBuffer7addDataEPKcj>:
bool JsonBuffer::addData(const char *data, size_t dataLen) {
   b7cfa:	b570      	push	{r4, r5, r6, lr}
	if (!buffer || (offset + dataLen) > bufferLen) {
   b7cfc:	68c3      	ldr	r3, [r0, #12]
bool JsonBuffer::addData(const char *data, size_t dataLen) {
   b7cfe:	460e      	mov	r6, r1
   b7d00:	4615      	mov	r5, r2
	if (!buffer || (offset + dataLen) > bufferLen) {
   b7d02:	18d1      	adds	r1, r2, r3
   b7d04:	6842      	ldr	r2, [r0, #4]
bool JsonBuffer::addData(const char *data, size_t dataLen) {
   b7d06:	4604      	mov	r4, r0
	if (!buffer || (offset + dataLen) > bufferLen) {
   b7d08:	b172      	cbz	r2, b7d28 <_ZN10JsonBuffer7addDataEPKcj+0x2e>
   b7d0a:	6882      	ldr	r2, [r0, #8]
   b7d0c:	428a      	cmp	r2, r1
   b7d0e:	d30b      	bcc.n	b7d28 <_ZN10JsonBuffer7addDataEPKcj+0x2e>
	memcpy(&buffer[offset], data, dataLen);
   b7d10:	6860      	ldr	r0, [r4, #4]
   b7d12:	68e3      	ldr	r3, [r4, #12]
   b7d14:	462a      	mov	r2, r5
   b7d16:	4631      	mov	r1, r6
   b7d18:	4418      	add	r0, r3
   b7d1a:	f004 fa25 	bl	bc168 <memcpy>
	offset += dataLen;
   b7d1e:	68e2      	ldr	r2, [r4, #12]
   b7d20:	442a      	add	r2, r5
   b7d22:	60e2      	str	r2, [r4, #12]
	return true;
   b7d24:	2001      	movs	r0, #1
}
   b7d26:	bd70      	pop	{r4, r5, r6, pc}
		if (!allocate(offset + dataLen)) {
   b7d28:	4620      	mov	r0, r4
   b7d2a:	f7ff ffd1 	bl	b7cd0 <_ZN10JsonBuffer8allocateEj>
   b7d2e:	2800      	cmp	r0, #0
   b7d30:	d1ee      	bne.n	b7d10 <_ZN10JsonBuffer7addDataEPKcj+0x16>
   b7d32:	e7f8      	b.n	b7d26 <_ZN10JsonBuffer7addDataEPKcj+0x2c>

000b7d34 <_ZN10JsonBuffer5clearEv>:
	if (buffer && bufferLen) {
   b7d34:	6843      	ldr	r3, [r0, #4]
	offset = 0;
   b7d36:	2100      	movs	r1, #0
   b7d38:	60c1      	str	r1, [r0, #12]
	if (buffer && bufferLen) {
   b7d3a:	b123      	cbz	r3, b7d46 <_ZN10JsonBuffer5clearEv+0x12>
   b7d3c:	6882      	ldr	r2, [r0, #8]
   b7d3e:	b112      	cbz	r2, b7d46 <_ZN10JsonBuffer5clearEv+0x12>
		memset(buffer, 0, bufferLen);
   b7d40:	4618      	mov	r0, r3
   b7d42:	f004 ba39 	b.w	bc1b8 <memset>
}
   b7d46:	4770      	bx	lr

000b7d48 <_ZN10JsonParserC1EPcjPN21JsonParserGeneratorRK9jsmntok_tEj>:
JsonParser::JsonParser(char *buffer, size_t bufferLen, JsonParserGeneratorRK::jsmntok_t *tokens, size_t maxTokens) :
   b7d48:	b510      	push	{r4, lr}
JsonBuffer::JsonBuffer(char *buffer, size_t bufferLen)  : buffer(buffer), bufferLen(bufferLen), offset(0), staticBuffers(true) {
   b7d4a:	e9c0 1201 	strd	r1, r2, [r0, #4]
   b7d4e:	2200      	movs	r2, #0
   b7d50:	60c2      	str	r2, [r0, #12]
   b7d52:	2201      	movs	r2, #1
   b7d54:	7402      	strb	r2, [r0, #16]
		JsonBuffer(buffer, bufferLen), tokens(tokens), maxTokens(maxTokens) {
   b7d56:	6143      	str	r3, [r0, #20]
   b7d58:	4a02      	ldr	r2, [pc, #8]	; (b7d64 <_ZN10JsonParserC1EPcjPN21JsonParserGeneratorRK9jsmntok_tEj+0x1c>)
   b7d5a:	9b02      	ldr	r3, [sp, #8]
   b7d5c:	6002      	str	r2, [r0, #0]
   b7d5e:	61c3      	str	r3, [r0, #28]
}
   b7d60:	bd10      	pop	{r4, pc}
   b7d62:	bf00      	nop
   b7d64:	000be81c 	.word	0x000be81c

000b7d68 <_ZNK10JsonParser12getReferenceEv>:
	if (tokens < tokensEnd) {
   b7d68:	e9d1 2305 	ldrd	r2, r3, [r1, #20]
   b7d6c:	429a      	cmp	r2, r3
   b7d6e:	4b04      	ldr	r3, [pc, #16]	; (b7d80 <_ZNK10JsonParser12getReferenceEv+0x18>)

JsonReference::JsonReference(const JsonParser *parser, const JsonParserGeneratorRK::jsmntok_t *token) : parser(parser), token(token) {
   b7d70:	bf38      	it	cc
   b7d72:	6082      	strcc	r2, [r0, #8]
   b7d74:	e9c0 3100 	strd	r3, r1, [r0]
JsonReference::JsonReference(const JsonParser *parser) : parser(parser), token(0) {
   b7d78:	bf24      	itt	cs
   b7d7a:	2300      	movcs	r3, #0
   b7d7c:	6083      	strcs	r3, [r0, #8]
}
   b7d7e:	4770      	bx	lr
   b7d80:	000be82c 	.word	0x000be82c

000b7d84 <_ZNK10JsonParser10skipObjectEPKN21JsonParserGeneratorRK9jsmntok_tERS3_>:
bool JsonParser::skipObject(const JsonParserGeneratorRK::jsmntok_t *container, const JsonParserGeneratorRK::jsmntok_t *&obj) const {
   b7d84:	b570      	push	{r4, r5, r6, lr}
	int curObjectEnd = obj->end;
   b7d86:	6813      	ldr	r3, [r2, #0]
   b7d88:	689d      	ldr	r5, [r3, #8]
	while(++obj < tokensEnd && obj->end < container->end && obj->end <= curObjectEnd) {
   b7d8a:	6813      	ldr	r3, [r2, #0]
   b7d8c:	f103 0410 	add.w	r4, r3, #16
   b7d90:	6014      	str	r4, [r2, #0]
   b7d92:	6986      	ldr	r6, [r0, #24]
   b7d94:	42b4      	cmp	r4, r6
   b7d96:	d20a      	bcs.n	b7dae <_ZNK10JsonParser10skipObjectEPKN21JsonParserGeneratorRK9jsmntok_tERS3_+0x2a>
   b7d98:	699b      	ldr	r3, [r3, #24]
   b7d9a:	688c      	ldr	r4, [r1, #8]
   b7d9c:	42a3      	cmp	r3, r4
   b7d9e:	da01      	bge.n	b7da4 <_ZNK10JsonParser10skipObjectEPKN21JsonParserGeneratorRK9jsmntok_tERS3_+0x20>
   b7da0:	42ab      	cmp	r3, r5
   b7da2:	ddf2      	ble.n	b7d8a <_ZNK10JsonParser10skipObjectEPKN21JsonParserGeneratorRK9jsmntok_tERS3_+0x6>
	if (obj >= tokensEnd || obj->end > container->end) {
   b7da4:	42a3      	cmp	r3, r4
   b7da6:	bfcc      	ite	gt
   b7da8:	2000      	movgt	r0, #0
   b7daa:	2001      	movle	r0, #1
   b7dac:	e000      	b.n	b7db0 <_ZNK10JsonParser10skipObjectEPKN21JsonParserGeneratorRK9jsmntok_tERS3_+0x2c>
		return false;
   b7dae:	2000      	movs	r0, #0
}
   b7db0:	bd70      	pop	{r4, r5, r6, pc}

000b7db2 <_ZNK10JsonParser23getKeyValueTokenByIndexEPKN21JsonParserGeneratorRK9jsmntok_tERS3_S4_j>:
bool JsonParser::getKeyValueTokenByIndex(const JsonParserGeneratorRK::jsmntok_t *container, const JsonParserGeneratorRK::jsmntok_t *&key, const JsonParserGeneratorRK::jsmntok_t *&value, size_t desiredIndex) const {
   b7db2:	e92d 41f3 	stmdb	sp!, {r0, r1, r4, r5, r6, r7, r8, lr}
   b7db6:	9d08      	ldr	r5, [sp, #32]
   b7db8:	4698      	mov	r8, r3
	const JsonParserGeneratorRK::jsmntok_t *token = container + 1;
   b7dba:	f101 0310 	add.w	r3, r1, #16
bool JsonParser::getKeyValueTokenByIndex(const JsonParserGeneratorRK::jsmntok_t *container, const JsonParserGeneratorRK::jsmntok_t *&key, const JsonParserGeneratorRK::jsmntok_t *&value, size_t desiredIndex) const {
   b7dbe:	4604      	mov	r4, r0
   b7dc0:	4617      	mov	r7, r2
	const JsonParserGeneratorRK::jsmntok_t *token = container + 1;
   b7dc2:	9301      	str	r3, [sp, #4]
	size_t index = 0;
   b7dc4:	2600      	movs	r6, #0
	while(token < tokensEnd && token->end < container->end) {
   b7dc6:	9801      	ldr	r0, [sp, #4]
   b7dc8:	69a3      	ldr	r3, [r4, #24]
   b7dca:	4283      	cmp	r3, r0
   b7dcc:	d91a      	bls.n	b7e04 <_ZNK10JsonParser23getKeyValueTokenByIndexEPKN21JsonParserGeneratorRK9jsmntok_tERS3_S4_j+0x52>
   b7dce:	6882      	ldr	r2, [r0, #8]
   b7dd0:	688b      	ldr	r3, [r1, #8]
   b7dd2:	429a      	cmp	r2, r3
   b7dd4:	da16      	bge.n	b7e04 <_ZNK10JsonParser23getKeyValueTokenByIndexEPKN21JsonParserGeneratorRK9jsmntok_tERS3_S4_j+0x52>
		if (desiredIndex == index) {
   b7dd6:	42ae      	cmp	r6, r5
   b7dd8:	d10b      	bne.n	b7df2 <_ZNK10JsonParser23getKeyValueTokenByIndexEPKN21JsonParserGeneratorRK9jsmntok_tERS3_S4_j+0x40>
			key = token;
   b7dda:	6038      	str	r0, [r7, #0]
			if (skipObject(container, token)) {
   b7ddc:	aa01      	add	r2, sp, #4
   b7dde:	4620      	mov	r0, r4
   b7de0:	f7ff ffd0 	bl	b7d84 <_ZNK10JsonParser10skipObjectEPKN21JsonParserGeneratorRK9jsmntok_tERS3_>
   b7de4:	b128      	cbz	r0, b7df2 <_ZNK10JsonParser23getKeyValueTokenByIndexEPKN21JsonParserGeneratorRK9jsmntok_tERS3_S4_j+0x40>
				value = token;
   b7de6:	9b01      	ldr	r3, [sp, #4]
   b7de8:	f8c8 3000 	str.w	r3, [r8]
}
   b7dec:	b002      	add	sp, #8
   b7dee:	e8bd 81f0 	ldmia.w	sp!, {r4, r5, r6, r7, r8, pc}
		skipObject(container, token);
   b7df2:	aa01      	add	r2, sp, #4
   b7df4:	4620      	mov	r0, r4
   b7df6:	f7ff ffc5 	bl	b7d84 <_ZNK10JsonParser10skipObjectEPKN21JsonParserGeneratorRK9jsmntok_tERS3_>
		skipObject(container, token);
   b7dfa:	4620      	mov	r0, r4
		index++;
   b7dfc:	3601      	adds	r6, #1
		skipObject(container, token);
   b7dfe:	f7ff ffc1 	bl	b7d84 <_ZNK10JsonParser10skipObjectEPKN21JsonParserGeneratorRK9jsmntok_tERS3_>
	while(token < tokensEnd && token->end < container->end) {
   b7e02:	e7e0      	b.n	b7dc6 <_ZNK10JsonParser23getKeyValueTokenByIndexEPKN21JsonParserGeneratorRK9jsmntok_tERS3_S4_j+0x14>
	return false;
   b7e04:	2000      	movs	r0, #0
   b7e06:	e7f1      	b.n	b7dec <_ZNK10JsonParser23getKeyValueTokenByIndexEPKN21JsonParserGeneratorRK9jsmntok_tERS3_S4_j+0x3a>

000b7e08 <_ZNK10JsonParser20getValueTokenByIndexEPKN21JsonParserGeneratorRK9jsmntok_tEjRS3_>:
bool JsonParser::getValueTokenByIndex(const JsonParserGeneratorRK::jsmntok_t *container, size_t desiredIndex, const JsonParserGeneratorRK::jsmntok_t *&value) const {
   b7e08:	b5f7      	push	{r0, r1, r2, r4, r5, r6, r7, lr}
   b7e0a:	461f      	mov	r7, r3
	const JsonParserGeneratorRK::jsmntok_t *token = container + 1;
   b7e0c:	f101 0310 	add.w	r3, r1, #16
bool JsonParser::getValueTokenByIndex(const JsonParserGeneratorRK::jsmntok_t *container, size_t desiredIndex, const JsonParserGeneratorRK::jsmntok_t *&value) const {
   b7e10:	4604      	mov	r4, r0
   b7e12:	4616      	mov	r6, r2
	const JsonParserGeneratorRK::jsmntok_t *token = container + 1;
   b7e14:	9301      	str	r3, [sp, #4]
	size_t index = 0;
   b7e16:	2500      	movs	r5, #0
	while(token < tokensEnd && token->end < container->end) {
   b7e18:	9b01      	ldr	r3, [sp, #4]
   b7e1a:	69a2      	ldr	r2, [r4, #24]
   b7e1c:	429a      	cmp	r2, r3
   b7e1e:	d90f      	bls.n	b7e40 <_ZNK10JsonParser20getValueTokenByIndexEPKN21JsonParserGeneratorRK9jsmntok_tEjRS3_+0x38>
   b7e20:	6898      	ldr	r0, [r3, #8]
   b7e22:	688a      	ldr	r2, [r1, #8]
   b7e24:	4290      	cmp	r0, r2
   b7e26:	da0b      	bge.n	b7e40 <_ZNK10JsonParser20getValueTokenByIndexEPKN21JsonParserGeneratorRK9jsmntok_tEjRS3_+0x38>
		if (desiredIndex == index) {
   b7e28:	42b5      	cmp	r5, r6
   b7e2a:	d103      	bne.n	b7e34 <_ZNK10JsonParser20getValueTokenByIndexEPKN21JsonParserGeneratorRK9jsmntok_tEjRS3_+0x2c>
			value = token;
   b7e2c:	603b      	str	r3, [r7, #0]
			return true;
   b7e2e:	2001      	movs	r0, #1
}
   b7e30:	b003      	add	sp, #12
   b7e32:	bdf0      	pop	{r4, r5, r6, r7, pc}
		skipObject(container, token);
   b7e34:	aa01      	add	r2, sp, #4
   b7e36:	4620      	mov	r0, r4
		index++;
   b7e38:	3501      	adds	r5, #1
		skipObject(container, token);
   b7e3a:	f7ff ffa3 	bl	b7d84 <_ZNK10JsonParser10skipObjectEPKN21JsonParserGeneratorRK9jsmntok_tERS3_>
	while(token < tokensEnd && token->end < container->end) {
   b7e3e:	e7eb      	b.n	b7e18 <_ZNK10JsonParser20getValueTokenByIndexEPKN21JsonParserGeneratorRK9jsmntok_tEjRS3_+0x10>
	return false;
   b7e40:	2000      	movs	r0, #0
   b7e42:	e7f5      	b.n	b7e30 <_ZNK10JsonParser20getValueTokenByIndexEPKN21JsonParserGeneratorRK9jsmntok_tEjRS3_+0x28>

000b7e44 <_ZNK10JsonParser14copyTokenValueEPKN21JsonParserGeneratorRK9jsmntok_tEPcj>:
void JsonParser::copyTokenValue(const JsonParserGeneratorRK::jsmntok_t *token, char *dst, size_t dstLen) const {
   b7e44:	b5f0      	push	{r4, r5, r6, r7, lr}
	for(ii = 0; ii < (token->end - token->start) && ii < ((int)dstLen - 1); ii++) {
   b7e46:	3b01      	subs	r3, #1
   b7e48:	2400      	movs	r4, #0
   b7e4a:	e9d1 7601 	ldrd	r7, r6, [r1, #4]
   b7e4e:	1bf6      	subs	r6, r6, r7
   b7e50:	42a6      	cmp	r6, r4
   b7e52:	dd08      	ble.n	b7e66 <_ZNK10JsonParser14copyTokenValueEPKN21JsonParserGeneratorRK9jsmntok_tEPcj+0x22>
   b7e54:	42a3      	cmp	r3, r4
   b7e56:	dd06      	ble.n	b7e66 <_ZNK10JsonParser14copyTokenValueEPKN21JsonParserGeneratorRK9jsmntok_tEPcj+0x22>
		dst[ii] = buffer[token->start + ii];
   b7e58:	6845      	ldr	r5, [r0, #4]
   b7e5a:	443d      	add	r5, r7
   b7e5c:	5d2d      	ldrb	r5, [r5, r4]
   b7e5e:	f802 5b01 	strb.w	r5, [r2], #1
	for(ii = 0; ii < (token->end - token->start) && ii < ((int)dstLen - 1); ii++) {
   b7e62:	3401      	adds	r4, #1
   b7e64:	e7f1      	b.n	b7e4a <_ZNK10JsonParser14copyTokenValueEPKN21JsonParserGeneratorRK9jsmntok_tEPcj+0x6>
	dst[ii] = 0;
   b7e66:	2300      	movs	r3, #0
   b7e68:	7013      	strb	r3, [r2, #0]
}
   b7e6a:	bdf0      	pop	{r4, r5, r6, r7, pc}

000b7e6c <_ZNK10JsonParser13getTokenValueEPKN21JsonParserGeneratorRK9jsmntok_tERi>:
bool JsonParser::getTokenValue(const JsonParserGeneratorRK::jsmntok_t *token, int &result) const {
   b7e6c:	b51f      	push	{r0, r1, r2, r3, r4, lr}
   b7e6e:	4614      	mov	r4, r2
	copyTokenValue(token, tmp, sizeof(tmp));
   b7e70:	2310      	movs	r3, #16
   b7e72:	466a      	mov	r2, sp
   b7e74:	f7ff ffe6 	bl	b7e44 <_ZNK10JsonParser14copyTokenValueEPKN21JsonParserGeneratorRK9jsmntok_tEPcj>
	if (sscanf(tmp, "%d", &result) == 1) {
   b7e78:	4904      	ldr	r1, [pc, #16]	; (b7e8c <_ZNK10JsonParser13getTokenValueEPKN21JsonParserGeneratorRK9jsmntok_tERi+0x20>)
   b7e7a:	4622      	mov	r2, r4
   b7e7c:	4668      	mov	r0, sp
   b7e7e:	f000 fe25 	bl	b8acc <sscanf>
}
   b7e82:	1e43      	subs	r3, r0, #1
   b7e84:	4258      	negs	r0, r3
   b7e86:	4158      	adcs	r0, r3
   b7e88:	b004      	add	sp, #16
   b7e8a:	bd10      	pop	{r4, pc}
   b7e8c:	000beae0 	.word	0x000beae0

000b7e90 <_ZNK10JsonParser13getTokenValueEPKN21JsonParserGeneratorRK9jsmntok_tERf>:
bool JsonParser::getTokenValue(const JsonParserGeneratorRK::jsmntok_t *token, float &result) const {
   b7e90:	b51f      	push	{r0, r1, r2, r3, r4, lr}
   b7e92:	4614      	mov	r4, r2
	copyTokenValue(token, tmp, sizeof(tmp));
   b7e94:	2310      	movs	r3, #16
   b7e96:	466a      	mov	r2, sp
   b7e98:	f7ff ffd4 	bl	b7e44 <_ZNK10JsonParser14copyTokenValueEPKN21JsonParserGeneratorRK9jsmntok_tEPcj>
	result = strtof(tmp, 0);
   b7e9c:	4668      	mov	r0, sp
   b7e9e:	2100      	movs	r1, #0
   b7ea0:	f005 f834 	bl	bcf0c <strtof>
}
   b7ea4:	2001      	movs	r0, #1
	result = strtof(tmp, 0);
   b7ea6:	ed84 0a00 	vstr	s0, [r4]
}
   b7eaa:	b004      	add	sp, #16
   b7eac:	bd10      	pop	{r4, pc}
	...

000b7eb0 <_ZNK13JsonReference5indexEj>:
	else {
		return JsonReference(parser);
	}
}

JsonReference JsonReference::index(size_t index) const {
   b7eb0:	b573      	push	{r0, r1, r4, r5, r6, lr}
   b7eb2:	460d      	mov	r5, r1
	const JsonParserGeneratorRK::jsmntok_t *newToken;

	if (token && parser->getValueTokenByIndex(token, index, newToken)) {
   b7eb4:	6889      	ldr	r1, [r1, #8]
   b7eb6:	4e0a      	ldr	r6, [pc, #40]	; (b7ee0 <_ZNK13JsonReference5indexEj+0x30>)
JsonReference JsonReference::index(size_t index) const {
   b7eb8:	4604      	mov	r4, r0
	if (token && parser->getValueTokenByIndex(token, index, newToken)) {
   b7eba:	b161      	cbz	r1, b7ed6 <_ZNK13JsonReference5indexEj+0x26>
   b7ebc:	6868      	ldr	r0, [r5, #4]
   b7ebe:	ab01      	add	r3, sp, #4
   b7ec0:	f7ff ffa2 	bl	b7e08 <_ZNK10JsonParser20getValueTokenByIndexEPKN21JsonParserGeneratorRK9jsmntok_tEjRS3_>
   b7ec4:	b138      	cbz	r0, b7ed6 <_ZNK13JsonReference5indexEj+0x26>
		return JsonReference(parser, newToken);
   b7ec6:	686b      	ldr	r3, [r5, #4]
JsonReference::JsonReference(const JsonParser *parser, const JsonParserGeneratorRK::jsmntok_t *token) : parser(parser), token(token) {
   b7ec8:	e9c4 6300 	strd	r6, r3, [r4]
   b7ecc:	9b01      	ldr	r3, [sp, #4]
JsonReference::JsonReference(const JsonParser *parser) : parser(parser), token(0) {
   b7ece:	60a3      	str	r3, [r4, #8]
	}
	else {
		return JsonReference(parser);
	}
}
   b7ed0:	4620      	mov	r0, r4
   b7ed2:	b002      	add	sp, #8
   b7ed4:	bd70      	pop	{r4, r5, r6, pc}
		return JsonReference(parser);
   b7ed6:	686b      	ldr	r3, [r5, #4]
JsonReference::JsonReference(const JsonParser *parser) : parser(parser), token(0) {
   b7ed8:	e9c4 6300 	strd	r6, r3, [r4]
   b7edc:	2300      	movs	r3, #0
   b7ede:	e7f6      	b.n	b7ece <_ZNK13JsonReference5indexEj+0x1e>
   b7ee0:	000be82c 	.word	0x000be82c

000b7ee4 <_ZNK13JsonReference8valueIntEi>:
bool JsonReference::valueBool(bool result) const {
	(void) value(result);
	return result;
}

int JsonReference::valueInt(int result) const {
   b7ee4:	b507      	push	{r0, r1, r2, lr}
   b7ee6:	9101      	str	r1, [sp, #4]
	 * There are also type-specific versions like valueBool that return the value, instead of having to pass an object
	 * to hold the value, as in this call.
	 */
	template<class T>
	bool value(T &result) const {
		if (token && parser->getTokenValue(token, result)) {
   b7ee8:	6881      	ldr	r1, [r0, #8]
   b7eea:	b119      	cbz	r1, b7ef4 <_ZNK13JsonReference8valueIntEi+0x10>
   b7eec:	6840      	ldr	r0, [r0, #4]
   b7eee:	aa01      	add	r2, sp, #4
   b7ef0:	f7ff ffbc 	bl	b7e6c <_ZNK10JsonParser13getTokenValueEPKN21JsonParserGeneratorRK9jsmntok_tERi>
	(void) value(result);
	return result;
}
   b7ef4:	9801      	ldr	r0, [sp, #4]
   b7ef6:	b003      	add	sp, #12
   b7ef8:	f85d fb04 	ldr.w	pc, [sp], #4

000b7efc <_ZNK13JsonReference10valueFloatEf>:
unsigned long JsonReference::valueUnsignedLong(unsigned long result) const {
	(void) value(result);
	return result;
}

float JsonReference::valueFloat(float result) const {
   b7efc:	b507      	push	{r0, r1, r2, lr}
   b7efe:	6881      	ldr	r1, [r0, #8]
   b7f00:	ed8d 0a01 	vstr	s0, [sp, #4]
   b7f04:	b119      	cbz	r1, b7f0e <_ZNK13JsonReference10valueFloatEf+0x12>
   b7f06:	6840      	ldr	r0, [r0, #4]
   b7f08:	aa01      	add	r2, sp, #4
   b7f0a:	f7ff ffc1 	bl	b7e90 <_ZNK10JsonParser13getTokenValueEPKN21JsonParserGeneratorRK9jsmntok_tERf>
	(void) value(result);
	return result;
}
   b7f0e:	ed9d 0a01 	vldr	s0, [sp, #4]
   b7f12:	b003      	add	sp, #12
   b7f14:	f85d fb04 	ldr.w	pc, [sp], #4

000b7f18 <_ZN16JsonParserString6appendEc>:
	if (buf && bufLen) {
		memset(buf, 0, bufLen);
	}
}

void JsonParserString::append(char ch) {
   b7f18:	b510      	push	{r4, lr}
   b7f1a:	4604      	mov	r4, r0
	if (str) {
   b7f1c:	6800      	ldr	r0, [r0, #0]
void JsonParserString::append(char ch) {
   b7f1e:	460b      	mov	r3, r1
	if (str) {
   b7f20:	b128      	cbz	r0, b7f2e <_ZN16JsonParserString6appendEc+0x16>
		str->concat(ch);
   b7f22:	f002 fb2c 	bl	ba57e <_ZN6String6concatEc>
	}
	else {
		if (buf && length < (bufLen - 1)) {
			buf[length] = ch;
		}
		length++;
   b7f26:	68e3      	ldr	r3, [r4, #12]
   b7f28:	3301      	adds	r3, #1
   b7f2a:	60e3      	str	r3, [r4, #12]
	}
}
   b7f2c:	bd10      	pop	{r4, pc}
		if (buf && length < (bufLen - 1)) {
   b7f2e:	6860      	ldr	r0, [r4, #4]
   b7f30:	2800      	cmp	r0, #0
   b7f32:	d0f8      	beq.n	b7f26 <_ZN16JsonParserString6appendEc+0xe>
   b7f34:	e9d4 2102 	ldrd	r2, r1, [r4, #8]
   b7f38:	3a01      	subs	r2, #1
   b7f3a:	428a      	cmp	r2, r1
			buf[length] = ch;
   b7f3c:	bf88      	it	hi
   b7f3e:	5443      	strbhi	r3, [r0, r1]
   b7f40:	e7f1      	b.n	b7f26 <_ZN16JsonParserString6appendEc+0xe>

000b7f42 <_ZN10JsonParser10appendUtf8EtR16JsonParserString>:
void JsonParser::appendUtf8(uint16_t unicode, JsonParserString &str) {
   b7f42:	4603      	mov	r3, r0
	if (unicode <= 0x007f) {
   b7f44:	2b7f      	cmp	r3, #127	; 0x7f
void JsonParser::appendUtf8(uint16_t unicode, JsonParserString &str) {
   b7f46:	b537      	push	{r0, r1, r2, r4, r5, lr}
   b7f48:	4608      	mov	r0, r1
		str.append((char)unicode);
   b7f4a:	b2d9      	uxtb	r1, r3
	if (unicode <= 0x007f) {
   b7f4c:	d804      	bhi.n	b7f58 <_ZN10JsonParser10appendUtf8EtR16JsonParserString+0x16>
}
   b7f4e:	b003      	add	sp, #12
   b7f50:	e8bd 4030 	ldmia.w	sp!, {r4, r5, lr}
		str.append((char)value);
   b7f54:	f7ff bfe0 	b.w	b7f18 <_ZN16JsonParserString6appendEc>
		value = (0b10000000 | (unicode & 0b111111));
   b7f58:	f001 013f 	and.w	r1, r1, #63	; 0x3f
	if (unicode <= 0x7ff) {
   b7f5c:	f5b3 6f00 	cmp.w	r3, #2048	; 0x800
		value = (0b11000000 | ((unicode >> 6) & 0b11111));
   b7f60:	f3c3 1587 	ubfx	r5, r3, #6, #8
		value = (0b10000000 | (unicode & 0b111111));
   b7f64:	f041 0480 	orr.w	r4, r1, #128	; 0x80
	if (unicode <= 0x7ff) {
   b7f68:	d207      	bcs.n	b7f7a <_ZN10JsonParser10appendUtf8EtR16JsonParserString+0x38>
		str.append((char)value);
   b7f6a:	f045 01c0 	orr.w	r1, r5, #192	; 0xc0
   b7f6e:	9001      	str	r0, [sp, #4]
		str.append((char)value);
   b7f70:	f7ff ffd2 	bl	b7f18 <_ZN16JsonParserString6appendEc>
		str.append((char)value);
   b7f74:	9801      	ldr	r0, [sp, #4]
   b7f76:	4621      	mov	r1, r4
   b7f78:	e7e9      	b.n	b7f4e <_ZN10JsonParser10appendUtf8EtR16JsonParserString+0xc>
		value = 0b11100000 | ((unicode >> 12) & 0b1111);
   b7f7a:	0b1b      	lsrs	r3, r3, #12
		str.append((char)value);
   b7f7c:	f043 01e0 	orr.w	r1, r3, #224	; 0xe0
   b7f80:	9001      	str	r0, [sp, #4]
   b7f82:	f7ff ffc9 	bl	b7f18 <_ZN16JsonParserString6appendEc>
		value = 0b10000000 | ((unicode >> 6) & 0b111111);
   b7f86:	f005 013f 	and.w	r1, r5, #63	; 0x3f
		str.append((char)value);
   b7f8a:	9801      	ldr	r0, [sp, #4]
   b7f8c:	f041 0180 	orr.w	r1, r1, #128	; 0x80
   b7f90:	e7ee      	b.n	b7f70 <_ZN10JsonParser10appendUtf8EtR16JsonParserString+0x2e>
	...

000b7f94 <_ZNK10JsonParser13getTokenValueEPKN21JsonParserGeneratorRK9jsmntok_tER16JsonParserString>:
bool JsonParser::getTokenValue(const JsonParserGeneratorRK::jsmntok_t *token, JsonParserString &str) const {
   b7f94:	e92d 47ff 	stmdb	sp!, {r0, r1, r2, r3, r4, r5, r6, r7, r8, r9, sl, lr}
	bool escape = false;
   b7f98:	2400      	movs	r4, #0
	for(int ii = token->start; ii < token->end; ii++) {
   b7f9a:	684e      	ldr	r6, [r1, #4]
					if (sscanf(tmp, "%04x", &unicode) == 1) {
   b7f9c:	f8df a0cc 	ldr.w	sl, [pc, #204]	; b806c <_ZNK10JsonParser13getTokenValueEPKN21JsonParserGeneratorRK9jsmntok_tER16JsonParserString+0xd8>
bool JsonParser::getTokenValue(const JsonParserGeneratorRK::jsmntok_t *token, JsonParserString &str) const {
   b7fa0:	4680      	mov	r8, r0
   b7fa2:	460f      	mov	r7, r1
   b7fa4:	4615      	mov	r5, r2
			escape = false;
   b7fa6:	46a1      	mov	r9, r4
	for(int ii = token->start; ii < token->end; ii++) {
   b7fa8:	68b8      	ldr	r0, [r7, #8]
   b7faa:	42b0      	cmp	r0, r6
   b7fac:	dd5a      	ble.n	b8064 <_ZNK10JsonParser13getTokenValueEPKN21JsonParserGeneratorRK9jsmntok_tER16JsonParserString+0xd0>
			switch(buffer[ii]) {
   b7fae:	f8d8 3004 	ldr.w	r3, [r8, #4]
   b7fb2:	5d99      	ldrb	r1, [r3, r6]
   b7fb4:	199a      	adds	r2, r3, r6
		if (escape) {
   b7fb6:	2c00      	cmp	r4, #0
   b7fb8:	d04b      	beq.n	b8052 <_ZNK10JsonParser13getTokenValueEPKN21JsonParserGeneratorRK9jsmntok_tER16JsonParserString+0xbe>
			switch(buffer[ii]) {
   b7fba:	2975      	cmp	r1, #117	; 0x75
   b7fbc:	d805      	bhi.n	b7fca <_ZNK10JsonParser13getTokenValueEPKN21JsonParserGeneratorRK9jsmntok_tER16JsonParserString+0x36>
   b7fbe:	296d      	cmp	r1, #109	; 0x6d
   b7fc0:	d807      	bhi.n	b7fd2 <_ZNK10JsonParser13getTokenValueEPKN21JsonParserGeneratorRK9jsmntok_tER16JsonParserString+0x3e>
   b7fc2:	2962      	cmp	r1, #98	; 0x62
   b7fc4:	d01e      	beq.n	b8004 <_ZNK10JsonParser13getTokenValueEPKN21JsonParserGeneratorRK9jsmntok_tER16JsonParserString+0x70>
   b7fc6:	2966      	cmp	r1, #102	; 0x66
   b7fc8:	d01e      	beq.n	b8008 <_ZNK10JsonParser13getTokenValueEPKN21JsonParserGeneratorRK9jsmntok_tER16JsonParserString+0x74>
				str.append(buffer[ii]);
   b7fca:	4628      	mov	r0, r5
   b7fcc:	f7ff ffa4 	bl	b7f18 <_ZN16JsonParserString6appendEc>
				break;
   b7fd0:	e03d      	b.n	b804e <_ZNK10JsonParser13getTokenValueEPKN21JsonParserGeneratorRK9jsmntok_tER16JsonParserString+0xba>
   b7fd2:	f1a1 046e 	sub.w	r4, r1, #110	; 0x6e
   b7fd6:	2c07      	cmp	r4, #7
   b7fd8:	d8f7      	bhi.n	b7fca <_ZNK10JsonParser13getTokenValueEPKN21JsonParserGeneratorRK9jsmntok_tER16JsonParserString+0x36>
   b7fda:	f20f 0c08 	addw	ip, pc, #8
   b7fde:	f85c f024 	ldr.w	pc, [ip, r4, lsl #2]
   b7fe2:	bf00      	nop
   b7fe4:	000b800d 	.word	0x000b800d
   b7fe8:	000b7fcb 	.word	0x000b7fcb
   b7fec:	000b7fcb 	.word	0x000b7fcb
   b7ff0:	000b7fcb 	.word	0x000b7fcb
   b7ff4:	000b8011 	.word	0x000b8011
   b7ff8:	000b7fcb 	.word	0x000b7fcb
   b7ffc:	000b8015 	.word	0x000b8015
   b8000:	000b8019 	.word	0x000b8019
				str.append('\b');
   b8004:	2108      	movs	r1, #8
   b8006:	e7e0      	b.n	b7fca <_ZNK10JsonParser13getTokenValueEPKN21JsonParserGeneratorRK9jsmntok_tER16JsonParserString+0x36>
				str.append('\f');
   b8008:	210c      	movs	r1, #12
   b800a:	e7de      	b.n	b7fca <_ZNK10JsonParser13getTokenValueEPKN21JsonParserGeneratorRK9jsmntok_tER16JsonParserString+0x36>
				str.append('\n');
   b800c:	210a      	movs	r1, #10
   b800e:	e7dc      	b.n	b7fca <_ZNK10JsonParser13getTokenValueEPKN21JsonParserGeneratorRK9jsmntok_tER16JsonParserString+0x36>
				str.append('\r');
   b8010:	210d      	movs	r1, #13
   b8012:	e7da      	b.n	b7fca <_ZNK10JsonParser13getTokenValueEPKN21JsonParserGeneratorRK9jsmntok_tER16JsonParserString+0x36>
				str.append('\t');
   b8014:	2109      	movs	r1, #9
   b8016:	e7d8      	b.n	b7fca <_ZNK10JsonParser13getTokenValueEPKN21JsonParserGeneratorRK9jsmntok_tER16JsonParserString+0x36>
				if ((ii + 4) < token->end) {
   b8018:	1d31      	adds	r1, r6, #4
   b801a:	4288      	cmp	r0, r1
   b801c:	dd17      	ble.n	b804e <_ZNK10JsonParser13getTokenValueEPKN21JsonParserGeneratorRK9jsmntok_tER16JsonParserString+0xba>
   b801e:	a902      	add	r1, sp, #8
   b8020:	3304      	adds	r3, #4
   b8022:	4433      	add	r3, r6
   b8024:	4608      	mov	r0, r1
						tmp[jj] = buffer[ii + jj + 1];
   b8026:	f812 4f01 	ldrb.w	r4, [r2, #1]!
   b802a:	f801 4b01 	strb.w	r4, [r1], #1
					for(size_t jj = 0; jj < 4; jj++) {
   b802e:	429a      	cmp	r2, r3
   b8030:	d1f9      	bne.n	b8026 <_ZNK10JsonParser13getTokenValueEPKN21JsonParserGeneratorRK9jsmntok_tER16JsonParserString+0x92>
					if (sscanf(tmp, "%04x", &unicode) == 1) {
   b8032:	aa01      	add	r2, sp, #4
   b8034:	4651      	mov	r1, sl
					tmp[4] = 0;
   b8036:	f88d 900c 	strb.w	r9, [sp, #12]
					if (sscanf(tmp, "%04x", &unicode) == 1) {
   b803a:	f000 fd47 	bl	b8acc <sscanf>
   b803e:	2801      	cmp	r0, #1
   b8040:	d105      	bne.n	b804e <_ZNK10JsonParser13getTokenValueEPKN21JsonParserGeneratorRK9jsmntok_tER16JsonParserString+0xba>
						appendUtf8((uint16_t)unicode, str);
   b8042:	f8bd 0004 	ldrh.w	r0, [sp, #4]
   b8046:	4629      	mov	r1, r5
   b8048:	f7ff ff7b 	bl	b7f42 <_ZN10JsonParser10appendUtf8EtR16JsonParserString>
						ii += 5; // also increments in loop
   b804c:	3605      	adds	r6, #5
			escape = false;
   b804e:	2400      	movs	r4, #0
   b8050:	e004      	b.n	b805c <_ZNK10JsonParser13getTokenValueEPKN21JsonParserGeneratorRK9jsmntok_tER16JsonParserString+0xc8>
		if (buffer[ii] == '\\') {
   b8052:	295c      	cmp	r1, #92	; 0x5c
   b8054:	d004      	beq.n	b8060 <_ZNK10JsonParser13getTokenValueEPKN21JsonParserGeneratorRK9jsmntok_tER16JsonParserString+0xcc>
			str.append(buffer[ii]);
   b8056:	4628      	mov	r0, r5
   b8058:	f7ff ff5e 	bl	b7f18 <_ZN16JsonParserString6appendEc>
	for(int ii = token->start; ii < token->end; ii++) {
   b805c:	3601      	adds	r6, #1
   b805e:	e7a3      	b.n	b7fa8 <_ZNK10JsonParser13getTokenValueEPKN21JsonParserGeneratorRK9jsmntok_tER16JsonParserString+0x14>
			escape = true;
   b8060:	2401      	movs	r4, #1
   b8062:	e7fb      	b.n	b805c <_ZNK10JsonParser13getTokenValueEPKN21JsonParserGeneratorRK9jsmntok_tER16JsonParserString+0xc8>
}
   b8064:	2001      	movs	r0, #1
   b8066:	b004      	add	sp, #16
   b8068:	e8bd 87f0 	ldmia.w	sp!, {r4, r5, r6, r7, r8, r9, sl, pc}
   b806c:	000be7ff 	.word	0x000be7ff

000b8070 <_ZNK10JsonParser13getTokenValueEPKN21JsonParserGeneratorRK9jsmntok_tER6String>:
bool JsonParser::getTokenValue(const JsonParserGeneratorRK::jsmntok_t *token, String &result) const {
   b8070:	b57f      	push	{r0, r1, r2, r3, r4, r5, r6, lr}
   b8072:	460c      	mov	r4, r1
   b8074:	4606      	mov	r6, r0
	result = "";
   b8076:	490c      	ldr	r1, [pc, #48]	; (b80a8 <_ZNK10JsonParser13getTokenValueEPKN21JsonParserGeneratorRK9jsmntok_tER6String+0x38>)
   b8078:	4610      	mov	r0, r2
bool JsonParser::getTokenValue(const JsonParserGeneratorRK::jsmntok_t *token, String &result) const {
   b807a:	4615      	mov	r5, r2
	result = "";
   b807c:	f002 fa3f 	bl	ba4fe <_ZN6StringaSEPKc>
	result.reserve(token->end - token->start + 1);
   b8080:	e9d4 3101 	ldrd	r3, r1, [r4, #4]
   b8084:	1ac9      	subs	r1, r1, r3
   b8086:	3101      	adds	r1, #1
   b8088:	4628      	mov	r0, r5
   b808a:	f002 f9c3 	bl	ba414 <_ZN6String7reserveEj>
JsonParserString::JsonParserString(String *str) : str(str), buf(0), bufLen(0), length(0){
   b808e:	2300      	movs	r3, #0
	return getTokenValue(token, strWrapper);
   b8090:	466a      	mov	r2, sp
   b8092:	4621      	mov	r1, r4
   b8094:	4630      	mov	r0, r6
JsonParserString::JsonParserString(String *str) : str(str), buf(0), bufLen(0), length(0){
   b8096:	e9cd 3301 	strd	r3, r3, [sp, #4]
   b809a:	9500      	str	r5, [sp, #0]
   b809c:	9303      	str	r3, [sp, #12]
	return getTokenValue(token, strWrapper);
   b809e:	f7ff ff79 	bl	b7f94 <_ZNK10JsonParser13getTokenValueEPKN21JsonParserGeneratorRK9jsmntok_tER16JsonParserString>
}
   b80a2:	b004      	add	sp, #16
   b80a4:	bd70      	pop	{r4, r5, r6, pc}
   b80a6:	bf00      	nop
   b80a8:	000be7fe 	.word	0x000be7fe

000b80ac <_ZNK10JsonParser18getValueTokenByKeyEPKN21JsonParserGeneratorRK9jsmntok_tEPKcRS3_>:
bool JsonParser::getValueTokenByKey(const JsonParserGeneratorRK::jsmntok_t *container, const char *name, const JsonParserGeneratorRK::jsmntok_t *&value) const {
   b80ac:	e92d 43f0 	stmdb	sp!, {r4, r5, r6, r7, r8, r9, lr}
   b80b0:	b089      	sub	sp, #36	; 0x24
   b80b2:	4605      	mov	r5, r0
   b80b4:	4688      	mov	r8, r1
	String keyName;
   b80b6:	a804      	add	r0, sp, #16
   b80b8:	4912      	ldr	r1, [pc, #72]	; (b8104 <_ZNK10JsonParser18getValueTokenByKeyEPKN21JsonParserGeneratorRK9jsmntok_tEPKcRS3_+0x58>)
bool JsonParser::getValueTokenByKey(const JsonParserGeneratorRK::jsmntok_t *container, const char *name, const JsonParserGeneratorRK::jsmntok_t *&value) const {
   b80ba:	4616      	mov	r6, r2
   b80bc:	4699      	mov	r9, r3
	String keyName;
   b80be:	f002 f9d6 	bl	ba46e <_ZN6StringC1EPK19__FlashStringHelper>
	for(size_t ii = 0; getKeyValueTokenByIndex(container, key, value, ii); ii++) {
   b80c2:	2700      	movs	r7, #0
   b80c4:	9700      	str	r7, [sp, #0]
   b80c6:	464b      	mov	r3, r9
   b80c8:	aa03      	add	r2, sp, #12
   b80ca:	4641      	mov	r1, r8
   b80cc:	4628      	mov	r0, r5
   b80ce:	f7ff fe70 	bl	b7db2 <_ZNK10JsonParser23getKeyValueTokenByIndexEPKN21JsonParserGeneratorRK9jsmntok_tERS3_S4_j>
   b80d2:	4604      	mov	r4, r0
   b80d4:	b170      	cbz	r0, b80f4 <_ZNK10JsonParser18getValueTokenByKeyEPKN21JsonParserGeneratorRK9jsmntok_tEPKcRS3_+0x48>
		if (getTokenValue(key, keyName) && keyName == name) {
   b80d6:	9903      	ldr	r1, [sp, #12]
   b80d8:	aa04      	add	r2, sp, #16
   b80da:	4628      	mov	r0, r5
   b80dc:	f7ff ffc8 	bl	b8070 <_ZNK10JsonParser13getTokenValueEPKN21JsonParserGeneratorRK9jsmntok_tER6String>
   b80e0:	4604      	mov	r4, r0
   b80e2:	b908      	cbnz	r0, b80e8 <_ZNK10JsonParser18getValueTokenByKeyEPKN21JsonParserGeneratorRK9jsmntok_tEPKcRS3_+0x3c>
	for(size_t ii = 0; getKeyValueTokenByIndex(container, key, value, ii); ii++) {
   b80e4:	3701      	adds	r7, #1
   b80e6:	e7ed      	b.n	b80c4 <_ZNK10JsonParser18getValueTokenByKeyEPKN21JsonParserGeneratorRK9jsmntok_tEPKcRS3_+0x18>
	unsigned char operator == (const char *cstr) const {return equals(cstr);}
   b80e8:	4631      	mov	r1, r6
   b80ea:	a804      	add	r0, sp, #16
   b80ec:	f002 fa97 	bl	ba61e <_ZNK6String6equalsEPKc>
		if (getTokenValue(key, keyName) && keyName == name) {
   b80f0:	2800      	cmp	r0, #0
   b80f2:	d0f7      	beq.n	b80e4 <_ZNK10JsonParser18getValueTokenByKeyEPKN21JsonParserGeneratorRK9jsmntok_tEPKcRS3_+0x38>
	String keyName;
   b80f4:	a804      	add	r0, sp, #16
   b80f6:	f002 f96f 	bl	ba3d8 <_ZN6StringD1Ev>
}
   b80fa:	4620      	mov	r0, r4
   b80fc:	b009      	add	sp, #36	; 0x24
   b80fe:	e8bd 83f0 	ldmia.w	sp!, {r4, r5, r6, r7, r8, r9, pc}
   b8102:	bf00      	nop
   b8104:	000be7fe 	.word	0x000be7fe

000b8108 <_ZNK13JsonReference3keyEPKc>:
JsonReference JsonReference::key(const char *name) const {
   b8108:	b573      	push	{r0, r1, r4, r5, r6, lr}
   b810a:	460d      	mov	r5, r1
	if (token && parser->getValueTokenByKey(token, name, newToken)) {
   b810c:	6889      	ldr	r1, [r1, #8]
   b810e:	4e0a      	ldr	r6, [pc, #40]	; (b8138 <_ZNK13JsonReference3keyEPKc+0x30>)
JsonReference JsonReference::key(const char *name) const {
   b8110:	4604      	mov	r4, r0
	if (token && parser->getValueTokenByKey(token, name, newToken)) {
   b8112:	b161      	cbz	r1, b812e <_ZNK13JsonReference3keyEPKc+0x26>
   b8114:	6868      	ldr	r0, [r5, #4]
   b8116:	ab01      	add	r3, sp, #4
   b8118:	f7ff ffc8 	bl	b80ac <_ZNK10JsonParser18getValueTokenByKeyEPKN21JsonParserGeneratorRK9jsmntok_tEPKcRS3_>
   b811c:	b138      	cbz	r0, b812e <_ZNK13JsonReference3keyEPKc+0x26>
		return JsonReference(parser, newToken);
   b811e:	686b      	ldr	r3, [r5, #4]
JsonReference::JsonReference(const JsonParser *parser, const JsonParserGeneratorRK::jsmntok_t *token) : parser(parser), token(token) {
   b8120:	e9c4 6300 	strd	r6, r3, [r4]
   b8124:	9b01      	ldr	r3, [sp, #4]
JsonReference::JsonReference(const JsonParser *parser) : parser(parser), token(0) {
   b8126:	60a3      	str	r3, [r4, #8]
}
   b8128:	4620      	mov	r0, r4
   b812a:	b002      	add	sp, #8
   b812c:	bd70      	pop	{r4, r5, r6, pc}
		return JsonReference(parser);
   b812e:	686b      	ldr	r3, [r5, #4]
JsonReference::JsonReference(const JsonParser *parser) : parser(parser), token(0) {
   b8130:	e9c4 6300 	strd	r6, r3, [r4]
   b8134:	2300      	movs	r3, #0
   b8136:	e7f6      	b.n	b8126 <_ZNK13JsonReference3keyEPKc+0x1e>
   b8138:	000be82c 	.word	0x000be82c

000b813c <_ZNK13JsonReference11valueStringEv>:
String JsonReference::valueString() const {
   b813c:	b538      	push	{r3, r4, r5, lr}
   b813e:	460d      	mov	r5, r1
	String result;
   b8140:	4905      	ldr	r1, [pc, #20]	; (b8158 <_ZNK13JsonReference11valueStringEv+0x1c>)
String JsonReference::valueString() const {
   b8142:	4604      	mov	r4, r0
	String result;
   b8144:	f002 f993 	bl	ba46e <_ZN6StringC1EPK19__FlashStringHelper>
   b8148:	68a9      	ldr	r1, [r5, #8]
   b814a:	b119      	cbz	r1, b8154 <_ZNK13JsonReference11valueStringEv+0x18>
   b814c:	6868      	ldr	r0, [r5, #4]
   b814e:	4622      	mov	r2, r4
   b8150:	f7ff ff8e 	bl	b8070 <_ZNK10JsonParser13getTokenValueEPKN21JsonParserGeneratorRK9jsmntok_tER6String>
}
   b8154:	4620      	mov	r0, r4
   b8156:	bd38      	pop	{r3, r4, r5, pc}
   b8158:	000be7fe 	.word	0x000be7fe

000b815c <_ZN21JsonParserGeneratorRK10jsmn_parseEPNS_11jsmn_parserEPKcjPNS_9jsmntok_tEj>:

/**
 * Parse JSON string and fill tokens.
 */
int jsmn_parse(jsmn_parser *parser, const char *js, size_t len,
		jsmntok_t *tokens, unsigned int num_tokens) {
   b815c:	e92d 4ff0 	stmdb	sp!, {r4, r5, r6, r7, r8, r9, sl, fp, lr}
	int r;
	int i;
	jsmntok_t *token;
	int count = parser->toknext;
   b8160:	6844      	ldr	r4, [r0, #4]
   b8162:	f04f 0c01 	mov.w	ip, #1
	tok->start = tok->end = -1;
   b8166:	f04f 36ff 	mov.w	r6, #4294967295	; 0xffffffff

	for (; parser->pos < len && js[parser->pos] != '\0'; parser->pos++) {
   b816a:	f8d0 e000 	ldr.w	lr, [r0]
   b816e:	4596      	cmp	lr, r2
   b8170:	f080 81b9 	bcs.w	b84e6 <_ZN21JsonParserGeneratorRK10jsmn_parseEPNS_11jsmn_parserEPKcjPNS_9jsmntok_tEj+0x38a>
   b8174:	f811 800e 	ldrb.w	r8, [r1, lr]
   b8178:	f1b8 0f00 	cmp.w	r8, #0
   b817c:	f000 81b3 	beq.w	b84e6 <_ZN21JsonParserGeneratorRK10jsmn_parseEPNS_11jsmn_parserEPKcjPNS_9jsmntok_tEj+0x38a>
		char c;
		jsmntype_t type;

		c = js[parser->pos];
		switch (c) {
   b8180:	f1b8 0f3a 	cmp.w	r8, #58	; 0x3a
   b8184:	f000 8098 	beq.w	b82b8 <_ZN21JsonParserGeneratorRK10jsmn_parseEPNS_11jsmn_parserEPKcjPNS_9jsmntok_tEj+0x15c>
   b8188:	d833      	bhi.n	b81f2 <_ZN21JsonParserGeneratorRK10jsmn_parseEPNS_11jsmn_parserEPKcjPNS_9jsmntok_tEj+0x96>
   b818a:	f1b8 0f22 	cmp.w	r8, #34	; 0x22
   b818e:	f000 80a6 	beq.w	b82de <_ZN21JsonParserGeneratorRK10jsmn_parseEPNS_11jsmn_parserEPKcjPNS_9jsmntok_tEj+0x182>
   b8192:	d810      	bhi.n	b81b6 <_ZN21JsonParserGeneratorRK10jsmn_parseEPNS_11jsmn_parserEPKcjPNS_9jsmntok_tEj+0x5a>
   b8194:	f1a8 0809 	sub.w	r8, r8, #9
   b8198:	fa5f f888 	uxtb.w	r8, r8
   b819c:	f1b8 0f17 	cmp.w	r8, #23
   b81a0:	d80d      	bhi.n	b81be <_ZN21JsonParserGeneratorRK10jsmn_parseEPNS_11jsmn_parserEPKcjPNS_9jsmntok_tEj+0x62>
   b81a2:	4d9f      	ldr	r5, [pc, #636]	; (b8420 <_ZN21JsonParserGeneratorRK10jsmn_parseEPNS_11jsmn_parserEPKcjPNS_9jsmntok_tEj+0x2c4>)
   b81a4:	fa0c f808 	lsl.w	r8, ip, r8
   b81a8:	ea18 0f05 	tst.w	r8, r5
   b81ac:	d007      	beq.n	b81be <_ZN21JsonParserGeneratorRK10jsmn_parseEPNS_11jsmn_parserEPKcjPNS_9jsmntok_tEj+0x62>
	for (; parser->pos < len && js[parser->pos] != '\0'; parser->pos++) {
   b81ae:	6805      	ldr	r5, [r0, #0]
   b81b0:	3501      	adds	r5, #1
   b81b2:	6005      	str	r5, [r0, #0]
   b81b4:	e7d9      	b.n	b816a <_ZN21JsonParserGeneratorRK10jsmn_parseEPNS_11jsmn_parserEPKcjPNS_9jsmntok_tEj+0xe>
		switch (c) {
   b81b6:	f1b8 0f2c 	cmp.w	r8, #44	; 0x2c
   b81ba:	f000 8133 	beq.w	b8424 <_ZN21JsonParserGeneratorRK10jsmn_parseEPNS_11jsmn_parserEPKcjPNS_9jsmntok_tEj+0x2c8>
	for (; parser->pos < len && js[parser->pos] != '\0'; parser->pos++) {
   b81be:	f8d0 8000 	ldr.w	r8, [r0]
   b81c2:	4542      	cmp	r2, r8
   b81c4:	d90e      	bls.n	b81e4 <_ZN21JsonParserGeneratorRK10jsmn_parseEPNS_11jsmn_parserEPKcjPNS_9jsmntok_tEj+0x88>
   b81c6:	f811 5008 	ldrb.w	r5, [r1, r8]
   b81ca:	b15d      	cbz	r5, b81e4 <_ZN21JsonParserGeneratorRK10jsmn_parseEPNS_11jsmn_parserEPKcjPNS_9jsmntok_tEj+0x88>
		switch (js[parser->pos]) {
   b81cc:	2d3a      	cmp	r5, #58	; 0x3a
   b81ce:	f200 8169 	bhi.w	b84a4 <_ZN21JsonParserGeneratorRK10jsmn_parseEPNS_11jsmn_parserEPKcjPNS_9jsmntok_tEj+0x348>
   b81d2:	2d1f      	cmp	r5, #31
   b81d4:	f200 8151 	bhi.w	b847a <_ZN21JsonParserGeneratorRK10jsmn_parseEPNS_11jsmn_parserEPKcjPNS_9jsmntok_tEj+0x31e>
   b81d8:	2d0a      	cmp	r5, #10
   b81da:	f200 8160 	bhi.w	b849e <_ZN21JsonParserGeneratorRK10jsmn_parseEPNS_11jsmn_parserEPKcjPNS_9jsmntok_tEj+0x342>
   b81de:	2d08      	cmp	r5, #8
   b81e0:	f240 8156 	bls.w	b8490 <_ZN21JsonParserGeneratorRK10jsmn_parseEPNS_11jsmn_parserEPKcjPNS_9jsmntok_tEj+0x334>
	if (tokens == NULL) {
   b81e4:	2b00      	cmp	r3, #0
   b81e6:	f040 8162 	bne.w	b84ae <_ZN21JsonParserGeneratorRK10jsmn_parseEPNS_11jsmn_parserEPKcjPNS_9jsmntok_tEj+0x352>
		parser->pos--;
   b81ea:	f108 35ff 	add.w	r5, r8, #4294967295	; 0xffffffff
	parser->pos--;
   b81ee:	6005      	str	r5, [r0, #0]
   b81f0:	e0a5      	b.n	b833e <_ZN21JsonParserGeneratorRK10jsmn_parseEPNS_11jsmn_parserEPKcjPNS_9jsmntok_tEj+0x1e2>
		switch (c) {
   b81f2:	f1b8 0f7b 	cmp.w	r8, #123	; 0x7b
   b81f6:	d037      	beq.n	b8268 <_ZN21JsonParserGeneratorRK10jsmn_parseEPNS_11jsmn_parserEPKcjPNS_9jsmntok_tEj+0x10c>
   b81f8:	d82e      	bhi.n	b8258 <_ZN21JsonParserGeneratorRK10jsmn_parseEPNS_11jsmn_parserEPKcjPNS_9jsmntok_tEj+0xfc>
   b81fa:	f1b8 0f5b 	cmp.w	r8, #91	; 0x5b
   b81fe:	d033      	beq.n	b8268 <_ZN21JsonParserGeneratorRK10jsmn_parseEPNS_11jsmn_parserEPKcjPNS_9jsmntok_tEj+0x10c>
   b8200:	f1b8 0f5d 	cmp.w	r8, #93	; 0x5d
   b8204:	d1db      	bne.n	b81be <_ZN21JsonParserGeneratorRK10jsmn_parseEPNS_11jsmn_parserEPKcjPNS_9jsmntok_tEj+0x62>
				token->type = (c == '{' ? JSMN_OBJECT : JSMN_ARRAY);
				token->start = parser->pos;
				parser->toksuper = parser->toknext - 1;
				break;
			case '}': case ']':
				if (tokens == NULL)
   b8206:	2b00      	cmp	r3, #0
   b8208:	d0d1      	beq.n	b81ae <_ZN21JsonParserGeneratorRK10jsmn_parseEPNS_11jsmn_parserEPKcjPNS_9jsmntok_tEj+0x52>
					break;
				type = (c == '}' ? JSMN_OBJECT : JSMN_ARRAY);
   b820a:	f04f 0902 	mov.w	r9, #2
						break;
					}
					token = &tokens[token->parent];
				}
#else
				for (i = parser->toknext - 1; i >= 0; i--) {
   b820e:	6845      	ldr	r5, [r0, #4]
   b8210:	3d01      	subs	r5, #1
   b8212:	eb03 1805 	add.w	r8, r3, r5, lsl #4
   b8216:	2d00      	cmp	r5, #0
   b8218:	db55      	blt.n	b82c6 <_ZN21JsonParserGeneratorRK10jsmn_parseEPNS_11jsmn_parserEPKcjPNS_9jsmntok_tEj+0x16a>
					token = &tokens[i];
					if (token->start != -1 && token->end == -1) {
   b821a:	f8d8 7004 	ldr.w	r7, [r8, #4]
   b821e:	3701      	adds	r7, #1
   b8220:	d04d      	beq.n	b82be <_ZN21JsonParserGeneratorRK10jsmn_parseEPNS_11jsmn_parserEPKcjPNS_9jsmntok_tEj+0x162>
   b8222:	f8d8 a008 	ldr.w	sl, [r8, #8]
   b8226:	f1ba 3fff 	cmp.w	sl, #4294967295	; 0xffffffff
   b822a:	d148      	bne.n	b82be <_ZN21JsonParserGeneratorRK10jsmn_parseEPNS_11jsmn_parserEPKcjPNS_9jsmntok_tEj+0x162>
						if (token->type != type) {
   b822c:	f898 b000 	ldrb.w	fp, [r8]
   b8230:	45cb      	cmp	fp, r9
   b8232:	d14b      	bne.n	b82cc <_ZN21JsonParserGeneratorRK10jsmn_parseEPNS_11jsmn_parserEPKcjPNS_9jsmntok_tEj+0x170>
							return JSMN_ERROR_INVAL;
						}
						parser->toksuper = -1;
						token->end = parser->pos + 1;
   b8234:	f10e 0e01 	add.w	lr, lr, #1
						parser->toksuper = -1;
   b8238:	f8c0 a008 	str.w	sl, [r0, #8]
						token->end = parser->pos + 1;
   b823c:	f8c8 e008 	str.w	lr, [r8, #8]
						break;
					}
				}
				/* Error if unmatched closing bracket */
				if (i == -1) return JSMN_ERROR_INVAL;
   b8240:	eb03 1e05 	add.w	lr, r3, r5, lsl #4
				for (; i >= 0; i--) {
					token = &tokens[i];
					if (token->start != -1 && token->end == -1) {
   b8244:	f8de 7004 	ldr.w	r7, [lr, #4]
   b8248:	3701      	adds	r7, #1
   b824a:	d042      	beq.n	b82d2 <_ZN21JsonParserGeneratorRK10jsmn_parseEPNS_11jsmn_parserEPKcjPNS_9jsmntok_tEj+0x176>
   b824c:	f8de 7008 	ldr.w	r7, [lr, #8]
   b8250:	3701      	adds	r7, #1
   b8252:	d13e      	bne.n	b82d2 <_ZN21JsonParserGeneratorRK10jsmn_parseEPNS_11jsmn_parserEPKcjPNS_9jsmntok_tEj+0x176>
					tokens[parser->toksuper].size++;
				break;
			case '\t' : case '\r' : case '\n' : case ' ':
				break;
			case ':':
				parser->toksuper = parser->toknext - 1;
   b8254:	6085      	str	r5, [r0, #8]
				break;
   b8256:	e7aa      	b.n	b81ae <_ZN21JsonParserGeneratorRK10jsmn_parseEPNS_11jsmn_parserEPKcjPNS_9jsmntok_tEj+0x52>
		switch (c) {
   b8258:	f1b8 0f7d 	cmp.w	r8, #125	; 0x7d
   b825c:	d1af      	bne.n	b81be <_ZN21JsonParserGeneratorRK10jsmn_parseEPNS_11jsmn_parserEPKcjPNS_9jsmntok_tEj+0x62>
				if (tokens == NULL)
   b825e:	2b00      	cmp	r3, #0
   b8260:	d0a5      	beq.n	b81ae <_ZN21JsonParserGeneratorRK10jsmn_parseEPNS_11jsmn_parserEPKcjPNS_9jsmntok_tEj+0x52>
				type = (c == '}' ? JSMN_OBJECT : JSMN_ARRAY);
   b8262:	f04f 0901 	mov.w	r9, #1
   b8266:	e7d2      	b.n	b820e <_ZN21JsonParserGeneratorRK10jsmn_parseEPNS_11jsmn_parserEPKcjPNS_9jsmntok_tEj+0xb2>
				count++;
   b8268:	3401      	adds	r4, #1
				if (tokens == NULL) {
   b826a:	2b00      	cmp	r3, #0
   b826c:	d09f      	beq.n	b81ae <_ZN21JsonParserGeneratorRK10jsmn_parseEPNS_11jsmn_parserEPKcjPNS_9jsmntok_tEj+0x52>
	if (parser->toknext >= num_tokens) {
   b826e:	6845      	ldr	r5, [r0, #4]
   b8270:	9f09      	ldr	r7, [sp, #36]	; 0x24
   b8272:	42af      	cmp	r7, r5
   b8274:	d94a      	bls.n	b830c <_ZN21JsonParserGeneratorRK10jsmn_parseEPNS_11jsmn_parserEPKcjPNS_9jsmntok_tEj+0x1b0>
	tok = &tokens[parser->toknext++];
   b8276:	f105 0e01 	add.w	lr, r5, #1
   b827a:	f8c0 e004 	str.w	lr, [r0, #4]
   b827e:	eb03 1e05 	add.w	lr, r3, r5, lsl #4
	tok->start = tok->end = -1;
   b8282:	e9ce 6601 	strd	r6, r6, [lr, #4]
	tok = &tokens[parser->toknext++];
   b8286:	ea4f 1a05 	mov.w	sl, r5, lsl #4
	tok->size = 0;
   b828a:	2500      	movs	r5, #0
   b828c:	f8ce 500c 	str.w	r5, [lr, #12]
				if (parser->toksuper != -1) {
   b8290:	6885      	ldr	r5, [r0, #8]
   b8292:	1c6f      	adds	r7, r5, #1
					tokens[parser->toksuper].size++;
   b8294:	bf1f      	itttt	ne
   b8296:	eb03 1905 	addne.w	r9, r3, r5, lsl #4
   b829a:	f8d9 500c 	ldrne.w	r5, [r9, #12]
   b829e:	3501      	addne	r5, #1
   b82a0:	f8c9 500c 	strne.w	r5, [r9, #12]
				token->type = (c == '{' ? JSMN_OBJECT : JSMN_ARRAY);
   b82a4:	f1b8 0f7b 	cmp.w	r8, #123	; 0x7b
   b82a8:	bf0c      	ite	eq
   b82aa:	2501      	moveq	r5, #1
   b82ac:	2502      	movne	r5, #2
   b82ae:	f803 500a 	strb.w	r5, [r3, sl]
				token->start = parser->pos;
   b82b2:	6805      	ldr	r5, [r0, #0]
   b82b4:	f8ce 5004 	str.w	r5, [lr, #4]
				parser->toksuper = parser->toknext - 1;
   b82b8:	6845      	ldr	r5, [r0, #4]
   b82ba:	3d01      	subs	r5, #1
   b82bc:	e7ca      	b.n	b8254 <_ZN21JsonParserGeneratorRK10jsmn_parseEPNS_11jsmn_parserEPKcjPNS_9jsmntok_tEj+0xf8>
				for (i = parser->toknext - 1; i >= 0; i--) {
   b82be:	3d01      	subs	r5, #1
   b82c0:	f1a8 0810 	sub.w	r8, r8, #16
   b82c4:	e7a7      	b.n	b8216 <_ZN21JsonParserGeneratorRK10jsmn_parseEPNS_11jsmn_parserEPKcjPNS_9jsmntok_tEj+0xba>
				if (i == -1) return JSMN_ERROR_INVAL;
   b82c6:	3501      	adds	r5, #1
   b82c8:	f47f af71 	bne.w	b81ae <_ZN21JsonParserGeneratorRK10jsmn_parseEPNS_11jsmn_parserEPKcjPNS_9jsmntok_tEj+0x52>
							return JSMN_ERROR_INVAL;
   b82cc:	f06f 0401 	mvn.w	r4, #1
   b82d0:	e01e      	b.n	b8310 <_ZN21JsonParserGeneratorRK10jsmn_parseEPNS_11jsmn_parserEPKcjPNS_9jsmntok_tEj+0x1b4>
				for (; i >= 0; i--) {
   b82d2:	3d01      	subs	r5, #1
   b82d4:	1c6f      	adds	r7, r5, #1
   b82d6:	f1ae 0e10 	sub.w	lr, lr, #16
   b82da:	d1b3      	bne.n	b8244 <_ZN21JsonParserGeneratorRK10jsmn_parseEPNS_11jsmn_parserEPKcjPNS_9jsmntok_tEj+0xe8>
   b82dc:	e767      	b.n	b81ae <_ZN21JsonParserGeneratorRK10jsmn_parseEPNS_11jsmn_parserEPKcjPNS_9jsmntok_tEj+0x52>
	parser->pos++;
   b82de:	f10e 0901 	add.w	r9, lr, #1
   b82e2:	f8c0 9000 	str.w	r9, [r0]
	for (; parser->pos < len && js[parser->pos] != '\0'; parser->pos++) {
   b82e6:	f8d0 8000 	ldr.w	r8, [r0]
   b82ea:	4542      	cmp	r2, r8
   b82ec:	f240 8093 	bls.w	b8416 <_ZN21JsonParserGeneratorRK10jsmn_parseEPNS_11jsmn_parserEPKcjPNS_9jsmntok_tEj+0x2ba>
   b82f0:	f811 5008 	ldrb.w	r5, [r1, r8]
   b82f4:	2d00      	cmp	r5, #0
   b82f6:	f000 808e 	beq.w	b8416 <_ZN21JsonParserGeneratorRK10jsmn_parseEPNS_11jsmn_parserEPKcjPNS_9jsmntok_tEj+0x2ba>
		if (c == '\"') {
   b82fa:	2d22      	cmp	r5, #34	; 0x22
   b82fc:	d130      	bne.n	b8360 <_ZN21JsonParserGeneratorRK10jsmn_parseEPNS_11jsmn_parserEPKcjPNS_9jsmntok_tEj+0x204>
			if (tokens == NULL) {
   b82fe:	b1f3      	cbz	r3, b833e <_ZN21JsonParserGeneratorRK10jsmn_parseEPNS_11jsmn_parserEPKcjPNS_9jsmntok_tEj+0x1e2>
	if (parser->toknext >= num_tokens) {
   b8300:	6845      	ldr	r5, [r0, #4]
   b8302:	9f09      	ldr	r7, [sp, #36]	; 0x24
   b8304:	42af      	cmp	r7, r5
   b8306:	d806      	bhi.n	b8316 <_ZN21JsonParserGeneratorRK10jsmn_parseEPNS_11jsmn_parserEPKcjPNS_9jsmntok_tEj+0x1ba>
		parser->pos = start;
   b8308:	f8c0 e000 	str.w	lr, [r0]
					return JSMN_ERROR_NOMEM;
   b830c:	f04f 34ff 	mov.w	r4, #4294967295	; 0xffffffff
			}
		}
	}

	return count;
}
   b8310:	4620      	mov	r0, r4
   b8312:	e8bd 8ff0 	ldmia.w	sp!, {r4, r5, r6, r7, r8, r9, sl, fp, pc}
	tok = &tokens[parser->toknext++];
   b8316:	f105 0e01 	add.w	lr, r5, #1
   b831a:	ea4f 1805 	mov.w	r8, r5, lsl #4
   b831e:	eb03 1505 	add.w	r5, r3, r5, lsl #4
   b8322:	f8c0 e004 	str.w	lr, [r0, #4]
	tok->start = tok->end = -1;
   b8326:	e9c5 6601 	strd	r6, r6, [r5, #4]
	tok->size = 0;
   b832a:	2700      	movs	r7, #0
   b832c:	60ef      	str	r7, [r5, #12]
			jsmn_fill_token(token, JSMN_STRING, start+1, parser->pos);
   b832e:	f8d0 e000 	ldr.w	lr, [r0]
	token->type = type;
   b8332:	f04f 0a03 	mov.w	sl, #3
   b8336:	f803 a008 	strb.w	sl, [r3, r8]
	token->end = end;
   b833a:	e9c5 9e01 	strd	r9, lr, [r5, #4]
				if (parser->toksuper != -1 && tokens != NULL)
   b833e:	6885      	ldr	r5, [r0, #8]
   b8340:	1c6f      	adds	r7, r5, #1
				count++;
   b8342:	f104 0401 	add.w	r4, r4, #1
				if (parser->toksuper != -1 && tokens != NULL)
   b8346:	f43f af32 	beq.w	b81ae <_ZN21JsonParserGeneratorRK10jsmn_parseEPNS_11jsmn_parserEPKcjPNS_9jsmntok_tEj+0x52>
   b834a:	2b00      	cmp	r3, #0
   b834c:	f43f af2f 	beq.w	b81ae <_ZN21JsonParserGeneratorRK10jsmn_parseEPNS_11jsmn_parserEPKcjPNS_9jsmntok_tEj+0x52>
					tokens[parser->toksuper].size++;
   b8350:	eb03 1e05 	add.w	lr, r3, r5, lsl #4
   b8354:	f8de 500c 	ldr.w	r5, [lr, #12]
   b8358:	3501      	adds	r5, #1
   b835a:	f8ce 500c 	str.w	r5, [lr, #12]
   b835e:	e726      	b.n	b81ae <_ZN21JsonParserGeneratorRK10jsmn_parseEPNS_11jsmn_parserEPKcjPNS_9jsmntok_tEj+0x52>
		if (c == '\\' && parser->pos + 1 < len) {
   b8360:	2d5c      	cmp	r5, #92	; 0x5c
   b8362:	d111      	bne.n	b8388 <_ZN21JsonParserGeneratorRK10jsmn_parseEPNS_11jsmn_parserEPKcjPNS_9jsmntok_tEj+0x22c>
   b8364:	f108 0501 	add.w	r5, r8, #1
   b8368:	42aa      	cmp	r2, r5
   b836a:	d90d      	bls.n	b8388 <_ZN21JsonParserGeneratorRK10jsmn_parseEPNS_11jsmn_parserEPKcjPNS_9jsmntok_tEj+0x22c>
			parser->pos++;
   b836c:	6005      	str	r5, [r0, #0]
			switch (js[parser->pos]) {
   b836e:	5d4d      	ldrb	r5, [r1, r5]
   b8370:	2d75      	cmp	r5, #117	; 0x75
   b8372:	d82b      	bhi.n	b83cc <_ZN21JsonParserGeneratorRK10jsmn_parseEPNS_11jsmn_parserEPKcjPNS_9jsmntok_tEj+0x270>
   b8374:	2d6d      	cmp	r5, #109	; 0x6d
   b8376:	d80b      	bhi.n	b8390 <_ZN21JsonParserGeneratorRK10jsmn_parseEPNS_11jsmn_parserEPKcjPNS_9jsmntok_tEj+0x234>
   b8378:	2d66      	cmp	r5, #102	; 0x66
   b837a:	d827      	bhi.n	b83cc <_ZN21JsonParserGeneratorRK10jsmn_parseEPNS_11jsmn_parserEPKcjPNS_9jsmntok_tEj+0x270>
   b837c:	2d5b      	cmp	r5, #91	; 0x5b
   b837e:	d81d      	bhi.n	b83bc <_ZN21JsonParserGeneratorRK10jsmn_parseEPNS_11jsmn_parserEPKcjPNS_9jsmntok_tEj+0x260>
   b8380:	2d22      	cmp	r5, #34	; 0x22
   b8382:	d001      	beq.n	b8388 <_ZN21JsonParserGeneratorRK10jsmn_parseEPNS_11jsmn_parserEPKcjPNS_9jsmntok_tEj+0x22c>
   b8384:	2d2f      	cmp	r5, #47	; 0x2f
   b8386:	d121      	bne.n	b83cc <_ZN21JsonParserGeneratorRK10jsmn_parseEPNS_11jsmn_parserEPKcjPNS_9jsmntok_tEj+0x270>
	for (; parser->pos < len && js[parser->pos] != '\0'; parser->pos++) {
   b8388:	6805      	ldr	r5, [r0, #0]
   b838a:	3501      	adds	r5, #1
   b838c:	6005      	str	r5, [r0, #0]
   b838e:	e7aa      	b.n	b82e6 <_ZN21JsonParserGeneratorRK10jsmn_parseEPNS_11jsmn_parserEPKcjPNS_9jsmntok_tEj+0x18a>
   b8390:	3d6e      	subs	r5, #110	; 0x6e
   b8392:	2d07      	cmp	r5, #7
   b8394:	d81a      	bhi.n	b83cc <_ZN21JsonParserGeneratorRK10jsmn_parseEPNS_11jsmn_parserEPKcjPNS_9jsmntok_tEj+0x270>
   b8396:	a701      	add	r7, pc, #4	; (adr r7, b839c <_ZN21JsonParserGeneratorRK10jsmn_parseEPNS_11jsmn_parserEPKcjPNS_9jsmntok_tEj+0x240>)
   b8398:	f857 f025 	ldr.w	pc, [r7, r5, lsl #2]
   b839c:	000b8389 	.word	0x000b8389
   b83a0:	000b83cd 	.word	0x000b83cd
   b83a4:	000b83cd 	.word	0x000b83cd
   b83a8:	000b83cd 	.word	0x000b83cd
   b83ac:	000b8389 	.word	0x000b8389
   b83b0:	000b83cd 	.word	0x000b83cd
   b83b4:	000b8389 	.word	0x000b8389
   b83b8:	000b83d3 	.word	0x000b83d3
   b83bc:	3d5c      	subs	r5, #92	; 0x5c
   b83be:	b2ed      	uxtb	r5, r5
   b83c0:	fa0c f505 	lsl.w	r5, ip, r5
   b83c4:	f240 4741 	movw	r7, #1089	; 0x441
   b83c8:	423d      	tst	r5, r7
   b83ca:	d1dd      	bne.n	b8388 <_ZN21JsonParserGeneratorRK10jsmn_parseEPNS_11jsmn_parserEPKcjPNS_9jsmntok_tEj+0x22c>
			parser->pos = start;
   b83cc:	f8c0 e000 	str.w	lr, [r0]
				if (r < 0) return r;
   b83d0:	e77c      	b.n	b82cc <_ZN21JsonParserGeneratorRK10jsmn_parseEPNS_11jsmn_parserEPKcjPNS_9jsmntok_tEj+0x170>
					parser->pos++;
   b83d2:	f108 0502 	add.w	r5, r8, #2
   b83d6:	6005      	str	r5, [r0, #0]
   b83d8:	f04f 0a04 	mov.w	sl, #4
					for(i = 0; i < 4 && parser->pos < len && js[parser->pos] != '\0'; i++) {
   b83dc:	f8d0 8000 	ldr.w	r8, [r0]
   b83e0:	4542      	cmp	r2, r8
   b83e2:	d803      	bhi.n	b83ec <_ZN21JsonParserGeneratorRK10jsmn_parseEPNS_11jsmn_parserEPKcjPNS_9jsmntok_tEj+0x290>
					parser->pos--;
   b83e4:	6805      	ldr	r5, [r0, #0]
   b83e6:	3d01      	subs	r5, #1
   b83e8:	6005      	str	r5, [r0, #0]
					break;
   b83ea:	e7cd      	b.n	b8388 <_ZN21JsonParserGeneratorRK10jsmn_parseEPNS_11jsmn_parserEPKcjPNS_9jsmntok_tEj+0x22c>
					for(i = 0; i < 4 && parser->pos < len && js[parser->pos] != '\0'; i++) {
   b83ec:	f811 5008 	ldrb.w	r5, [r1, r8]
   b83f0:	2d00      	cmp	r5, #0
   b83f2:	d0f7      	beq.n	b83e4 <_ZN21JsonParserGeneratorRK10jsmn_parseEPNS_11jsmn_parserEPKcjPNS_9jsmntok_tEj+0x288>
						if(!((js[parser->pos] >= 48 && js[parser->pos] <= 57) || /* 0-9 */
   b83f4:	f1a5 0b30 	sub.w	fp, r5, #48	; 0x30
   b83f8:	f1bb 0f09 	cmp.w	fp, #9
   b83fc:	d904      	bls.n	b8408 <_ZN21JsonParserGeneratorRK10jsmn_parseEPNS_11jsmn_parserEPKcjPNS_9jsmntok_tEj+0x2ac>
   b83fe:	f025 0520 	bic.w	r5, r5, #32
   b8402:	3d41      	subs	r5, #65	; 0x41
   b8404:	2d05      	cmp	r5, #5
   b8406:	d8e1      	bhi.n	b83cc <_ZN21JsonParserGeneratorRK10jsmn_parseEPNS_11jsmn_parserEPKcjPNS_9jsmntok_tEj+0x270>
						parser->pos++;
   b8408:	f108 0501 	add.w	r5, r8, #1
					for(i = 0; i < 4 && parser->pos < len && js[parser->pos] != '\0'; i++) {
   b840c:	f1ba 0a01 	subs.w	sl, sl, #1
						parser->pos++;
   b8410:	6005      	str	r5, [r0, #0]
					for(i = 0; i < 4 && parser->pos < len && js[parser->pos] != '\0'; i++) {
   b8412:	d1e3      	bne.n	b83dc <_ZN21JsonParserGeneratorRK10jsmn_parseEPNS_11jsmn_parserEPKcjPNS_9jsmntok_tEj+0x280>
   b8414:	e7e6      	b.n	b83e4 <_ZN21JsonParserGeneratorRK10jsmn_parseEPNS_11jsmn_parserEPKcjPNS_9jsmntok_tEj+0x288>
	parser->pos = start;
   b8416:	f8c0 e000 	str.w	lr, [r0]
				return JSMN_ERROR_PART;
   b841a:	f06f 0402 	mvn.w	r4, #2
   b841e:	e777      	b.n	b8310 <_ZN21JsonParserGeneratorRK10jsmn_parseEPNS_11jsmn_parserEPKcjPNS_9jsmntok_tEj+0x1b4>
   b8420:	00800013 	.word	0x00800013
				if (tokens != NULL && parser->toksuper != -1 &&
   b8424:	2b00      	cmp	r3, #0
   b8426:	f43f aec2 	beq.w	b81ae <_ZN21JsonParserGeneratorRK10jsmn_parseEPNS_11jsmn_parserEPKcjPNS_9jsmntok_tEj+0x52>
   b842a:	6885      	ldr	r5, [r0, #8]
   b842c:	1c6f      	adds	r7, r5, #1
   b842e:	f43f aebe 	beq.w	b81ae <_ZN21JsonParserGeneratorRK10jsmn_parseEPNS_11jsmn_parserEPKcjPNS_9jsmntok_tEj+0x52>
						tokens[parser->toksuper].type != JSMN_ARRAY &&
   b8432:	012d      	lsls	r5, r5, #4
   b8434:	5d5d      	ldrb	r5, [r3, r5]
   b8436:	3d01      	subs	r5, #1
   b8438:	2d01      	cmp	r5, #1
   b843a:	f67f aeb8 	bls.w	b81ae <_ZN21JsonParserGeneratorRK10jsmn_parseEPNS_11jsmn_parserEPKcjPNS_9jsmntok_tEj+0x52>
					for (i = parser->toknext - 1; i >= 0; i--) {
   b843e:	6845      	ldr	r5, [r0, #4]
   b8440:	f105 38ff 	add.w	r8, r5, #4294967295	; 0xffffffff
   b8444:	eb03 1e05 	add.w	lr, r3, r5, lsl #4
   b8448:	f1b8 0f00 	cmp.w	r8, #0
   b844c:	f6ff aeaf 	blt.w	b81ae <_ZN21JsonParserGeneratorRK10jsmn_parseEPNS_11jsmn_parserEPKcjPNS_9jsmntok_tEj+0x52>
						if (tokens[i].type == JSMN_ARRAY || tokens[i].type == JSMN_OBJECT) {
   b8450:	f81e 5c10 	ldrb.w	r5, [lr, #-16]
   b8454:	3d01      	subs	r5, #1
   b8456:	2d01      	cmp	r5, #1
   b8458:	d80a      	bhi.n	b8470 <_ZN21JsonParserGeneratorRK10jsmn_parseEPNS_11jsmn_parserEPKcjPNS_9jsmntok_tEj+0x314>
							if (tokens[i].start != -1 && tokens[i].end == -1) {
   b845a:	f85e 5c0c 	ldr.w	r5, [lr, #-12]
   b845e:	3501      	adds	r5, #1
   b8460:	d006      	beq.n	b8470 <_ZN21JsonParserGeneratorRK10jsmn_parseEPNS_11jsmn_parserEPKcjPNS_9jsmntok_tEj+0x314>
   b8462:	f85e 5c08 	ldr.w	r5, [lr, #-8]
   b8466:	3501      	adds	r5, #1
   b8468:	d102      	bne.n	b8470 <_ZN21JsonParserGeneratorRK10jsmn_parseEPNS_11jsmn_parserEPKcjPNS_9jsmntok_tEj+0x314>
								parser->toksuper = i;
   b846a:	f8c0 8008 	str.w	r8, [r0, #8]
								break;
   b846e:	e69e      	b.n	b81ae <_ZN21JsonParserGeneratorRK10jsmn_parseEPNS_11jsmn_parserEPKcjPNS_9jsmntok_tEj+0x52>
					for (i = parser->toknext - 1; i >= 0; i--) {
   b8470:	f108 38ff 	add.w	r8, r8, #4294967295	; 0xffffffff
   b8474:	f1ae 0e10 	sub.w	lr, lr, #16
   b8478:	e7e6      	b.n	b8448 <_ZN21JsonParserGeneratorRK10jsmn_parseEPNS_11jsmn_parserEPKcjPNS_9jsmntok_tEj+0x2ec>
   b847a:	f1a5 0920 	sub.w	r9, r5, #32
   b847e:	4f24      	ldr	r7, [pc, #144]	; (b8510 <_ZN21JsonParserGeneratorRK10jsmn_parseEPNS_11jsmn_parserEPKcjPNS_9jsmntok_tEj+0x3b4>)
   b8480:	fa5f f989 	uxtb.w	r9, r9
   b8484:	fa0c f909 	lsl.w	r9, ip, r9
   b8488:	ea19 0f07 	tst.w	r9, r7
   b848c:	f47f aeaa 	bne.w	b81e4 <_ZN21JsonParserGeneratorRK10jsmn_parseEPNS_11jsmn_parserEPKcjPNS_9jsmntok_tEj+0x88>
		if (js[parser->pos] < 32 || js[parser->pos] >= 127) {
   b8490:	3d20      	subs	r5, #32
   b8492:	2d5e      	cmp	r5, #94	; 0x5e
   b8494:	d89a      	bhi.n	b83cc <_ZN21JsonParserGeneratorRK10jsmn_parseEPNS_11jsmn_parserEPKcjPNS_9jsmntok_tEj+0x270>
	for (; parser->pos < len && js[parser->pos] != '\0'; parser->pos++) {
   b8496:	f108 0501 	add.w	r5, r8, #1
   b849a:	6005      	str	r5, [r0, #0]
   b849c:	e68f      	b.n	b81be <_ZN21JsonParserGeneratorRK10jsmn_parseEPNS_11jsmn_parserEPKcjPNS_9jsmntok_tEj+0x62>
		switch (js[parser->pos]) {
   b849e:	2d0d      	cmp	r5, #13
   b84a0:	d1f6      	bne.n	b8490 <_ZN21JsonParserGeneratorRK10jsmn_parseEPNS_11jsmn_parserEPKcjPNS_9jsmntok_tEj+0x334>
   b84a2:	e69f      	b.n	b81e4 <_ZN21JsonParserGeneratorRK10jsmn_parseEPNS_11jsmn_parserEPKcjPNS_9jsmntok_tEj+0x88>
   b84a4:	f005 09df 	and.w	r9, r5, #223	; 0xdf
   b84a8:	f1b9 0f5d 	cmp.w	r9, #93	; 0x5d
   b84ac:	e7f8      	b.n	b84a0 <_ZN21JsonParserGeneratorRK10jsmn_parseEPNS_11jsmn_parserEPKcjPNS_9jsmntok_tEj+0x344>
	if (parser->toknext >= num_tokens) {
   b84ae:	6845      	ldr	r5, [r0, #4]
   b84b0:	9f09      	ldr	r7, [sp, #36]	; 0x24
   b84b2:	42af      	cmp	r7, r5
   b84b4:	f67f af28 	bls.w	b8308 <_ZN21JsonParserGeneratorRK10jsmn_parseEPNS_11jsmn_parserEPKcjPNS_9jsmntok_tEj+0x1ac>
	tok = &tokens[parser->toknext++];
   b84b8:	f105 0801 	add.w	r8, r5, #1
   b84bc:	ea4f 1905 	mov.w	r9, r5, lsl #4
   b84c0:	eb03 1505 	add.w	r5, r3, r5, lsl #4
   b84c4:	f8c0 8004 	str.w	r8, [r0, #4]
	tok->start = tok->end = -1;
   b84c8:	e9c5 6601 	strd	r6, r6, [r5, #4]
	tok->size = 0;
   b84cc:	2700      	movs	r7, #0
   b84ce:	60ef      	str	r7, [r5, #12]
	jsmn_fill_token(token, JSMN_PRIMITIVE, start, parser->pos);
   b84d0:	f8d0 8000 	ldr.w	r8, [r0]
	token->type = type;
   b84d4:	f04f 0a04 	mov.w	sl, #4
   b84d8:	f803 a009 	strb.w	sl, [r3, r9]
	token->end = end;
   b84dc:	e9c5 e801 	strd	lr, r8, [r5, #4]
	parser->pos--;
   b84e0:	6805      	ldr	r5, [r0, #0]
   b84e2:	3d01      	subs	r5, #1
   b84e4:	e683      	b.n	b81ee <_ZN21JsonParserGeneratorRK10jsmn_parseEPNS_11jsmn_parserEPKcjPNS_9jsmntok_tEj+0x92>
	if (tokens != NULL) {
   b84e6:	2b00      	cmp	r3, #0
   b84e8:	f43f af12 	beq.w	b8310 <_ZN21JsonParserGeneratorRK10jsmn_parseEPNS_11jsmn_parserEPKcjPNS_9jsmntok_tEj+0x1b4>
		for (i = parser->toknext - 1; i >= 0; i--) {
   b84ec:	6842      	ldr	r2, [r0, #4]
   b84ee:	1e51      	subs	r1, r2, #1
   b84f0:	eb03 1302 	add.w	r3, r3, r2, lsl #4
   b84f4:	2900      	cmp	r1, #0
   b84f6:	f6ff af0b 	blt.w	b8310 <_ZN21JsonParserGeneratorRK10jsmn_parseEPNS_11jsmn_parserEPKcjPNS_9jsmntok_tEj+0x1b4>
			if (tokens[i].start != -1 && tokens[i].end == -1) {
   b84fa:	f853 2c0c 	ldr.w	r2, [r3, #-12]
   b84fe:	3201      	adds	r2, #1
   b8500:	d003      	beq.n	b850a <_ZN21JsonParserGeneratorRK10jsmn_parseEPNS_11jsmn_parserEPKcjPNS_9jsmntok_tEj+0x3ae>
   b8502:	f853 2c08 	ldr.w	r2, [r3, #-8]
   b8506:	3201      	adds	r2, #1
   b8508:	d087      	beq.n	b841a <_ZN21JsonParserGeneratorRK10jsmn_parseEPNS_11jsmn_parserEPKcjPNS_9jsmntok_tEj+0x2be>
		for (i = parser->toknext - 1; i >= 0; i--) {
   b850a:	3901      	subs	r1, #1
   b850c:	3b10      	subs	r3, #16
   b850e:	e7f1      	b.n	b84f4 <_ZN21JsonParserGeneratorRK10jsmn_parseEPNS_11jsmn_parserEPKcjPNS_9jsmntok_tEj+0x398>
   b8510:	04001001 	.word	0x04001001

000b8514 <_ZN10JsonParser5parseEv>:
bool JsonParser::parse() {
   b8514:	b5f7      	push	{r0, r1, r2, r4, r5, r6, r7, lr}
	if (offset == 0) {
   b8516:	68c2      	ldr	r2, [r0, #12]
bool JsonParser::parse() {
   b8518:	4604      	mov	r4, r0
	if (offset == 0) {
   b851a:	b912      	cbnz	r2, b8522 <_ZN10JsonParser5parseEv+0xe>
		return false;
   b851c:	2000      	movs	r0, #0
}
   b851e:	b003      	add	sp, #12
   b8520:	bdf0      	pop	{r4, r5, r6, r7, pc}
	if (tokens) {
   b8522:	6943      	ldr	r3, [r0, #20]
		JsonParserGeneratorRK::jsmn_init(&parser);
   b8524:	f100 0620 	add.w	r6, r0, #32
	if (tokens) {
   b8528:	b1ab      	cbz	r3, b8556 <_ZN10JsonParser5parseEv+0x42>
/**
 * Creates a new parser based over a given  buffer with an array of tokens
 * available.
 */
void jsmn_init(jsmn_parser *parser) {
	parser->pos = 0;
   b852a:	2100      	movs	r1, #0
	parser->toknext = 0;
   b852c:	e9c0 1108 	strd	r1, r1, [r0, #32]
	parser->toksuper = -1;
   b8530:	f04f 31ff 	mov.w	r1, #4294967295	; 0xffffffff
   b8534:	6281      	str	r1, [r0, #40]	; 0x28
		int result = JsonParserGeneratorRK::jsmn_parse(&parser, buffer, offset, tokens, maxTokens);
   b8536:	69c1      	ldr	r1, [r0, #28]
   b8538:	9100      	str	r1, [sp, #0]
   b853a:	6841      	ldr	r1, [r0, #4]
   b853c:	4630      	mov	r0, r6
   b853e:	f7ff fe0d 	bl	b815c <_ZN21JsonParserGeneratorRK10jsmn_parseEPNS_11jsmn_parserEPKcjPNS_9jsmntok_tEj>
		if (result == JsonParserGeneratorRK::JSMN_ERROR_NOMEM) {
   b8542:	1c43      	adds	r3, r0, #1
   b8544:	d128      	bne.n	b8598 <_ZN10JsonParser5parseEv+0x84>
			if (staticBuffers) {
   b8546:	7c25      	ldrb	r5, [r4, #16]
   b8548:	2d00      	cmp	r5, #0
   b854a:	d1e7      	bne.n	b851c <_ZN10JsonParser5parseEv+0x8>
			free(tokens);
   b854c:	6960      	ldr	r0, [r4, #20]
   b854e:	f000 faad 	bl	b8aac <free>
			tokens = 0;
   b8552:	6165      	str	r5, [r4, #20]
			maxTokens = 0;
   b8554:	61e5      	str	r5, [r4, #28]
	parser->pos = 0;
   b8556:	2500      	movs	r5, #0
	parser->toksuper = -1;
   b8558:	f04f 37ff 	mov.w	r7, #4294967295	; 0xffffffff
	parser->toknext = 0;
   b855c:	e9c4 5508 	strd	r5, r5, [r4, #32]
	int result = JsonParserGeneratorRK::jsmn_parse(&parser, buffer, offset, 0, 0);
   b8560:	68e2      	ldr	r2, [r4, #12]
   b8562:	6861      	ldr	r1, [r4, #4]
	parser->toksuper = -1;
   b8564:	62a7      	str	r7, [r4, #40]	; 0x28
	int result = JsonParserGeneratorRK::jsmn_parse(&parser, buffer, offset, 0, 0);
   b8566:	9500      	str	r5, [sp, #0]
   b8568:	462b      	mov	r3, r5
   b856a:	4630      	mov	r0, r6
   b856c:	f7ff fdf6 	bl	b815c <_ZN21JsonParserGeneratorRK10jsmn_parseEPNS_11jsmn_parserEPKcjPNS_9jsmntok_tEj>
	if (result < 0) {
   b8570:	2800      	cmp	r0, #0
   b8572:	dbd3      	blt.n	b851c <_ZN10JsonParser5parseEv+0x8>
	maxTokens = (size_t) result;
   b8574:	61e0      	str	r0, [r4, #28]
	if (maxTokens > 0) {
   b8576:	d017      	beq.n	b85a8 <_ZN10JsonParser5parseEv+0x94>
		tokens = (JsonParserGeneratorRK::jsmntok_t *)malloc(sizeof(JsonParserGeneratorRK::jsmntok_t) * maxTokens);
   b8578:	0100      	lsls	r0, r0, #4
   b857a:	f000 fa8f 	bl	b8a9c <malloc>
		int result = JsonParserGeneratorRK::jsmn_parse(&parser, buffer, offset, tokens, maxTokens);
   b857e:	69e2      	ldr	r2, [r4, #28]
		tokens = (JsonParserGeneratorRK::jsmntok_t *)malloc(sizeof(JsonParserGeneratorRK::jsmntok_t) * maxTokens);
   b8580:	6160      	str	r0, [r4, #20]
   b8582:	4603      	mov	r3, r0
		int result = JsonParserGeneratorRK::jsmn_parse(&parser, buffer, offset, tokens, maxTokens);
   b8584:	9200      	str	r2, [sp, #0]
	parser->toknext = 0;
   b8586:	e9c4 5508 	strd	r5, r5, [r4, #32]
		int result = JsonParserGeneratorRK::jsmn_parse(&parser, buffer, offset, tokens, maxTokens);
   b858a:	68e2      	ldr	r2, [r4, #12]
   b858c:	6861      	ldr	r1, [r4, #4]
	parser->toksuper = -1;
   b858e:	62a7      	str	r7, [r4, #40]	; 0x28
		int result = JsonParserGeneratorRK::jsmn_parse(&parser, buffer, offset, tokens, maxTokens);
   b8590:	4630      	mov	r0, r6
   b8592:	f7ff fde3 	bl	b815c <_ZN21JsonParserGeneratorRK10jsmn_parseEPNS_11jsmn_parserEPKcjPNS_9jsmntok_tEj>
   b8596:	e001      	b.n	b859c <_ZN10JsonParser5parseEv+0x88>
		if (result < 0) {
   b8598:	2800      	cmp	r0, #0
   b859a:	dbbf      	blt.n	b851c <_ZN10JsonParser5parseEv+0x8>
		tokensEnd = &tokens[result];
   b859c:	6963      	ldr	r3, [r4, #20]
   b859e:	eb03 1000 	add.w	r0, r3, r0, lsl #4
   b85a2:	61a0      	str	r0, [r4, #24]
	return true;
   b85a4:	2001      	movs	r0, #1
   b85a6:	e7ba      	b.n	b851e <_ZN10JsonParser5parseEv+0xa>
		tokensEnd = tokens;
   b85a8:	6963      	ldr	r3, [r4, #20]
   b85aa:	61a3      	str	r3, [r4, #24]
   b85ac:	e7fa      	b.n	b85a4 <_ZN10JsonParser5parseEv+0x90>
	...

000b85b0 <hal_ble_stack_init>:

DYNALIB_BEGIN(hal_ble)

DYNALIB_FN(0, hal_ble, hal_ble_lock, int(void*))
DYNALIB_FN(1, hal_ble, hal_ble_unlock, int(void*))
DYNALIB_FN(2, hal_ble, hal_ble_stack_init, int(void*))
   b85b0:	b508      	push	{r3, lr}
   b85b2:	4b02      	ldr	r3, [pc, #8]	; (b85bc <hal_ble_stack_init+0xc>)
   b85b4:	681b      	ldr	r3, [r3, #0]
   b85b6:	689b      	ldr	r3, [r3, #8]
   b85b8:	9301      	str	r3, [sp, #4]
   b85ba:	bd08      	pop	{r3, pc}
   b85bc:	00030278 	.word	0x00030278

000b85c0 <hal_ble_gap_set_advertising_data>:
DYNALIB_FN(15, hal_ble, hal_ble_gap_delete_whitelist, int(void*))
DYNALIB_FN(16, hal_ble, hal_ble_gap_set_tx_power, int(int8_t, void*))
DYNALIB_FN(17, hal_ble, hal_ble_gap_get_tx_power, int(int8_t*, void*))
DYNALIB_FN(18, hal_ble, hal_ble_gap_set_advertising_parameters, int(const hal_ble_adv_params_t*, void*))
DYNALIB_FN(19, hal_ble, hal_ble_gap_get_advertising_parameters, int(hal_ble_adv_params_t*, void*))
DYNALIB_FN(20, hal_ble, hal_ble_gap_set_advertising_data, int(const uint8_t*, size_t, void*))
   b85c0:	b508      	push	{r3, lr}
   b85c2:	4b02      	ldr	r3, [pc, #8]	; (b85cc <hal_ble_gap_set_advertising_data+0xc>)
   b85c4:	681b      	ldr	r3, [r3, #0]
   b85c6:	6d1b      	ldr	r3, [r3, #80]	; 0x50
   b85c8:	9301      	str	r3, [sp, #4]
   b85ca:	bd08      	pop	{r3, pc}
   b85cc:	00030278 	.word	0x00030278

000b85d0 <hal_ble_gap_set_scan_response_data>:
DYNALIB_FN(21, hal_ble, hal_ble_gap_get_advertising_data, ssize_t(uint8_t*, size_t, void*))
DYNALIB_FN(22, hal_ble, hal_ble_gap_set_scan_response_data, int(const uint8_t*, size_t, void*))
   b85d0:	b508      	push	{r3, lr}
   b85d2:	4b02      	ldr	r3, [pc, #8]	; (b85dc <hal_ble_gap_set_scan_response_data+0xc>)
   b85d4:	681b      	ldr	r3, [r3, #0]
   b85d6:	6d9b      	ldr	r3, [r3, #88]	; 0x58
   b85d8:	9301      	str	r3, [sp, #4]
   b85da:	bd08      	pop	{r3, pc}
   b85dc:	00030278 	.word	0x00030278

000b85e0 <hal_ble_gap_start_advertising>:
DYNALIB_FN(23, hal_ble, hal_ble_gap_get_scan_response_data, ssize_t(uint8_t*, size_t, void*))
DYNALIB_FN(24, hal_ble, hal_ble_gap_start_advertising, int(void*))
   b85e0:	b508      	push	{r3, lr}
   b85e2:	4b02      	ldr	r3, [pc, #8]	; (b85ec <hal_ble_gap_start_advertising+0xc>)
   b85e4:	681b      	ldr	r3, [r3, #0]
   b85e6:	6e1b      	ldr	r3, [r3, #96]	; 0x60
   b85e8:	9301      	str	r3, [sp, #4]
   b85ea:	bd08      	pop	{r3, pc}
   b85ec:	00030278 	.word	0x00030278

000b85f0 <hal_ble_gap_disconnect>:
DYNALIB_FN(33, hal_ble, hal_ble_gap_stop_scan, int(void*))
DYNALIB_FN(34, hal_ble, hal_ble_gap_connect_deprecated, int(const hal_ble_addr_t*, void*))
DYNALIB_FN(35, hal_ble, hal_ble_gap_is_connecting, bool(const hal_ble_addr_t*, void*))
DYNALIB_FN(36, hal_ble, hal_ble_gap_is_connected, bool(const hal_ble_addr_t*, void*))
DYNALIB_FN(37, hal_ble, hal_ble_gap_connect_cancel, int(const hal_ble_addr_t*, void*))
DYNALIB_FN(38, hal_ble, hal_ble_gap_disconnect, int(hal_ble_conn_handle_t, void*))
   b85f0:	b508      	push	{r3, lr}
   b85f2:	4b03      	ldr	r3, [pc, #12]	; (b8600 <hal_ble_gap_disconnect+0x10>)
   b85f4:	681b      	ldr	r3, [r3, #0]
   b85f6:	f8d3 3098 	ldr.w	r3, [r3, #152]	; 0x98
   b85fa:	9301      	str	r3, [sp, #4]
   b85fc:	bd08      	pop	{r3, pc}
   b85fe:	0000      	.short	0x0000
   b8600:	00030278 	.word	0x00030278

000b8604 <hal_ble_gatt_server_add_service>:
DYNALIB_FN(39, hal_ble, hal_ble_gap_update_connection_params, int(hal_ble_conn_handle_t, const hal_ble_conn_params_t*, void*))
DYNALIB_FN(40, hal_ble, hal_ble_gap_get_connection_params_deprecated, int(hal_ble_conn_handle_t, hal_ble_conn_params_t*, void*))
DYNALIB_FN(41, hal_ble, hal_ble_gap_get_rssi, int(hal_ble_conn_handle_t, void*))
DYNALIB_FN(42, hal_ble, hal_ble_gatt_server_add_service, int(uint8_t, const hal_ble_uuid_t*, hal_ble_attr_handle_t*, void*))
   b8604:	b508      	push	{r3, lr}
   b8606:	4b03      	ldr	r3, [pc, #12]	; (b8614 <hal_ble_gatt_server_add_service+0x10>)
   b8608:	681b      	ldr	r3, [r3, #0]
   b860a:	f8d3 30a8 	ldr.w	r3, [r3, #168]	; 0xa8
   b860e:	9301      	str	r3, [sp, #4]
   b8610:	bd08      	pop	{r3, pc}
   b8612:	0000      	.short	0x0000
   b8614:	00030278 	.word	0x00030278

000b8618 <hal_ble_gatt_server_set_characteristic_value>:
DYNALIB_FN(43, hal_ble, hal_ble_gatt_server_add_characteristic_deprecated, int(const hal_ble_char_init_deprecated_t*, hal_ble_char_handles_t*, void*))
DYNALIB_FN(44, hal_ble, hal_ble_gatt_server_add_descriptor, int(const hal_ble_desc_init_t*, hal_ble_attr_handle_t*, void*))
DYNALIB_FN(45, hal_ble, hal_ble_gatt_server_set_characteristic_value, ssize_t(hal_ble_attr_handle_t, const uint8_t*, size_t, void*))
   b8618:	b508      	push	{r3, lr}
   b861a:	4b03      	ldr	r3, [pc, #12]	; (b8628 <hal_ble_gatt_server_set_characteristic_value+0x10>)
   b861c:	681b      	ldr	r3, [r3, #0]
   b861e:	f8d3 30b4 	ldr.w	r3, [r3, #180]	; 0xb4
   b8622:	9301      	str	r3, [sp, #4]
   b8624:	bd08      	pop	{r3, pc}
   b8626:	0000      	.short	0x0000
   b8628:	00030278 	.word	0x00030278

000b862c <hal_ble_gatt_client_write_with_response>:
DYNALIB_FN(49, hal_ble, hal_ble_gatt_client_discover_characteristics, int(hal_ble_conn_handle_t, const hal_ble_svc_t*, hal_ble_on_disc_char_cb_t, void*, void*))
DYNALIB_FN(50, hal_ble, hal_ble_gatt_client_discover_characteristics_by_uuid, int(hal_ble_conn_handle_t, const hal_ble_svc_t*, const hal_ble_uuid_t*, hal_ble_on_disc_char_cb_t, void*, void*))
DYNALIB_FN(51, hal_ble, hal_ble_gatt_client_is_discovering, bool(hal_ble_conn_handle_t, void*))
DYNALIB_FN(52, hal_ble, hal_ble_gatt_server_set_desired_att_mtu, int(size_t, void*))
DYNALIB_FN(53, hal_ble, hal_ble_gatt_client_configure_cccd_deprecated, int(hal_ble_conn_handle_t, hal_ble_attr_handle_t, ble_sig_cccd_value_t, void*))
DYNALIB_FN(54, hal_ble, hal_ble_gatt_client_write_with_response, ssize_t(hal_ble_conn_handle_t, hal_ble_attr_handle_t, const uint8_t*, size_t, void*))
   b862c:	b508      	push	{r3, lr}
   b862e:	4b03      	ldr	r3, [pc, #12]	; (b863c <hal_ble_gatt_client_write_with_response+0x10>)
   b8630:	681b      	ldr	r3, [r3, #0]
   b8632:	f8d3 30d8 	ldr.w	r3, [r3, #216]	; 0xd8
   b8636:	9301      	str	r3, [sp, #4]
   b8638:	bd08      	pop	{r3, pc}
   b863a:	0000      	.short	0x0000
   b863c:	00030278 	.word	0x00030278

000b8640 <hal_ble_gatt_client_write_without_response>:
DYNALIB_FN(55, hal_ble, hal_ble_gatt_client_write_without_response, ssize_t(hal_ble_conn_handle_t, hal_ble_attr_handle_t, const uint8_t*, size_t, void*))
   b8640:	b508      	push	{r3, lr}
   b8642:	4b03      	ldr	r3, [pc, #12]	; (b8650 <hal_ble_gatt_client_write_without_response+0x10>)
   b8644:	681b      	ldr	r3, [r3, #0]
   b8646:	f8d3 30dc 	ldr.w	r3, [r3, #220]	; 0xdc
   b864a:	9301      	str	r3, [sp, #4]
   b864c:	bd08      	pop	{r3, pc}
   b864e:	0000      	.short	0x0000
   b8650:	00030278 	.word	0x00030278

000b8654 <hal_ble_gatt_server_add_characteristic>:
DYNALIB_FN(56, hal_ble, hal_ble_gatt_client_read, ssize_t(hal_ble_conn_handle_t, hal_ble_attr_handle_t, uint8_t*, size_t, void*))

DYNALIB_FN(57, hal_ble, hal_ble_gap_connect, int(const hal_ble_conn_cfg_t*, hal_ble_conn_handle_t*, void*))
DYNALIB_FN(58, hal_ble, hal_ble_gap_get_connection_info, int(hal_ble_conn_handle_t, hal_ble_conn_info_t*, void*))
DYNALIB_FN(59, hal_ble, hal_ble_gatt_server_add_characteristic, int(const hal_ble_char_init_t*, hal_ble_char_handles_t*, void*))
   b8654:	b508      	push	{r3, lr}
   b8656:	4b03      	ldr	r3, [pc, #12]	; (b8664 <hal_ble_gatt_server_add_characteristic+0x10>)
   b8658:	681b      	ldr	r3, [r3, #0]
   b865a:	f8d3 30ec 	ldr.w	r3, [r3, #236]	; 0xec
   b865e:	9301      	str	r3, [sp, #4]
   b8660:	bd08      	pop	{r3, pc}
   b8662:	0000      	.short	0x0000
   b8664:	00030278 	.word	0x00030278

000b8668 <hal_ble_set_callback_on_periph_link_events>:
DYNALIB_FN(60, hal_ble, hal_ble_set_callback_on_periph_link_events, int(hal_ble_on_link_evt_cb_t, void*, void*))
   b8668:	b508      	push	{r3, lr}
   b866a:	4b03      	ldr	r3, [pc, #12]	; (b8678 <hal_ble_set_callback_on_periph_link_events+0x10>)
   b866c:	681b      	ldr	r3, [r3, #0]
   b866e:	f8d3 30f0 	ldr.w	r3, [r3, #240]	; 0xf0
   b8672:	9301      	str	r3, [sp, #4]
   b8674:	bd08      	pop	{r3, pc}
   b8676:	0000      	.short	0x0000
   b8678:	00030278 	.word	0x00030278

000b867c <hal_ble_gatt_server_notify_characteristic_value>:
DYNALIB_FN(61, hal_ble, hal_ble_gatt_client_configure_cccd, int(const hal_ble_cccd_config_t*, void*))
DYNALIB_FN(62, hal_ble, hal_ble_set_callback_on_adv_events, int(hal_ble_on_adv_evt_cb_t, void*, void*))
DYNALIB_FN(63, hal_ble, hal_ble_cancel_callback_on_adv_events, int(hal_ble_on_adv_evt_cb_t, void*, void*))
DYNALIB_FN(64, hal_ble, hal_ble_gatt_server_notify_characteristic_value, ssize_t(hal_ble_attr_handle_t, const uint8_t*, size_t, void*))
   b867c:	b508      	push	{r3, lr}
   b867e:	4b03      	ldr	r3, [pc, #12]	; (b868c <hal_ble_gatt_server_notify_characteristic_value+0x10>)
   b8680:	681b      	ldr	r3, [r3, #0]
   b8682:	f8d3 3100 	ldr.w	r3, [r3, #256]	; 0x100
   b8686:	9301      	str	r3, [sp, #4]
   b8688:	bd08      	pop	{r3, pc}
   b868a:	0000      	.short	0x0000
   b868c:	00030278 	.word	0x00030278

000b8690 <hal_ble_gatt_server_indicate_characteristic_value>:
DYNALIB_FN(65, hal_ble, hal_ble_gatt_server_indicate_characteristic_value, ssize_t(hal_ble_attr_handle_t, const uint8_t*, size_t, void*))
   b8690:	b508      	push	{r3, lr}
   b8692:	4b03      	ldr	r3, [pc, #12]	; (b86a0 <hal_ble_gatt_server_indicate_characteristic_value+0x10>)
   b8694:	681b      	ldr	r3, [r3, #0]
   b8696:	f8d3 3104 	ldr.w	r3, [r3, #260]	; 0x104
   b869a:	9301      	str	r3, [sp, #4]
   b869c:	bd08      	pop	{r3, pc}
   b869e:	0000      	.short	0x0000
   b86a0:	00030278 	.word	0x00030278

000b86a4 <os_mutex_recursive_create>:
DYNALIB_FN(13, hal_concurrent, os_mutex_destroy, int(os_mutex_t))
DYNALIB_FN(14, hal_concurrent, os_mutex_lock, int(os_mutex_t))
DYNALIB_FN(15, hal_concurrent, os_mutex_trylock, int(os_mutex_t))
DYNALIB_FN(16, hal_concurrent, os_mutex_unlock, int(os_mutex_t))

DYNALIB_FN(17, hal_concurrent, os_mutex_recursive_create, int(os_mutex_recursive_t*))
   b86a4:	b508      	push	{r3, lr}
   b86a6:	4b02      	ldr	r3, [pc, #8]	; (b86b0 <os_mutex_recursive_create+0xc>)
   b86a8:	681b      	ldr	r3, [r3, #0]
   b86aa:	6c5b      	ldr	r3, [r3, #68]	; 0x44
   b86ac:	9301      	str	r3, [sp, #4]
   b86ae:	bd08      	pop	{r3, pc}
   b86b0:	00030248 	.word	0x00030248

000b86b4 <os_mutex_recursive_lock>:
DYNALIB_FN(18, hal_concurrent, os_mutex_recursive_destroy, int(os_mutex_recursive_t))
DYNALIB_FN(19, hal_concurrent, os_mutex_recursive_lock, int(os_mutex_recursive_t))
   b86b4:	b508      	push	{r3, lr}
   b86b6:	4b02      	ldr	r3, [pc, #8]	; (b86c0 <os_mutex_recursive_lock+0xc>)
   b86b8:	681b      	ldr	r3, [r3, #0]
   b86ba:	6cdb      	ldr	r3, [r3, #76]	; 0x4c
   b86bc:	9301      	str	r3, [sp, #4]
   b86be:	bd08      	pop	{r3, pc}
   b86c0:	00030248 	.word	0x00030248

000b86c4 <os_mutex_recursive_unlock>:
DYNALIB_FN(20, hal_concurrent, os_mutex_recursive_trylock, int(os_mutex_recursive_t))
DYNALIB_FN(21, hal_concurrent, os_mutex_recursive_unlock, int(os_mutex_recursive_t))
   b86c4:	b508      	push	{r3, lr}
   b86c6:	4b02      	ldr	r3, [pc, #8]	; (b86d0 <os_mutex_recursive_unlock+0xc>)
   b86c8:	681b      	ldr	r3, [r3, #0]
   b86ca:	6d5b      	ldr	r3, [r3, #84]	; 0x54
   b86cc:	9301      	str	r3, [sp, #4]
   b86ce:	bd08      	pop	{r3, pc}
   b86d0:	00030248 	.word	0x00030248

000b86d4 <HAL_RNG_GetRandomNumber>:

DYNALIB_BEGIN(hal)

#if PLATFORM_ID > 3
DYNALIB_FN(0, hal, HAL_RNG_Configuration, void(void))
DYNALIB_FN(1, hal, HAL_RNG_GetRandomNumber, uint32_t(void))
   b86d4:	b508      	push	{r3, lr}
   b86d6:	4b02      	ldr	r3, [pc, #8]	; (b86e0 <HAL_RNG_GetRandomNumber+0xc>)
   b86d8:	681b      	ldr	r3, [r3, #0]
   b86da:	685b      	ldr	r3, [r3, #4]
   b86dc:	9301      	str	r3, [sp, #4]
   b86de:	bd08      	pop	{r3, pc}
   b86e0:	00030218 	.word	0x00030218

000b86e4 <HAL_Delay_Microseconds>:
#else
#define BASE_IDX 0
#endif

DYNALIB_FN(BASE_IDX + 0, hal, HAL_Delay_Milliseconds, void(uint32_t))
DYNALIB_FN(BASE_IDX + 1, hal, HAL_Delay_Microseconds, void(uint32_t))
   b86e4:	b508      	push	{r3, lr}
   b86e6:	4b02      	ldr	r3, [pc, #8]	; (b86f0 <HAL_Delay_Microseconds+0xc>)
   b86e8:	681b      	ldr	r3, [r3, #0]
   b86ea:	68db      	ldr	r3, [r3, #12]
   b86ec:	9301      	str	r3, [sp, #4]
   b86ee:	bd08      	pop	{r3, pc}
   b86f0:	00030218 	.word	0x00030218

000b86f4 <HAL_Timer_Get_Milli_Seconds>:
DYNALIB_FN(BASE_IDX + 2, hal, HAL_Timer_Get_Micro_Seconds, system_tick_t(void))
DYNALIB_FN(BASE_IDX + 3, hal, HAL_Timer_Get_Milli_Seconds, system_tick_t(void))
   b86f4:	b508      	push	{r3, lr}
   b86f6:	4b02      	ldr	r3, [pc, #8]	; (b8700 <HAL_Timer_Get_Milli_Seconds+0xc>)
   b86f8:	681b      	ldr	r3, [r3, #0]
   b86fa:	695b      	ldr	r3, [r3, #20]
   b86fc:	9301      	str	r3, [sp, #4]
   b86fe:	bd08      	pop	{r3, pc}
   b8700:	00030218 	.word	0x00030218

000b8704 <hal_i2c_begin>:
#endif

DYNALIB_FN(BASE_IDX + 0, hal_i2c, hal_i2c_set_speed, void(hal_i2c_interface_t, uint32_t, void*))
DYNALIB_FN(BASE_IDX + 1, hal_i2c, hal_i2c_enable_dma_mode, void(hal_i2c_interface_t, bool, void*))
DYNALIB_FN(BASE_IDX + 2, hal_i2c, hal_i2c_stretch_clock, void(hal_i2c_interface_t, bool, void*))
DYNALIB_FN(BASE_IDX + 3, hal_i2c, hal_i2c_begin, void(hal_i2c_interface_t, hal_i2c_mode_t, uint8_t, void*))
   b8704:	b508      	push	{r3, lr}
   b8706:	4b02      	ldr	r3, [pc, #8]	; (b8710 <hal_i2c_begin+0xc>)
   b8708:	681b      	ldr	r3, [r3, #0]
   b870a:	68db      	ldr	r3, [r3, #12]
   b870c:	9301      	str	r3, [sp, #4]
   b870e:	bd08      	pop	{r3, pc}
   b8710:	00030228 	.word	0x00030228

000b8714 <hal_i2c_begin_transmission>:
DYNALIB_FN(BASE_IDX + 4, hal_i2c, hal_i2c_end, void(hal_i2c_interface_t, void*))
DYNALIB_FN(BASE_IDX + 5, hal_i2c, hal_i2c_request, uint32_t(hal_i2c_interface_t, uint8_t, uint8_t, uint8_t, void*))
DYNALIB_FN(BASE_IDX + 6, hal_i2c, hal_i2c_begin_transmission, void(hal_i2c_interface_t, uint8_t, const hal_i2c_transmission_config_t*))
   b8714:	b508      	push	{r3, lr}
   b8716:	4b02      	ldr	r3, [pc, #8]	; (b8720 <hal_i2c_begin_transmission+0xc>)
   b8718:	681b      	ldr	r3, [r3, #0]
   b871a:	699b      	ldr	r3, [r3, #24]
   b871c:	9301      	str	r3, [sp, #4]
   b871e:	bd08      	pop	{r3, pc}
   b8720:	00030228 	.word	0x00030228

000b8724 <hal_i2c_end_transmission>:
DYNALIB_FN(BASE_IDX + 7, hal_i2c, hal_i2c_end_transmission, uint8_t(hal_i2c_interface_t, uint8_t, void*))
   b8724:	b508      	push	{r3, lr}
   b8726:	4b02      	ldr	r3, [pc, #8]	; (b8730 <hal_i2c_end_transmission+0xc>)
   b8728:	681b      	ldr	r3, [r3, #0]
   b872a:	69db      	ldr	r3, [r3, #28]
   b872c:	9301      	str	r3, [sp, #4]
   b872e:	bd08      	pop	{r3, pc}
   b8730:	00030228 	.word	0x00030228

000b8734 <hal_i2c_write>:
DYNALIB_FN(BASE_IDX + 8, hal_i2c, hal_i2c_write, uint32_t(hal_i2c_interface_t, uint8_t, void*))
   b8734:	b508      	push	{r3, lr}
   b8736:	4b02      	ldr	r3, [pc, #8]	; (b8740 <hal_i2c_write+0xc>)
   b8738:	681b      	ldr	r3, [r3, #0]
   b873a:	6a1b      	ldr	r3, [r3, #32]
   b873c:	9301      	str	r3, [sp, #4]
   b873e:	bd08      	pop	{r3, pc}
   b8740:	00030228 	.word	0x00030228

000b8744 <hal_i2c_available>:
DYNALIB_FN(BASE_IDX + 9, hal_i2c, hal_i2c_available, int32_t(hal_i2c_interface_t, void*))
   b8744:	b508      	push	{r3, lr}
   b8746:	4b02      	ldr	r3, [pc, #8]	; (b8750 <hal_i2c_available+0xc>)
   b8748:	681b      	ldr	r3, [r3, #0]
   b874a:	6a5b      	ldr	r3, [r3, #36]	; 0x24
   b874c:	9301      	str	r3, [sp, #4]
   b874e:	bd08      	pop	{r3, pc}
   b8750:	00030228 	.word	0x00030228

000b8754 <hal_i2c_read>:
DYNALIB_FN(BASE_IDX + 10, hal_i2c, hal_i2c_read, int32_t(hal_i2c_interface_t, void*))
   b8754:	b508      	push	{r3, lr}
   b8756:	4b02      	ldr	r3, [pc, #8]	; (b8760 <hal_i2c_read+0xc>)
   b8758:	681b      	ldr	r3, [r3, #0]
   b875a:	6a9b      	ldr	r3, [r3, #40]	; 0x28
   b875c:	9301      	str	r3, [sp, #4]
   b875e:	bd08      	pop	{r3, pc}
   b8760:	00030228 	.word	0x00030228

000b8764 <hal_i2c_peek>:
DYNALIB_FN(BASE_IDX + 11, hal_i2c, hal_i2c_peek, int32_t(hal_i2c_interface_t, void*))
   b8764:	b508      	push	{r3, lr}
   b8766:	4b02      	ldr	r3, [pc, #8]	; (b8770 <hal_i2c_peek+0xc>)
   b8768:	681b      	ldr	r3, [r3, #0]
   b876a:	6adb      	ldr	r3, [r3, #44]	; 0x2c
   b876c:	9301      	str	r3, [sp, #4]
   b876e:	bd08      	pop	{r3, pc}
   b8770:	00030228 	.word	0x00030228

000b8774 <hal_i2c_flush>:
DYNALIB_FN(BASE_IDX + 12, hal_i2c, hal_i2c_flush, void(hal_i2c_interface_t, void*))
   b8774:	b508      	push	{r3, lr}
   b8776:	4b02      	ldr	r3, [pc, #8]	; (b8780 <hal_i2c_flush+0xc>)
   b8778:	681b      	ldr	r3, [r3, #0]
   b877a:	6b1b      	ldr	r3, [r3, #48]	; 0x30
   b877c:	9301      	str	r3, [sp, #4]
   b877e:	bd08      	pop	{r3, pc}
   b8780:	00030228 	.word	0x00030228

000b8784 <hal_i2c_init>:
DYNALIB_FN(BASE_IDX + 13, hal_i2c, hal_i2c_is_enabled, bool(hal_i2c_interface_t, void*))
DYNALIB_FN(BASE_IDX + 14, hal_i2c, hal_i2c_set_callback_on_received, void(hal_i2c_interface_t, void(*)(int), void*))
DYNALIB_FN(BASE_IDX + 15, hal_i2c, hal_i2c_set_callback_on_requested, void(hal_i2c_interface_t, void(*)(void), void*))
DYNALIB_FN(BASE_IDX + 16, hal_i2c, hal_i2c_init, int(hal_i2c_interface_t, const hal_i2c_config_t*))
   b8784:	b508      	push	{r3, lr}
   b8786:	4b02      	ldr	r3, [pc, #8]	; (b8790 <hal_i2c_init+0xc>)
   b8788:	681b      	ldr	r3, [r3, #0]
   b878a:	6c1b      	ldr	r3, [r3, #64]	; 0x40
   b878c:	9301      	str	r3, [sp, #4]
   b878e:	bd08      	pop	{r3, pc}
   b8790:	00030228 	.word	0x00030228

000b8794 <hal_i2c_request_ex>:
DYNALIB_FN(BASE_IDX + 17, hal_i2c, hal_i2c_reset, uint8_t(hal_i2c_interface_t, uint32_t, void*))
DYNALIB_FN(BASE_IDX + 18, hal_i2c, hal_i2c_lock, int32_t(hal_i2c_interface_t, void*))
DYNALIB_FN(BASE_IDX + 19, hal_i2c, hal_i2c_unlock, int32_t(hal_i2c_interface_t, void*))
DYNALIB_FN(BASE_IDX + 20, hal_i2c, hal_i2c_request_ex, int32_t(hal_i2c_interface_t, const hal_i2c_transmission_config_t*, void*))
   b8794:	b508      	push	{r3, lr}
   b8796:	4b02      	ldr	r3, [pc, #8]	; (b87a0 <hal_i2c_request_ex+0xc>)
   b8798:	681b      	ldr	r3, [r3, #0]
   b879a:	6d1b      	ldr	r3, [r3, #80]	; 0x50
   b879c:	9301      	str	r3, [sp, #4]
   b879e:	bd08      	pop	{r3, pc}
   b87a0:	00030228 	.word	0x00030228

000b87a4 <if_index_to_name>:
DYNALIB_FN(0, hal_ifapi, if_get_list, int(struct if_list**))
DYNALIB_FN(1, hal_ifapi, if_free_list, int(struct if_list*))
DYNALIB_FN(2, hal_ifapi, if_get_name_index, int(struct if_nameindex**))
DYNALIB_FN(3, hal_ifapi, if_free_name_index, int(struct if_nameindex*))
DYNALIB_FN(4, hal_ifapi, if_name_to_index, int(const char*, uint8_t*))
DYNALIB_FN(5, hal_ifapi, if_index_to_name, int(uint8_t, char*))
   b87a4:	b508      	push	{r3, lr}
   b87a6:	4b02      	ldr	r3, [pc, #8]	; (b87b0 <if_index_to_name+0xc>)
   b87a8:	681b      	ldr	r3, [r3, #0]
   b87aa:	695b      	ldr	r3, [r3, #20]
   b87ac:	9301      	str	r3, [sp, #4]
   b87ae:	bd08      	pop	{r3, pc}
   b87b0:	0003026c 	.word	0x0003026c

000b87b4 <inet_inet_ntop>:
DYNALIB_FN(0, hal_inet, inet_inet_addr, in_addr_t(const char*))
DYNALIB_FN(1, hal_inet, inet_inet_aton, int(const char*, struct in_addr*))
DYNALIB_FN(2, hal_inet, inet_inet_network, in_addr_t(const char*))
DYNALIB_FN(3, hal_inet, inet_inet_ntoa, char*(struct in_addr))
DYNALIB_FN(4, hal_inet, inet_inet_ntoa_r, char*(struct in_addr, char*, socklen_t))
DYNALIB_FN(5, hal_inet, inet_inet_ntop, const char*(int, const void*, char*, socklen_t))
   b87b4:	b508      	push	{r3, lr}
   b87b6:	4b02      	ldr	r3, [pc, #8]	; (b87c0 <inet_inet_ntop+0xc>)
   b87b8:	681b      	ldr	r3, [r3, #0]
   b87ba:	695b      	ldr	r3, [r3, #20]
   b87bc:	9301      	str	r3, [sp, #4]
   b87be:	bd08      	pop	{r3, pc}
   b87c0:	00030264 	.word	0x00030264

000b87c4 <inet_htonl>:
DYNALIB_FN(6, hal_inet, inet_inet_pton, int(int, const char*, void*))
DYNALIB_FN(7, hal_inet, inet_ntohl, uint32_t(uint32_t))
DYNALIB_FN(8, hal_inet, inet_htonl, uint32_t(uint32_t))
   b87c4:	b508      	push	{r3, lr}
   b87c6:	4b02      	ldr	r3, [pc, #8]	; (b87d0 <inet_htonl+0xc>)
   b87c8:	681b      	ldr	r3, [r3, #0]
   b87ca:	6a1b      	ldr	r3, [r3, #32]
   b87cc:	9301      	str	r3, [sp, #4]
   b87ce:	bd08      	pop	{r3, pc}
   b87d0:	00030264 	.word	0x00030264

000b87d4 <inet_htons>:
DYNALIB_FN(9, hal_inet, inet_ntohs, uint16_t(uint16_t))
DYNALIB_FN(10, hal_inet, inet_htons, uint16_t(uint16_t))
   b87d4:	b508      	push	{r3, lr}
   b87d6:	4b02      	ldr	r3, [pc, #8]	; (b87e0 <inet_htons+0xc>)
   b87d8:	681b      	ldr	r3, [r3, #0]
   b87da:	6a9b      	ldr	r3, [r3, #40]	; 0x28
   b87dc:	9301      	str	r3, [sp, #4]
   b87de:	bd08      	pop	{r3, pc}
   b87e0:	00030264 	.word	0x00030264

000b87e4 <netdb_freeaddrinfo>:

DYNALIB_BEGIN(hal_netdb)

DYNALIB_FN(0, hal_netdb, netdb_gethostbyname, struct hostent*(const char*))
DYNALIB_FN(1, hal_netdb, netdb_gethostbyname_r, int(const char*, struct hostent*, char*, size_t, struct hostent**, int*))
DYNALIB_FN(2, hal_netdb, netdb_freeaddrinfo, void(struct addrinfo*))
   b87e4:	b508      	push	{r3, lr}
   b87e6:	4b02      	ldr	r3, [pc, #8]	; (b87f0 <netdb_freeaddrinfo+0xc>)
   b87e8:	681b      	ldr	r3, [r3, #0]
   b87ea:	689b      	ldr	r3, [r3, #8]
   b87ec:	9301      	str	r3, [sp, #4]
   b87ee:	bd08      	pop	{r3, pc}
   b87f0:	00030268 	.word	0x00030268

000b87f4 <netdb_getaddrinfo>:
DYNALIB_FN(3, hal_netdb, netdb_getaddrinfo, int(const char*, const char*, const struct addrinfo*, struct addrinfo**))
   b87f4:	b508      	push	{r3, lr}
   b87f6:	4b02      	ldr	r3, [pc, #8]	; (b8800 <netdb_getaddrinfo+0xc>)
   b87f8:	681b      	ldr	r3, [r3, #0]
   b87fa:	68db      	ldr	r3, [r3, #12]
   b87fc:	9301      	str	r3, [sp, #4]
   b87fe:	bd08      	pop	{r3, pc}
   b8800:	00030268 	.word	0x00030268

000b8804 <sock_setsockopt>:
DYNALIB_FN(1, hal_socket, sock_bind, int(int, const struct sockaddr*, socklen_t))
DYNALIB_FN(2, hal_socket, sock_shutdown, int(int, int))
DYNALIB_FN(3, hal_socket, sock_getpeername, int(int, struct sockaddr*, socklen_t*))
DYNALIB_FN(4, hal_socket, sock_getsockname, int(int, struct sockaddr*, socklen_t*))
DYNALIB_FN(5, hal_socket, sock_getsockopt, int(int, int, int, void*, socklen_t*))
DYNALIB_FN(6, hal_socket, sock_setsockopt, int(int, int, int, const void*, socklen_t))
   b8804:	b508      	push	{r3, lr}
   b8806:	4b02      	ldr	r3, [pc, #8]	; (b8810 <sock_setsockopt+0xc>)
   b8808:	681b      	ldr	r3, [r3, #0]
   b880a:	699b      	ldr	r3, [r3, #24]
   b880c:	9301      	str	r3, [sp, #4]
   b880e:	bd08      	pop	{r3, pc}
   b8810:	00030238 	.word	0x00030238

000b8814 <sock_close>:
DYNALIB_FN(7, hal_socket, sock_close, int(int))
   b8814:	b508      	push	{r3, lr}
   b8816:	4b02      	ldr	r3, [pc, #8]	; (b8820 <sock_close+0xc>)
   b8818:	681b      	ldr	r3, [r3, #0]
   b881a:	69db      	ldr	r3, [r3, #28]
   b881c:	9301      	str	r3, [sp, #4]
   b881e:	bd08      	pop	{r3, pc}
   b8820:	00030238 	.word	0x00030238

000b8824 <sock_connect>:
DYNALIB_FN(8, hal_socket, sock_connect, int(int, const struct sockaddr*, socklen_t))
   b8824:	b508      	push	{r3, lr}
   b8826:	4b02      	ldr	r3, [pc, #8]	; (b8830 <sock_connect+0xc>)
   b8828:	681b      	ldr	r3, [r3, #0]
   b882a:	6a1b      	ldr	r3, [r3, #32]
   b882c:	9301      	str	r3, [sp, #4]
   b882e:	bd08      	pop	{r3, pc}
   b8830:	00030238 	.word	0x00030238

000b8834 <sock_recv>:
DYNALIB_FN(9, hal_socket, sock_listen, int(int, int))
DYNALIB_FN(10, hal_socket, sock_recv, int(int, void*, size_t, int))
   b8834:	b508      	push	{r3, lr}
   b8836:	4b02      	ldr	r3, [pc, #8]	; (b8840 <sock_recv+0xc>)
   b8838:	681b      	ldr	r3, [r3, #0]
   b883a:	6a9b      	ldr	r3, [r3, #40]	; 0x28
   b883c:	9301      	str	r3, [sp, #4]
   b883e:	bd08      	pop	{r3, pc}
   b8840:	00030238 	.word	0x00030238

000b8844 <sock_send>:
DYNALIB_FN(11, hal_socket, sock_recvfrom, int(int, void*, size_t, int, struct sockaddr*, socklen_t*))
DYNALIB_FN(12, hal_socket, sock_send, int(int, const void*, size_t, int))
   b8844:	b508      	push	{r3, lr}
   b8846:	4b02      	ldr	r3, [pc, #8]	; (b8850 <sock_send+0xc>)
   b8848:	681b      	ldr	r3, [r3, #0]
   b884a:	6b1b      	ldr	r3, [r3, #48]	; 0x30
   b884c:	9301      	str	r3, [sp, #4]
   b884e:	bd08      	pop	{r3, pc}
   b8850:	00030238 	.word	0x00030238

000b8854 <sock_socket>:
DYNALIB_FN(13, hal_socket, sock_sendto, int(int, const void*, size_t, int, const struct sockaddr*, socklen_t))
DYNALIB_FN(14, hal_socket, sock_socket, int(int, int, int))
   b8854:	b508      	push	{r3, lr}
   b8856:	4b02      	ldr	r3, [pc, #8]	; (b8860 <sock_socket+0xc>)
   b8858:	681b      	ldr	r3, [r3, #0]
   b885a:	6b9b      	ldr	r3, [r3, #56]	; 0x38
   b885c:	9301      	str	r3, [sp, #4]
   b885e:	bd08      	pop	{r3, pc}
   b8860:	00030238 	.word	0x00030238

000b8864 <hal_usart_write>:
#endif

DYNALIB_FN(BASE_IDX + 0, hal_usart, hal_usart_init, void(hal_usart_interface_t, hal_usart_ring_buffer_t*, hal_usart_ring_buffer_t*))
DYNALIB_FN(BASE_IDX + 1, hal_usart, hal_usart_begin, void(hal_usart_interface_t, uint32_t))
DYNALIB_FN(BASE_IDX + 2, hal_usart, hal_usart_end, void(hal_usart_interface_t))
DYNALIB_FN(BASE_IDX + 3, hal_usart, hal_usart_write, uint32_t(hal_usart_interface_t, uint8_t))
   b8864:	b508      	push	{r3, lr}
   b8866:	4b02      	ldr	r3, [pc, #8]	; (b8870 <hal_usart_write+0xc>)
   b8868:	681b      	ldr	r3, [r3, #0]
   b886a:	68db      	ldr	r3, [r3, #12]
   b886c:	9301      	str	r3, [sp, #4]
   b886e:	bd08      	pop	{r3, pc}
   b8870:	0003023c 	.word	0x0003023c

000b8874 <hal_usart_available>:
DYNALIB_FN(BASE_IDX + 4, hal_usart, hal_usart_available, int32_t(hal_usart_interface_t))
   b8874:	b508      	push	{r3, lr}
   b8876:	4b02      	ldr	r3, [pc, #8]	; (b8880 <hal_usart_available+0xc>)
   b8878:	681b      	ldr	r3, [r3, #0]
   b887a:	691b      	ldr	r3, [r3, #16]
   b887c:	9301      	str	r3, [sp, #4]
   b887e:	bd08      	pop	{r3, pc}
   b8880:	0003023c 	.word	0x0003023c

000b8884 <hal_usart_read>:
DYNALIB_FN(BASE_IDX + 5, hal_usart, hal_usart_read, int32_t(hal_usart_interface_t))
   b8884:	b508      	push	{r3, lr}
   b8886:	4b02      	ldr	r3, [pc, #8]	; (b8890 <hal_usart_read+0xc>)
   b8888:	681b      	ldr	r3, [r3, #0]
   b888a:	695b      	ldr	r3, [r3, #20]
   b888c:	9301      	str	r3, [sp, #4]
   b888e:	bd08      	pop	{r3, pc}
   b8890:	0003023c 	.word	0x0003023c

000b8894 <hal_usart_peek>:
DYNALIB_FN(BASE_IDX + 6, hal_usart, hal_usart_peek, int32_t(hal_usart_interface_t))
   b8894:	b508      	push	{r3, lr}
   b8896:	4b02      	ldr	r3, [pc, #8]	; (b88a0 <hal_usart_peek+0xc>)
   b8898:	681b      	ldr	r3, [r3, #0]
   b889a:	699b      	ldr	r3, [r3, #24]
   b889c:	9301      	str	r3, [sp, #4]
   b889e:	bd08      	pop	{r3, pc}
   b88a0:	0003023c 	.word	0x0003023c

000b88a4 <hal_usart_flush>:
DYNALIB_FN(BASE_IDX + 7, hal_usart, hal_usart_flush, void(hal_usart_interface_t))
   b88a4:	b508      	push	{r3, lr}
   b88a6:	4b02      	ldr	r3, [pc, #8]	; (b88b0 <hal_usart_flush+0xc>)
   b88a8:	681b      	ldr	r3, [r3, #0]
   b88aa:	69db      	ldr	r3, [r3, #28]
   b88ac:	9301      	str	r3, [sp, #4]
   b88ae:	bd08      	pop	{r3, pc}
   b88b0:	0003023c 	.word	0x0003023c

000b88b4 <hal_usart_available_data_for_write>:
DYNALIB_FN(BASE_IDX + 8, hal_usart, hal_usart_is_enabled, bool(hal_usart_interface_t))
DYNALIB_FN(BASE_IDX + 9, hal_usart, hal_usart_half_duplex, void(hal_usart_interface_t, bool))
DYNALIB_FN(BASE_IDX + 10, hal_usart, hal_usart_available_data_for_write, int32_t(hal_usart_interface_t))
   b88b4:	b508      	push	{r3, lr}
   b88b6:	4b02      	ldr	r3, [pc, #8]	; (b88c0 <hal_usart_available_data_for_write+0xc>)
   b88b8:	681b      	ldr	r3, [r3, #0]
   b88ba:	6a9b      	ldr	r3, [r3, #40]	; 0x28
   b88bc:	9301      	str	r3, [sp, #4]
   b88be:	bd08      	pop	{r3, pc}
   b88c0:	0003023c 	.word	0x0003023c

000b88c4 <hal_usart_init_ex>:
DYNALIB_FN(BASE_IDX2 + 0, hal_usart, hal_usart_begin_config, void(hal_usart_interface_t serial, uint32_t baud, uint32_t config, void *ptr))
DYNALIB_FN(BASE_IDX2 + 1, hal_usart, hal_usart_write_nine_bits, uint32_t(hal_usart_interface_t serial, uint16_t data))
DYNALIB_FN(BASE_IDX2 + 2, hal_usart, hal_usart_send_break, void(hal_usart_interface_t, void*))
DYNALIB_FN(BASE_IDX2 + 3, hal_usart, hal_usart_break_detected, uint8_t(hal_usart_interface_t))
DYNALIB_FN(BASE_IDX2 + 4, hal_usart, hal_usart_sleep, int(hal_usart_interface_t serial, bool, void*))
DYNALIB_FN(BASE_IDX2 + 5, hal_usart, hal_usart_init_ex, int(hal_usart_interface_t, const hal_usart_buffer_config_t*, void*))
   b88c4:	b508      	push	{r3, lr}
   b88c6:	4b02      	ldr	r3, [pc, #8]	; (b88d0 <hal_usart_init_ex+0xc>)
   b88c8:	681b      	ldr	r3, [r3, #0]
   b88ca:	6c1b      	ldr	r3, [r3, #64]	; 0x40
   b88cc:	9301      	str	r3, [sp, #4]
   b88ce:	bd08      	pop	{r3, pc}
   b88d0:	0003023c 	.word	0x0003023c

000b88d4 <HAL_USB_USART_Init>:
#endif

DYNALIB_BEGIN(hal_usb)

#ifdef USB_CDC_ENABLE
DYNALIB_FN(0, hal_usb, HAL_USB_USART_Init, void(HAL_USB_USART_Serial, const HAL_USB_USART_Config*))
   b88d4:	b508      	push	{r3, lr}
   b88d6:	4b02      	ldr	r3, [pc, #8]	; (b88e0 <HAL_USB_USART_Init+0xc>)
   b88d8:	681b      	ldr	r3, [r3, #0]
   b88da:	681b      	ldr	r3, [r3, #0]
   b88dc:	9301      	str	r3, [sp, #4]
   b88de:	bd08      	pop	{r3, pc}
   b88e0:	0003024c 	.word	0x0003024c

000b88e4 <HAL_USB_USART_Begin>:
DYNALIB_FN(1, hal_usb, HAL_USB_USART_Begin, void(HAL_USB_USART_Serial, uint32_t, void *))
   b88e4:	b508      	push	{r3, lr}
   b88e6:	4b02      	ldr	r3, [pc, #8]	; (b88f0 <HAL_USB_USART_Begin+0xc>)
   b88e8:	681b      	ldr	r3, [r3, #0]
   b88ea:	685b      	ldr	r3, [r3, #4]
   b88ec:	9301      	str	r3, [sp, #4]
   b88ee:	bd08      	pop	{r3, pc}
   b88f0:	0003024c 	.word	0x0003024c

000b88f4 <HAL_USB_USART_Available_Data>:
DYNALIB_FN(2, hal_usb, HAL_USB_USART_End, void(HAL_USB_USART_Serial))
DYNALIB_FN(3, hal_usb, HAL_USB_USART_Baud_Rate, unsigned int(HAL_USB_USART_Serial))
DYNALIB_FN(4, hal_usb, HAL_USB_USART_Available_Data, int32_t(HAL_USB_USART_Serial))
   b88f4:	b508      	push	{r3, lr}
   b88f6:	4b02      	ldr	r3, [pc, #8]	; (b8900 <HAL_USB_USART_Available_Data+0xc>)
   b88f8:	681b      	ldr	r3, [r3, #0]
   b88fa:	691b      	ldr	r3, [r3, #16]
   b88fc:	9301      	str	r3, [sp, #4]
   b88fe:	bd08      	pop	{r3, pc}
   b8900:	0003024c 	.word	0x0003024c

000b8904 <HAL_USB_USART_Available_Data_For_Write>:
DYNALIB_FN(5, hal_usb, HAL_USB_USART_Available_Data_For_Write, int32_t(HAL_USB_USART_Serial))
   b8904:	b508      	push	{r3, lr}
   b8906:	4b02      	ldr	r3, [pc, #8]	; (b8910 <HAL_USB_USART_Available_Data_For_Write+0xc>)
   b8908:	681b      	ldr	r3, [r3, #0]
   b890a:	695b      	ldr	r3, [r3, #20]
   b890c:	9301      	str	r3, [sp, #4]
   b890e:	bd08      	pop	{r3, pc}
   b8910:	0003024c 	.word	0x0003024c

000b8914 <HAL_USB_USART_Receive_Data>:
DYNALIB_FN(6, hal_usb, HAL_USB_USART_Receive_Data, int32_t(HAL_USB_USART_Serial, uint8_t))
   b8914:	b508      	push	{r3, lr}
   b8916:	4b02      	ldr	r3, [pc, #8]	; (b8920 <HAL_USB_USART_Receive_Data+0xc>)
   b8918:	681b      	ldr	r3, [r3, #0]
   b891a:	699b      	ldr	r3, [r3, #24]
   b891c:	9301      	str	r3, [sp, #4]
   b891e:	bd08      	pop	{r3, pc}
   b8920:	0003024c 	.word	0x0003024c

000b8924 <HAL_USB_USART_Send_Data>:
DYNALIB_FN(7, hal_usb, HAL_USB_USART_Send_Data, int32_t(HAL_USB_USART_Serial, uint8_t))
   b8924:	b508      	push	{r3, lr}
   b8926:	4b02      	ldr	r3, [pc, #8]	; (b8930 <HAL_USB_USART_Send_Data+0xc>)
   b8928:	681b      	ldr	r3, [r3, #0]
   b892a:	69db      	ldr	r3, [r3, #28]
   b892c:	9301      	str	r3, [sp, #4]
   b892e:	bd08      	pop	{r3, pc}
   b8930:	0003024c 	.word	0x0003024c

000b8934 <HAL_USB_USART_Flush_Data>:
DYNALIB_FN(8, hal_usb, HAL_USB_USART_Flush_Data, void(HAL_USB_USART_Serial))
   b8934:	b508      	push	{r3, lr}
   b8936:	4b02      	ldr	r3, [pc, #8]	; (b8940 <HAL_USB_USART_Flush_Data+0xc>)
   b8938:	681b      	ldr	r3, [r3, #0]
   b893a:	6a1b      	ldr	r3, [r3, #32]
   b893c:	9301      	str	r3, [sp, #4]
   b893e:	bd08      	pop	{r3, pc}
   b8940:	0003024c 	.word	0x0003024c

000b8944 <panic_>:
DYNALIB_FN(9, services, LED_Toggle, void(Led_TypeDef))
DYNALIB_FN(10, services, LED_Fade, void(Led_TypeDef))
DYNALIB_FN(11, services, Get_LED_Brightness, uint8_t(void))

DYNALIB_FN(12, services, set_logger_output, void(debug_output_fn, LoggerOutputLevel)) // Deprecated
DYNALIB_FN(13, services, panic_, void(ePanicCode, void*, void(*)(uint32_t)))
   b8944:	b508      	push	{r3, lr}
   b8946:	4b02      	ldr	r3, [pc, #8]	; (b8950 <panic_+0xc>)
   b8948:	681b      	ldr	r3, [r3, #0]
   b894a:	6b5b      	ldr	r3, [r3, #52]	; 0x34
   b894c:	9301      	str	r3, [sp, #4]
   b894e:	bd08      	pop	{r3, pc}
   b8950:	00030260 	.word	0x00030260

000b8954 <log_message>:
DYNALIB_FN(16, services, log_print_, void(int, int, const char*, const char*, const char*, ...)) // Deprecated
DYNALIB_FN(17, services, LED_RGB_SetChangeHandler, void(led_update_handler_fn, void*))
DYNALIB_FN(18, services, log_print_direct_, void(int, void*, const char*, ...)) // Deprecated
DYNALIB_FN(19, services, LED_GetColor, uint32_t(uint32_t, void*))

DYNALIB_FN(20, services, log_message, void(int, const char*, LogAttributes*, void*, const char*, ...))
   b8954:	b508      	push	{r3, lr}
   b8956:	4b02      	ldr	r3, [pc, #8]	; (b8960 <log_message+0xc>)
   b8958:	681b      	ldr	r3, [r3, #0]
   b895a:	6d1b      	ldr	r3, [r3, #80]	; 0x50
   b895c:	9301      	str	r3, [sp, #4]
   b895e:	bd08      	pop	{r3, pc}
   b8960:	00030260 	.word	0x00030260

000b8964 <set_system_mode>:
#endif

DYNALIB_BEGIN(system)

DYNALIB_FN(0, system, system_mode, System_Mode_TypeDef(void))
DYNALIB_FN(1, system, set_system_mode, void(System_Mode_TypeDef))
   b8964:	b508      	push	{r3, lr}
   b8966:	4b02      	ldr	r3, [pc, #8]	; (b8970 <set_system_mode+0xc>)
   b8968:	681b      	ldr	r3, [r3, #0]
   b896a:	685b      	ldr	r3, [r3, #4]
   b896c:	9301      	str	r3, [sp, #4]
   b896e:	bd08      	pop	{r3, pc}
   b8970:	00030220 	.word	0x00030220

000b8974 <system_delay_ms>:

DYNALIB_FN(2, system, set_ymodem_serial_flash_update_handler, void(ymodem_serial_flash_update_handler))
DYNALIB_FN(3, system, system_firmwareUpdate, bool(Stream*, void*))
DYNALIB_FN(4, system, system_fileTransfer, bool(system_file_transfer_t*, void*))

DYNALIB_FN(5, system, system_delay_ms, void(unsigned long, bool))
   b8974:	b508      	push	{r3, lr}
   b8976:	4b02      	ldr	r3, [pc, #8]	; (b8980 <system_delay_ms+0xc>)
   b8978:	681b      	ldr	r3, [r3, #0]
   b897a:	695b      	ldr	r3, [r3, #20]
   b897c:	9301      	str	r3, [sp, #4]
   b897e:	bd08      	pop	{r3, pc}
   b8980:	00030220 	.word	0x00030220

000b8984 <system_ctrl_set_app_request_handler>:
DYNALIB_FN(BASE_IDX + 6, system, led_pattern_period, uint16_t(int, int, void*))
DYNALIB_FN(BASE_IDX + 7, system, system_set_tester_handlers, int(system_tester_handlers_t*, void*))
DYNALIB_FN(BASE_IDX + 8, system, system_format_diag_data, int(const uint16_t*, size_t, unsigned, appender_fn, void*, void*))

// Control requests
DYNALIB_FN(BASE_IDX + 9, system, system_ctrl_set_app_request_handler, int(ctrl_request_handler_fn, void*))
   b8984:	b508      	push	{r3, lr}
   b8986:	4b03      	ldr	r3, [pc, #12]	; (b8994 <system_ctrl_set_app_request_handler+0x10>)
   b8988:	681b      	ldr	r3, [r3, #0]
   b898a:	f8d3 3088 	ldr.w	r3, [r3, #136]	; 0x88
   b898e:	9301      	str	r3, [sp, #4]
   b8990:	bd08      	pop	{r3, pc}
   b8992:	0000      	.short	0x0000
   b8994:	00030220 	.word	0x00030220

000b8998 <system_ctrl_set_result>:
DYNALIB_FN(BASE_IDX + 10, system, system_ctrl_alloc_reply_data, int(ctrl_request*, size_t, void*))
DYNALIB_FN(BASE_IDX + 11, system, system_ctrl_free_request_data, void(ctrl_request*, void*))
DYNALIB_FN(BASE_IDX + 12, system, system_ctrl_set_result, void(ctrl_request*, int, ctrl_completion_handler_fn, void*, void*))
   b8998:	b508      	push	{r3, lr}
   b899a:	4b03      	ldr	r3, [pc, #12]	; (b89a8 <system_ctrl_set_result+0x10>)
   b899c:	681b      	ldr	r3, [r3, #0]
   b899e:	f8d3 3094 	ldr.w	r3, [r3, #148]	; 0x94
   b89a2:	9301      	str	r3, [sp, #4]
   b89a4:	bd08      	pop	{r3, pc}
   b89a6:	0000      	.short	0x0000
   b89a8:	00030220 	.word	0x00030220

000b89ac <spark_set_random_seed_from_cloud_handler>:
DYNALIB_FN(10, system_cloud, spark_unsubscribe, void(void*))
DYNALIB_FN(11, system_cloud, spark_sync_time, bool(void*))
DYNALIB_FN(12, system_cloud, spark_sync_time_pending, bool(void*))
DYNALIB_FN(13, system_cloud, spark_sync_time_last, system_tick_t(time32_t*, time_t*))
DYNALIB_FN(14, system_cloud, spark_set_connection_property, int(unsigned, unsigned, const void*, void*))
DYNALIB_FN(15, system_cloud, spark_set_random_seed_from_cloud_handler, int(void (*handler)(unsigned int), void*))
   b89ac:	b508      	push	{r3, lr}
   b89ae:	4b02      	ldr	r3, [pc, #8]	; (b89b8 <spark_set_random_seed_from_cloud_handler+0xc>)
   b89b0:	681b      	ldr	r3, [r3, #0]
   b89b2:	6bdb      	ldr	r3, [r3, #60]	; 0x3c
   b89b4:	9301      	str	r3, [sp, #4]
   b89b6:	bd08      	pop	{r3, pc}
   b89b8:	00030244 	.word	0x00030244

000b89bc <network_connect>:
#endif

DYNALIB_BEGIN(system_net)

DYNALIB_FN(0, system_net, network_config, const void*(network_handle_t, uint32_t, void*))
DYNALIB_FN(1, system_net, network_connect, void(network_handle_t, uint32_t, uint32_t, void*))
   b89bc:	b508      	push	{r3, lr}
   b89be:	4b02      	ldr	r3, [pc, #8]	; (b89c8 <network_connect+0xc>)
   b89c0:	681b      	ldr	r3, [r3, #0]
   b89c2:	685b      	ldr	r3, [r3, #4]
   b89c4:	9301      	str	r3, [sp, #4]
   b89c6:	bd08      	pop	{r3, pc}
   b89c8:	00030240 	.word	0x00030240

000b89cc <network_connecting>:
DYNALIB_FN(2, system_net, network_connecting, bool(network_handle_t, uint32_t, void*))
   b89cc:	b508      	push	{r3, lr}
   b89ce:	4b02      	ldr	r3, [pc, #8]	; (b89d8 <network_connecting+0xc>)
   b89d0:	681b      	ldr	r3, [r3, #0]
   b89d2:	689b      	ldr	r3, [r3, #8]
   b89d4:	9301      	str	r3, [sp, #4]
   b89d6:	bd08      	pop	{r3, pc}
   b89d8:	00030240 	.word	0x00030240

000b89dc <network_disconnect>:
DYNALIB_FN(3, system_net, network_disconnect, void(network_handle_t, uint32_t, void*))
   b89dc:	b508      	push	{r3, lr}
   b89de:	4b02      	ldr	r3, [pc, #8]	; (b89e8 <network_disconnect+0xc>)
   b89e0:	681b      	ldr	r3, [r3, #0]
   b89e2:	68db      	ldr	r3, [r3, #12]
   b89e4:	9301      	str	r3, [sp, #4]
   b89e6:	bd08      	pop	{r3, pc}
   b89e8:	00030240 	.word	0x00030240

000b89ec <network_ready>:
DYNALIB_FN(4, system_net, network_ready, bool(network_handle_t, uint32_t, void*))
   b89ec:	b508      	push	{r3, lr}
   b89ee:	4b02      	ldr	r3, [pc, #8]	; (b89f8 <network_ready+0xc>)
   b89f0:	681b      	ldr	r3, [r3, #0]
   b89f2:	691b      	ldr	r3, [r3, #16]
   b89f4:	9301      	str	r3, [sp, #4]
   b89f6:	bd08      	pop	{r3, pc}
   b89f8:	00030240 	.word	0x00030240

000b89fc <network_on>:
DYNALIB_FN(5, system_net, network_on, void(network_handle_t, uint32_t, uint32_t, void*))
   b89fc:	b508      	push	{r3, lr}
   b89fe:	4b02      	ldr	r3, [pc, #8]	; (b8a08 <network_on+0xc>)
   b8a00:	681b      	ldr	r3, [r3, #0]
   b8a02:	695b      	ldr	r3, [r3, #20]
   b8a04:	9301      	str	r3, [sp, #4]
   b8a06:	bd08      	pop	{r3, pc}
   b8a08:	00030240 	.word	0x00030240

000b8a0c <network_off>:
DYNALIB_FN(6, system_net, network_off, void(network_handle_t, uint32_t, uint32_t, void*))
   b8a0c:	b508      	push	{r3, lr}
   b8a0e:	4b02      	ldr	r3, [pc, #8]	; (b8a18 <network_off+0xc>)
   b8a10:	681b      	ldr	r3, [r3, #0]
   b8a12:	699b      	ldr	r3, [r3, #24]
   b8a14:	9301      	str	r3, [sp, #4]
   b8a16:	bd08      	pop	{r3, pc}
   b8a18:	00030240 	.word	0x00030240

000b8a1c <network_listen>:
DYNALIB_FN(7, system_net, network_listen, void(network_handle_t, uint32_t, void*))
   b8a1c:	b508      	push	{r3, lr}
   b8a1e:	4b02      	ldr	r3, [pc, #8]	; (b8a28 <network_listen+0xc>)
   b8a20:	681b      	ldr	r3, [r3, #0]
   b8a22:	69db      	ldr	r3, [r3, #28]
   b8a24:	9301      	str	r3, [sp, #4]
   b8a26:	bd08      	pop	{r3, pc}
   b8a28:	00030240 	.word	0x00030240

000b8a2c <network_listening>:
DYNALIB_FN(8, system_net, network_listening, bool(network_handle_t, uint32_t, void*))
   b8a2c:	b508      	push	{r3, lr}
   b8a2e:	4b02      	ldr	r3, [pc, #8]	; (b8a38 <network_listening+0xc>)
   b8a30:	681b      	ldr	r3, [r3, #0]
   b8a32:	6a1b      	ldr	r3, [r3, #32]
   b8a34:	9301      	str	r3, [sp, #4]
   b8a36:	bd08      	pop	{r3, pc}
   b8a38:	00030240 	.word	0x00030240

000b8a3c <network_has_credentials>:
DYNALIB_FN(9, system_net, network_has_credentials, bool(network_handle_t, uint32_t, void*))
   b8a3c:	b508      	push	{r3, lr}
   b8a3e:	4b02      	ldr	r3, [pc, #8]	; (b8a48 <network_has_credentials+0xc>)
   b8a40:	681b      	ldr	r3, [r3, #0]
   b8a42:	6a5b      	ldr	r3, [r3, #36]	; 0x24
   b8a44:	9301      	str	r3, [sp, #4]
   b8a46:	bd08      	pop	{r3, pc}
   b8a48:	00030240 	.word	0x00030240

000b8a4c <network_set_credentials>:
DYNALIB_FN(10, system_net, network_set_credentials, int(network_handle_t, uint32_t, NetworkCredentials*, void*))
   b8a4c:	b508      	push	{r3, lr}
   b8a4e:	4b02      	ldr	r3, [pc, #8]	; (b8a58 <network_set_credentials+0xc>)
   b8a50:	681b      	ldr	r3, [r3, #0]
   b8a52:	6a9b      	ldr	r3, [r3, #40]	; 0x28
   b8a54:	9301      	str	r3, [sp, #4]
   b8a56:	bd08      	pop	{r3, pc}
   b8a58:	00030240 	.word	0x00030240

000b8a5c <network_set_listen_timeout>:
DYNALIB_FN(11, system_net, network_clear_credentials, bool(network_handle_t, uint32_t, NetworkCredentials*, void*))
DYNALIB_FN(12, system_net, network_set_listen_timeout, void(network_handle_t, uint16_t, void*))
   b8a5c:	b508      	push	{r3, lr}
   b8a5e:	4b02      	ldr	r3, [pc, #8]	; (b8a68 <network_set_listen_timeout+0xc>)
   b8a60:	681b      	ldr	r3, [r3, #0]
   b8a62:	6b1b      	ldr	r3, [r3, #48]	; 0x30
   b8a64:	9301      	str	r3, [sp, #4]
   b8a66:	bd08      	pop	{r3, pc}
   b8a68:	00030240 	.word	0x00030240

000b8a6c <network_get_listen_timeout>:
DYNALIB_FN(13, system_net, network_get_listen_timeout, uint16_t(network_handle_t, uint32_t, void*))
   b8a6c:	b508      	push	{r3, lr}
   b8a6e:	4b02      	ldr	r3, [pc, #8]	; (b8a78 <network_get_listen_timeout+0xc>)
   b8a70:	681b      	ldr	r3, [r3, #0]
   b8a72:	6b5b      	ldr	r3, [r3, #52]	; 0x34
   b8a74:	9301      	str	r3, [sp, #4]
   b8a76:	bd08      	pop	{r3, pc}
   b8a78:	00030240 	.word	0x00030240

000b8a7c <network_is_on>:
DYNALIB_FN(14, system_net, network_set_hostname, int(network_handle_t, uint32_t, const char*, void*))
DYNALIB_FN(15, system_net, network_get_hostname, int(network_handle_t, uint32_t, char*, size_t, void*))
DYNALIB_FN(16, system_net, network_is_on, bool(network_handle_t, void*))
   b8a7c:	b508      	push	{r3, lr}
   b8a7e:	4b02      	ldr	r3, [pc, #8]	; (b8a88 <network_is_on+0xc>)
   b8a80:	681b      	ldr	r3, [r3, #0]
   b8a82:	6c1b      	ldr	r3, [r3, #64]	; 0x40
   b8a84:	9301      	str	r3, [sp, #4]
   b8a86:	bd08      	pop	{r3, pc}
   b8a88:	00030240 	.word	0x00030240

000b8a8c <network_is_off>:
DYNALIB_FN(17, system_net, network_is_off, bool(network_handle_t, void*))
   b8a8c:	b508      	push	{r3, lr}
   b8a8e:	4b02      	ldr	r3, [pc, #8]	; (b8a98 <network_is_off+0xc>)
   b8a90:	681b      	ldr	r3, [r3, #0]
   b8a92:	6c5b      	ldr	r3, [r3, #68]	; 0x44
   b8a94:	9301      	str	r3, [sp, #4]
   b8a96:	bd08      	pop	{r3, pc}
   b8a98:	00030240 	.word	0x00030240

000b8a9c <malloc>:
#include "hal_platform.h"
#endif // defined(DYNALIB_EXPORT) || (defined(DYNALIB_IMPORT) && !defined(RT_DYNALIB_NO_DEPENDENCY_BREAKING_IMPORTS))

DYNALIB_BEGIN(rt)

DYNALIB_FN(0, rt, malloc, void*(size_t))
   b8a9c:	b508      	push	{r3, lr}
   b8a9e:	4b02      	ldr	r3, [pc, #8]	; (b8aa8 <malloc+0xc>)
   b8aa0:	681b      	ldr	r3, [r3, #0]
   b8aa2:	681b      	ldr	r3, [r3, #0]
   b8aa4:	9301      	str	r3, [sp, #4]
   b8aa6:	bd08      	pop	{r3, pc}
   b8aa8:	0003021c 	.word	0x0003021c

000b8aac <free>:
DYNALIB_FN(1, rt, free, void(void*))
   b8aac:	b508      	push	{r3, lr}
   b8aae:	4b02      	ldr	r3, [pc, #8]	; (b8ab8 <free+0xc>)
   b8ab0:	681b      	ldr	r3, [r3, #0]
   b8ab2:	685b      	ldr	r3, [r3, #4]
   b8ab4:	9301      	str	r3, [sp, #4]
   b8ab6:	bd08      	pop	{r3, pc}
   b8ab8:	0003021c 	.word	0x0003021c

000b8abc <realloc>:
DYNALIB_FN(2, rt, realloc, void*(void*, size_t))
   b8abc:	b508      	push	{r3, lr}
   b8abe:	4b02      	ldr	r3, [pc, #8]	; (b8ac8 <realloc+0xc>)
   b8ac0:	681b      	ldr	r3, [r3, #0]
   b8ac2:	689b      	ldr	r3, [r3, #8]
   b8ac4:	9301      	str	r3, [sp, #4]
   b8ac6:	bd08      	pop	{r3, pc}
   b8ac8:	0003021c 	.word	0x0003021c

000b8acc <sscanf>:
DYNALIB_FN(3, rt, sprintf, int(char*, const char*, ...))
DYNALIB_FN(4, rt, siprintf, int(char*, const char*, ...))
DYNALIB_FN(5, rt, sscanf, int(const char*, const char*, ...))
   b8acc:	b508      	push	{r3, lr}
   b8ace:	4b02      	ldr	r3, [pc, #8]	; (b8ad8 <sscanf+0xc>)
   b8ad0:	681b      	ldr	r3, [r3, #0]
   b8ad2:	695b      	ldr	r3, [r3, #20]
   b8ad4:	9301      	str	r3, [sp, #4]
   b8ad6:	bd08      	pop	{r3, pc}
   b8ad8:	0003021c 	.word	0x0003021c

000b8adc <vsnprintf>:
DYNALIB_FN(6, rt, siscanf, int(const char*, const char*, ...))
DYNALIB_FN(7, rt, snprintf, int(char*, size_t, const char*, ...))
DYNALIB_FN(8, rt, sniprintf, int(char*, size_t, const char*, ...))
DYNALIB_FN(9, rt, vsnprintf, int(char*, size_t, const char*, va_list))
   b8adc:	b508      	push	{r3, lr}
   b8ade:	4b02      	ldr	r3, [pc, #8]	; (b8ae8 <vsnprintf+0xc>)
   b8ae0:	681b      	ldr	r3, [r3, #0]
   b8ae2:	6a5b      	ldr	r3, [r3, #36]	; 0x24
   b8ae4:	9301      	str	r3, [sp, #4]
   b8ae6:	bd08      	pop	{r3, pc}
   b8ae8:	0003021c 	.word	0x0003021c

000b8aec <abort>:
DYNALIB_FN(10, rt, vsniprintf, int(char*, size_t, const char*, va_list))
DYNALIB_FN(11, rt, abort, void(void))
   b8aec:	b508      	push	{r3, lr}
   b8aee:	4b02      	ldr	r3, [pc, #8]	; (b8af8 <abort+0xc>)
   b8af0:	681b      	ldr	r3, [r3, #0]
   b8af2:	6adb      	ldr	r3, [r3, #44]	; 0x2c
   b8af4:	9301      	str	r3, [sp, #4]
   b8af6:	bd08      	pop	{r3, pc}
   b8af8:	0003021c 	.word	0x0003021c

000b8afc <_malloc_r>:
DYNALIB_FN(12, rt, _malloc_r, void*(struct _reent*, size_t))
   b8afc:	b508      	push	{r3, lr}
   b8afe:	4b02      	ldr	r3, [pc, #8]	; (b8b08 <_malloc_r+0xc>)
   b8b00:	681b      	ldr	r3, [r3, #0]
   b8b02:	6b1b      	ldr	r3, [r3, #48]	; 0x30
   b8b04:	9301      	str	r3, [sp, #4]
   b8b06:	bd08      	pop	{r3, pc}
   b8b08:	0003021c 	.word	0x0003021c

000b8b0c <__errno>:
DYNALIB_FN(13, rt, _free_r, void(struct _reent*, void*))
DYNALIB_FN(14, rt, _realloc_r, void*(struct _reent*, void*, size_t))
DYNALIB_FN(15, rt, __errno, int*())
   b8b0c:	b508      	push	{r3, lr}
   b8b0e:	4b02      	ldr	r3, [pc, #8]	; (b8b18 <__errno+0xc>)
   b8b10:	681b      	ldr	r3, [r3, #0]
   b8b12:	6bdb      	ldr	r3, [r3, #60]	; 0x3c
   b8b14:	9301      	str	r3, [sp, #4]
   b8b16:	bd08      	pop	{r3, pc}
   b8b18:	0003021c 	.word	0x0003021c

000b8b1c <__assert_func>:
// on Gen 2 platforms without breaking inter-module dependencies.
// RT is currently being imported into system-part1 from system-part2,
// which is the reverse direction.

#if defined(DYNALIB_EXPORT) || (defined(DYNALIB_IMPORT) && !defined(RT_DYNALIB_NO_DEPENDENCY_BREAKING_IMPORTS))
DYNALIB_FN(16, rt, __assert_func, void(const char*, int, const char*, const char*))
   b8b1c:	b508      	push	{r3, lr}
   b8b1e:	4b02      	ldr	r3, [pc, #8]	; (b8b28 <__assert_func+0xc>)
   b8b20:	681b      	ldr	r3, [r3, #0]
   b8b22:	6c1b      	ldr	r3, [r3, #64]	; 0x40
   b8b24:	9301      	str	r3, [sp, #4]
   b8b26:	bd08      	pop	{r3, pc}
   b8b28:	0003021c 	.word	0x0003021c

000b8b2c <newlib_impure_ptr_callback>:
DYNALIB_FN(17, rt, newlib_impure_ptr_callback, void(void (*)(struct _reent*, size_t, uint32_t, void*), void*))
   b8b2c:	b508      	push	{r3, lr}
   b8b2e:	4b02      	ldr	r3, [pc, #8]	; (b8b38 <newlib_impure_ptr_callback+0xc>)
   b8b30:	681b      	ldr	r3, [r3, #0]
   b8b32:	6c5b      	ldr	r3, [r3, #68]	; 0x44
   b8b34:	9301      	str	r3, [sp, #4]
   b8b36:	bd08      	pop	{r3, pc}
   b8b38:	0003021c 	.word	0x0003021c

000b8b3c <delay>:
    return (value - fromStart) * (toEnd - toStart) / (fromEnd - fromStart) + toStart;
}

void delay(unsigned long ms)
{
    system_delay_ms(ms, false);
   b8b3c:	2100      	movs	r1, #0
   b8b3e:	f7ff bf19 	b.w	b8974 <system_delay_ms>

000b8b42 <_ZNSt23_Sp_counted_ptr_inplaceIN8particle17BlePeerDeviceImplESaIS1_ELN9__gnu_cxx12_Lock_policyE0EED1Ev>:
      ~_Sp_counted_ptr_inplace() noexcept { }
   b8b42:	4770      	bx	lr

000b8b44 <_ZNSt23_Sp_counted_ptr_inplaceIN8particle14BleServiceImplESaIS1_ELN9__gnu_cxx12_Lock_policyE0EED1Ev>:
   b8b44:	4770      	bx	lr

000b8b46 <_ZNSt23_Sp_counted_ptr_inplaceIN8particle14BleServiceImplESaIS1_ELN9__gnu_cxx12_Lock_policyE0EE10_M_disposeEv>:
      }
   b8b46:	4770      	bx	lr

000b8b48 <_ZNSt23_Sp_counted_ptr_inplaceIN8particle21BleCharacteristicImplESaIS1_ELN9__gnu_cxx12_Lock_policyE0EED1Ev>:
      ~_Sp_counted_ptr_inplace() noexcept { }
   b8b48:	4770      	bx	lr
	...

000b8b4c <_ZNSt23_Sp_counted_ptr_inplaceIN8particle21BleCharacteristicImplESaIS1_ELN9__gnu_cxx12_Lock_policyE0EE14_M_get_deleterERKSt9type_info>:
	    ||
   b8b4c:	4b06      	ldr	r3, [pc, #24]	; (b8b68 <_ZNSt23_Sp_counted_ptr_inplaceIN8particle21BleCharacteristicImplESaIS1_ELN9__gnu_cxx12_Lock_policyE0EE14_M_get_deleterERKSt9type_info+0x1c>)
   b8b4e:	4299      	cmp	r1, r3
      _M_get_deleter(const std::type_info& __ti) noexcept override
   b8b50:	b510      	push	{r4, lr}
      __aligned_buffer(std::nullptr_t) { }

      void*
      _M_addr() noexcept
      {
        return static_cast<void*>(&_M_storage);
   b8b52:	f100 040c 	add.w	r4, r0, #12
	    ||
   b8b56:	d005      	beq.n	b8b64 <_ZNSt23_Sp_counted_ptr_inplaceIN8particle21BleCharacteristicImplESaIS1_ELN9__gnu_cxx12_Lock_policyE0EE14_M_get_deleterERKSt9type_info+0x18>
	    _Sp_make_shared_tag::_S_eq(__ti)
   b8b58:	4608      	mov	r0, r1
   b8b5a:	f002 fb29 	bl	bb1b0 <_ZNSt19_Sp_make_shared_tag5_S_eqERKSt9type_info>
	return nullptr;
   b8b5e:	2800      	cmp	r0, #0
   b8b60:	bf08      	it	eq
   b8b62:	2400      	moveq	r4, #0
      }
   b8b64:	4620      	mov	r0, r4
   b8b66:	bd10      	pop	{r4, pc}
   b8b68:	000be9d4 	.word	0x000be9d4

000b8b6c <_ZNSt23_Sp_counted_ptr_inplaceIN8particle14BleServiceImplESaIS1_ELN9__gnu_cxx12_Lock_policyE0EE14_M_get_deleterERKSt9type_info>:
	    ||
   b8b6c:	4b06      	ldr	r3, [pc, #24]	; (b8b88 <_ZNSt23_Sp_counted_ptr_inplaceIN8particle14BleServiceImplESaIS1_ELN9__gnu_cxx12_Lock_policyE0EE14_M_get_deleterERKSt9type_info+0x1c>)
   b8b6e:	4299      	cmp	r1, r3
      _M_get_deleter(const std::type_info& __ti) noexcept override
   b8b70:	b510      	push	{r4, lr}
   b8b72:	f100 040c 	add.w	r4, r0, #12
	    ||
   b8b76:	d005      	beq.n	b8b84 <_ZNSt23_Sp_counted_ptr_inplaceIN8particle14BleServiceImplESaIS1_ELN9__gnu_cxx12_Lock_policyE0EE14_M_get_deleterERKSt9type_info+0x18>
	    _Sp_make_shared_tag::_S_eq(__ti)
   b8b78:	4608      	mov	r0, r1
   b8b7a:	f002 fb19 	bl	bb1b0 <_ZNSt19_Sp_make_shared_tag5_S_eqERKSt9type_info>
	return nullptr;
   b8b7e:	2800      	cmp	r0, #0
   b8b80:	bf08      	it	eq
   b8b82:	2400      	moveq	r4, #0
      }
   b8b84:	4620      	mov	r0, r4
   b8b86:	bd10      	pop	{r4, pc}
   b8b88:	000be9d4 	.word	0x000be9d4

000b8b8c <_ZNSt23_Sp_counted_ptr_inplaceIN8particle17BlePeerDeviceImplESaIS1_ELN9__gnu_cxx12_Lock_policyE0EE14_M_get_deleterERKSt9type_info>:
	    ||
   b8b8c:	4b06      	ldr	r3, [pc, #24]	; (b8ba8 <_ZNSt23_Sp_counted_ptr_inplaceIN8particle17BlePeerDeviceImplESaIS1_ELN9__gnu_cxx12_Lock_policyE0EE14_M_get_deleterERKSt9type_info+0x1c>)
   b8b8e:	4299      	cmp	r1, r3
      _M_get_deleter(const std::type_info& __ti) noexcept override
   b8b90:	b510      	push	{r4, lr}
   b8b92:	f100 040c 	add.w	r4, r0, #12
	    ||
   b8b96:	d005      	beq.n	b8ba4 <_ZNSt23_Sp_counted_ptr_inplaceIN8particle17BlePeerDeviceImplESaIS1_ELN9__gnu_cxx12_Lock_policyE0EE14_M_get_deleterERKSt9type_info+0x18>
	    _Sp_make_shared_tag::_S_eq(__ti)
   b8b98:	4608      	mov	r0, r1
   b8b9a:	f002 fb09 	bl	bb1b0 <_ZNSt19_Sp_make_shared_tag5_S_eqERKSt9type_info>
	return nullptr;
   b8b9e:	2800      	cmp	r0, #0
   b8ba0:	bf08      	it	eq
   b8ba2:	2400      	moveq	r4, #0
      }
   b8ba4:	4620      	mov	r0, r4
   b8ba6:	bd10      	pop	{r4, pc}
   b8ba8:	000be9d4 	.word	0x000be9d4

000b8bac <_ZNSt23_Sp_counted_ptr_inplaceIN8particle21BleCharacteristicImplESaIS1_ELN9__gnu_cxx12_Lock_policyE0EED0Ev>:
      ~_Sp_counted_ptr_inplace() noexcept { }
   b8bac:	b510      	push	{r4, lr}
   b8bae:	2168      	movs	r1, #104	; 0x68
   b8bb0:	4604      	mov	r4, r0
   b8bb2:	f7fb fa76 	bl	b40a2 <_ZdlPvj>
   b8bb6:	4620      	mov	r0, r4
   b8bb8:	bd10      	pop	{r4, pc}

000b8bba <_ZNSt23_Sp_counted_ptr_inplaceIN8particle14BleServiceImplESaIS1_ELN9__gnu_cxx12_Lock_policyE0EED0Ev>:
   b8bba:	b510      	push	{r4, lr}
   b8bbc:	2128      	movs	r1, #40	; 0x28
   b8bbe:	4604      	mov	r4, r0
   b8bc0:	f7fb fa6f 	bl	b40a2 <_ZdlPvj>
   b8bc4:	4620      	mov	r0, r4
   b8bc6:	bd10      	pop	{r4, pc}

000b8bc8 <_ZNSt23_Sp_counted_ptr_inplaceIN8particle17BlePeerDeviceImplESaIS1_ELN9__gnu_cxx12_Lock_policyE0EED0Ev>:
   b8bc8:	b510      	push	{r4, lr}
   b8bca:	2130      	movs	r1, #48	; 0x30
   b8bcc:	4604      	mov	r4, r0
   b8bce:	f7fb fa68 	bl	b40a2 <_ZdlPvj>
   b8bd2:	4620      	mov	r0, r4
   b8bd4:	bd10      	pop	{r4, pc}

000b8bd6 <_ZNSt23_Sp_counted_ptr_inplaceIN8particle21BleCharacteristicImplESaIS1_ELN9__gnu_cxx12_Lock_policyE0EE10_M_destroyEv>:
   b8bd6:	2168      	movs	r1, #104	; 0x68
   b8bd8:	f7fb ba63 	b.w	b40a2 <_ZdlPvj>

000b8bdc <_ZNSt23_Sp_counted_ptr_inplaceIN8particle14BleServiceImplESaIS1_ELN9__gnu_cxx12_Lock_policyE0EE10_M_destroyEv>:
   b8bdc:	2128      	movs	r1, #40	; 0x28
   b8bde:	f7fb ba60 	b.w	b40a2 <_ZdlPvj>

000b8be2 <_ZNSt23_Sp_counted_ptr_inplaceIN8particle17BlePeerDeviceImplESaIS1_ELN9__gnu_cxx12_Lock_policyE0EE10_M_destroyEv>:
   b8be2:	2130      	movs	r1, #48	; 0x30
   b8be4:	f7fb ba5d 	b.w	b40a2 <_ZdlPvj>

000b8be8 <_ZN8particle18BleAdvertisingData6locateEPKhjNS_22BleAdvertisingDataTypeEPj.part.0>:
        break;
    }
    return uuids;
}

size_t BleAdvertisingData::locate(const uint8_t* buf, size_t len, BleAdvertisingDataType type, size_t* offset) {
   b8be8:	b5f0      	push	{r4, r5, r6, r7, lr}
    if (offset == nullptr) {
        return 0;
    }
    uint8_t adsType = static_cast<uint8_t>(type);
    size_t adsLen;
    for (size_t i = 0; (i + 3) <= len; i = i) {
   b8bea:	2500      	movs	r5, #0
   b8bec:	1cec      	adds	r4, r5, #3
   b8bee:	428c      	cmp	r4, r1
   b8bf0:	d80d      	bhi.n	b8c0e <_ZN8particle18BleAdvertisingData6locateEPKhjNS_22BleAdvertisingDataTypeEPj.part.0+0x26>
        adsLen = buf[i];
        if (buf[i + 1] == adsType) {
   b8bf2:	1c6e      	adds	r6, r5, #1
        adsLen = buf[i];
   b8bf4:	5d44      	ldrb	r4, [r0, r5]
        if (buf[i + 1] == adsType) {
   b8bf6:	5d87      	ldrb	r7, [r0, r6]
   b8bf8:	4297      	cmp	r7, r2
   b8bfa:	d105      	bne.n	b8c08 <_ZN8particle18BleAdvertisingData6locateEPKhjNS_22BleAdvertisingDataTypeEPj.part.0+0x20>
            // The value of adsLen doesn't include the length field of an AD structure.
            if ((i + adsLen + 1) <= len) {
   b8bfc:	4426      	add	r6, r4
   b8bfe:	42b1      	cmp	r1, r6
   b8c00:	d305      	bcc.n	b8c0e <_ZN8particle18BleAdvertisingData6locateEPKhjNS_22BleAdvertisingDataTypeEPj.part.0+0x26>
                *offset = i;
   b8c02:	601d      	str	r5, [r3, #0]
                adsLen += 1;
   b8c04:	1c60      	adds	r0, r4, #1
            // Navigate to the next AD structure.
            i += (adsLen + 1);
        }
    }
    return 0;
}
   b8c06:	bdf0      	pop	{r4, r5, r6, r7, pc}
            i += (adsLen + 1);
   b8c08:	3401      	adds	r4, #1
   b8c0a:	4425      	add	r5, r4
    for (size_t i = 0; (i + 3) <= len; i = i) {
   b8c0c:	e7ee      	b.n	b8bec <_ZN8particle18BleAdvertisingData6locateEPKhjNS_22BleAdvertisingDataTypeEPj.part.0+0x4>
    return 0;
   b8c0e:	2000      	movs	r0, #0
   b8c10:	e7f9      	b.n	b8c06 <_ZN8particle18BleAdvertisingData6locateEPKhjNS_22BleAdvertisingDataTypeEPj.part.0+0x1e>
	...

000b8c14 <_ZN8particle10BleServiceC2ERKNS_7BleUuidE.part.0>:
}

BleCharacteristic::BleCharacteristic(const BleCharacteristic& characteristic)
        : impl_(characteristic.impl_) {
    if (!impl()) {
        SPARK_ASSERT(false);
   b8c14:	4a02      	ldr	r2, [pc, #8]	; (b8c20 <_ZN8particle10BleServiceC2ERKNS_7BleUuidE.part.0+0xc>)
   b8c16:	4903      	ldr	r1, [pc, #12]	; (b8c24 <_ZN8particle10BleServiceC2ERKNS_7BleUuidE.part.0+0x10>)
   b8c18:	200a      	movs	r0, #10
   b8c1a:	f7ff be93 	b.w	b8944 <panic_>
   b8c1e:	bf00      	nop
   b8c20:	000b86e5 	.word	0x000b86e5
   b8c24:	000be834 	.word	0x000be834

000b8c28 <_ZNSt17_Function_handlerIFvPKhjRKN8particle13BlePeerDeviceEESt5_BindIFPFvS1_jS5_PvESt12_PlaceholderILi1EESB_ILi2EESB_ILi3EES8_EEE9_M_invokeERKSt9_Any_dataOS1_OjS5_>:
	  }
	return false;
      }

      static _Res
      _M_invoke(const _Any_data& __functor, _ArgTypes&&... __args)
   b8c28:	b430      	push	{r4, r5}
   b8c2a:	460d      	mov	r5, r1
   b8c2c:	4611      	mov	r1, r2
   b8c2e:	461a      	mov	r2, r3
	    return __source._M_access<_Functor*>();
   b8c30:	6803      	ldr	r3, [r0, #0]
    { return static_cast<_Up&&>(__t); }

  template<typename _Res, typename _Fn, typename... _Args>
    constexpr _Res
    __invoke_impl(__invoke_other, _Fn&& __f, _Args&&... __args)
    { return std::forward<_Fn>(__f)(std::forward<_Args>(__args)...); }
   b8c32:	6809      	ldr	r1, [r1, #0]
   b8c34:	6828      	ldr	r0, [r5, #0]
   b8c36:	e9d3 4300 	ldrd	r4, r3, [r3]
   b8c3a:	46a4      	mov	ip, r4
      {
	return std::__invoke_r<_Res>(*_Base::_M_get_pointer(__functor),
				     std::forward<_ArgTypes>(__args)...);
      }
   b8c3c:	bc30      	pop	{r4, r5}
   b8c3e:	4760      	bx	ip

000b8c40 <_ZNSt17_Function_handlerIFvPKhjRKN8particle13BlePeerDeviceEESt5_BindIFPFvS1_jS5_PvESt12_PlaceholderILi1EESB_ILi2EESB_ILi3EES8_EEE10_M_managerERSt9_Any_dataRKSI_St18_Manager_operation>:
	switch (__op)
   b8c40:	2a01      	cmp	r2, #1
      _M_manager(_Any_data& __dest, const _Any_data& __source,
   b8c42:	b538      	push	{r3, r4, r5, lr}
   b8c44:	4604      	mov	r4, r0
	switch (__op)
   b8c46:	d102      	bne.n	b8c4e <_ZNSt17_Function_handlerIFvPKhjRKN8particle13BlePeerDeviceEESt5_BindIFPFvS1_jS5_PvESt12_PlaceholderILi1EESB_ILi2EESB_ILi3EES8_EEE10_M_managerERSt9_Any_dataRKSI_St18_Manager_operation+0xe>
	    return __source._M_access<_Functor*>();
   b8c48:	680b      	ldr	r3, [r1, #0]
	  __dest._M_access<_Functor*>() =
   b8c4a:	6023      	str	r3, [r4, #0]
	}
   b8c4c:	e003      	b.n	b8c56 <_ZNSt17_Function_handlerIFvPKhjRKN8particle13BlePeerDeviceEESt5_BindIFPFvS1_jS5_PvESt12_PlaceholderILi1EESB_ILi2EESB_ILi3EES8_EEE10_M_managerERSt9_Any_dataRKSI_St18_Manager_operation+0x16>
	  switch (__op)
   b8c4e:	2a02      	cmp	r2, #2
   b8c50:	d003      	beq.n	b8c5a <_ZNSt17_Function_handlerIFvPKhjRKN8particle13BlePeerDeviceEESt5_BindIFPFvS1_jS5_PvESt12_PlaceholderILi1EESB_ILi2EESB_ILi3EES8_EEE10_M_managerERSt9_Any_dataRKSI_St18_Manager_operation+0x1a>
   b8c52:	2a03      	cmp	r2, #3
   b8c54:	d00d      	beq.n	b8c72 <_ZNSt17_Function_handlerIFvPKhjRKN8particle13BlePeerDeviceEESt5_BindIFPFvS1_jS5_PvESt12_PlaceholderILi1EESB_ILi2EESB_ILi3EES8_EEE10_M_managerERSt9_Any_dataRKSI_St18_Manager_operation+0x32>
      }
   b8c56:	2000      	movs	r0, #0
   b8c58:	bd38      	pop	{r3, r4, r5, pc}
	    new _Functor(*__source._M_access<const _Functor*>());
   b8c5a:	2008      	movs	r0, #8
	  __dest._M_access<_Functor*>() =
   b8c5c:	680d      	ldr	r5, [r1, #0]
	    new _Functor(*__source._M_access<const _Functor*>());
   b8c5e:	f7fb fa1a 	bl	b4096 <_Znwj>
   b8c62:	4603      	mov	r3, r0
   b8c64:	2800      	cmp	r0, #0
   b8c66:	d0f0      	beq.n	b8c4a <_ZNSt17_Function_handlerIFvPKhjRKN8particle13BlePeerDeviceEESt5_BindIFPFvS1_jS5_PvESt12_PlaceholderILi1EESB_ILi2EESB_ILi3EES8_EEE10_M_managerERSt9_Any_dataRKSI_St18_Manager_operation+0xa>
   b8c68:	e895 0003 	ldmia.w	r5, {r0, r1}
   b8c6c:	e883 0003 	stmia.w	r3, {r0, r1}
   b8c70:	e7eb      	b.n	b8c4a <_ZNSt17_Function_handlerIFvPKhjRKN8particle13BlePeerDeviceEESt5_BindIFPFvS1_jS5_PvESt12_PlaceholderILi1EESB_ILi2EESB_ILi3EES8_EEE10_M_managerERSt9_Any_dataRKSI_St18_Manager_operation+0xa>
	  delete __victim._M_access<_Functor*>();
   b8c72:	6800      	ldr	r0, [r0, #0]
   b8c74:	2800      	cmp	r0, #0
   b8c76:	d0ee      	beq.n	b8c56 <_ZNSt17_Function_handlerIFvPKhjRKN8particle13BlePeerDeviceEESt5_BindIFPFvS1_jS5_PvESt12_PlaceholderILi1EESB_ILi2EESB_ILi3EES8_EEE10_M_managerERSt9_Any_dataRKSI_St18_Manager_operation+0x16>
   b8c78:	2108      	movs	r1, #8
   b8c7a:	f7fb fa12 	bl	b40a2 <_ZdlPvj>
   b8c7e:	e7ea      	b.n	b8c56 <_ZNSt17_Function_handlerIFvPKhjRKN8particle13BlePeerDeviceEESt5_BindIFPFvS1_jS5_PvESt12_PlaceholderILi1EESB_ILi2EESB_ILi3EES8_EEE10_M_managerERSt9_Any_dataRKSI_St18_Manager_operation+0x16>

000b8c80 <_ZNSt14_Function_baseD1Ev>:
    ~_Function_base()
   b8c80:	b510      	push	{r4, lr}
      if (_M_manager)
   b8c82:	6883      	ldr	r3, [r0, #8]
    ~_Function_base()
   b8c84:	4604      	mov	r4, r0
      if (_M_manager)
   b8c86:	b113      	cbz	r3, b8c8e <_ZNSt14_Function_baseD1Ev+0xe>
	_M_manager(_M_functor, _M_functor, __destroy_functor);
   b8c88:	2203      	movs	r2, #3
   b8c8a:	4601      	mov	r1, r0
   b8c8c:	4798      	blx	r3
    }
   b8c8e:	4620      	mov	r0, r4
   b8c90:	bd10      	pop	{r4, pc}

000b8c92 <_ZNSt23_Sp_counted_ptr_inplaceIN8particle21BleCharacteristicImplESaIS1_ELN9__gnu_cxx12_Lock_policyE0EE10_M_disposeEv>:
      _M_dispose() noexcept
   b8c92:	b510      	push	{r4, lr}
   b8c94:	4604      	mov	r4, r0
   *  @ingroup functors
   *
   *  Polymorphic function wrapper.
   */
  template<typename _Res, typename... _ArgTypes>
    class function<_Res(_ArgTypes...)>
   b8c96:	3058      	adds	r0, #88	; 0x58
   b8c98:	f7ff fff2 	bl	b8c80 <_ZNSt14_Function_baseD1Ev>
    ~BleCharacteristicImpl() = default;
   b8c9c:	f104 0048 	add.w	r0, r4, #72	; 0x48
      }
   b8ca0:	e8bd 4010 	ldmia.w	sp!, {r4, lr}
   b8ca4:	f001 bb98 	b.w	ba3d8 <_ZN6StringD1Ev>

000b8ca8 <_ZNSt16_Sp_counted_baseILN9__gnu_cxx12_Lock_policyE0EE10_M_releaseEv>:
    {
   b8ca8:	b510      	push	{r4, lr}
      if (--_M_use_count == 0)
   b8caa:	6843      	ldr	r3, [r0, #4]
   b8cac:	3b01      	subs	r3, #1
    {
   b8cae:	4604      	mov	r4, r0
      if (--_M_use_count == 0)
   b8cb0:	6043      	str	r3, [r0, #4]
   b8cb2:	b963      	cbnz	r3, b8cce <_ZNSt16_Sp_counted_baseILN9__gnu_cxx12_Lock_policyE0EE10_M_releaseEv+0x26>
          _M_dispose();
   b8cb4:	6803      	ldr	r3, [r0, #0]
   b8cb6:	689b      	ldr	r3, [r3, #8]
   b8cb8:	4798      	blx	r3
          if (--_M_weak_count == 0)
   b8cba:	68a3      	ldr	r3, [r4, #8]
   b8cbc:	3b01      	subs	r3, #1
   b8cbe:	60a3      	str	r3, [r4, #8]
   b8cc0:	b92b      	cbnz	r3, b8cce <_ZNSt16_Sp_counted_baseILN9__gnu_cxx12_Lock_policyE0EE10_M_releaseEv+0x26>
            _M_destroy();
   b8cc2:	6823      	ldr	r3, [r4, #0]
   b8cc4:	4620      	mov	r0, r4
   b8cc6:	68db      	ldr	r3, [r3, #12]
    }
   b8cc8:	e8bd 4010 	ldmia.w	sp!, {r4, lr}
            _M_destroy();
   b8ccc:	4718      	bx	r3
    }
   b8cce:	bd10      	pop	{r4, pc}

000b8cd0 <_ZN8particle11hexToNibbleEc>:
#include <cstdint>

namespace particle {

inline int hexToNibble(char c) {
    if (c >= '0' && c <= '9') {
   b8cd0:	f1a0 0330 	sub.w	r3, r0, #48	; 0x30
   b8cd4:	b2da      	uxtb	r2, r3
   b8cd6:	2a09      	cmp	r2, #9
   b8cd8:	d801      	bhi.n	b8cde <_ZN8particle11hexToNibbleEc+0xe>
        return (c - '0');
   b8cda:	4618      	mov	r0, r3
   b8cdc:	4770      	bx	lr
    } else if (c >= 'a' && c <= 'f') {
   b8cde:	f1a0 0361 	sub.w	r3, r0, #97	; 0x61
   b8ce2:	2b05      	cmp	r3, #5
   b8ce4:	d801      	bhi.n	b8cea <_ZN8particle11hexToNibbleEc+0x1a>
        return (c - 'a' + 0x0a);
   b8ce6:	3857      	subs	r0, #87	; 0x57
   b8ce8:	4770      	bx	lr
    } else if (c >= 'A' && c <= 'F') {
   b8cea:	f1a0 0341 	sub.w	r3, r0, #65	; 0x41
   b8cee:	2b05      	cmp	r3, #5
        return (c - 'A' + 0x0a);
   b8cf0:	bf94      	ite	ls
   b8cf2:	3837      	subls	r0, #55	; 0x37
    }
    return -1;
   b8cf4:	f04f 30ff 	movhi.w	r0, #4294967295	; 0xffffffff
}
   b8cf8:	4770      	bx	lr
	...

000b8cfc <_ZN8particle3ble13WiringBleLockC1Ev>:
    WiringBleLock() :
   b8cfc:	b510      	push	{r4, lr}
            locked_(false) {
   b8cfe:	2300      	movs	r3, #0
   b8d00:	7003      	strb	r3, [r0, #0]
            os_mutex_recursive_destroy(handle_);
            handle_ = nullptr;
        }
    }

    void lock() { os_mutex_recursive_lock(handle_); }
   b8d02:	4b04      	ldr	r3, [pc, #16]	; (b8d14 <_ZN8particle3ble13WiringBleLockC1Ev+0x18>)
    WiringBleLock() :
   b8d04:	4604      	mov	r4, r0
   b8d06:	6818      	ldr	r0, [r3, #0]
   b8d08:	f7ff fcd4 	bl	b86b4 <os_mutex_recursive_lock>
        locked_ = true;
   b8d0c:	2301      	movs	r3, #1
   b8d0e:	7023      	strb	r3, [r4, #0]
    }
   b8d10:	4620      	mov	r0, r4
   b8d12:	bd10      	pop	{r4, pc}
   b8d14:	2003e6c0 	.word	0x2003e6c0

000b8d18 <_ZN8particle3ble13WiringBleLockD1Ev>:
    ~WiringBleLock() {
   b8d18:	b510      	push	{r4, lr}
        if (locked_) {
   b8d1a:	7803      	ldrb	r3, [r0, #0]
    ~WiringBleLock() {
   b8d1c:	4604      	mov	r4, r0
        if (locked_) {
   b8d1e:	b11b      	cbz	r3, b8d28 <_ZN8particle3ble13WiringBleLockD1Ev+0x10>
    bool trylock() { return os_mutex_recursive_trylock(handle_)==0; }
    bool try_lock() { return trylock(); }
    void unlock() { os_mutex_recursive_unlock(handle_); }
   b8d20:	4b02      	ldr	r3, [pc, #8]	; (b8d2c <_ZN8particle3ble13WiringBleLockD1Ev+0x14>)
   b8d22:	6818      	ldr	r0, [r3, #0]
   b8d24:	f7ff fcce 	bl	b86c4 <os_mutex_recursive_unlock>
    }
   b8d28:	4620      	mov	r0, r4
   b8d2a:	bd10      	pop	{r4, pc}
   b8d2c:	2003e6c0 	.word	0x2003e6c0

000b8d30 <_ZN8particle10BleAddressaSERK14hal_ble_addr_t>:
BleAddress& BleAddress::operator=(const hal_ble_addr_t& addr) {
   b8d30:	b082      	sub	sp, #8
   b8d32:	4603      	mov	r3, r0
    address_ = addr;
   b8d34:	6808      	ldr	r0, [r1, #0]
   b8d36:	6849      	ldr	r1, [r1, #4]
   b8d38:	466a      	mov	r2, sp
   b8d3a:	c203      	stmia	r2!, {r0, r1}
    address_ = addr.address_;
   b8d3c:	466a      	mov	r2, sp
   b8d3e:	ca03      	ldmia	r2!, {r0, r1}
   b8d40:	6018      	str	r0, [r3, #0]
}
   b8d42:	4618      	mov	r0, r3
    address_ = addr.address_;
   b8d44:	6059      	str	r1, [r3, #4]
}
   b8d46:	b002      	add	sp, #8
   b8d48:	4770      	bx	lr

000b8d4a <_ZNK8particle10BleAddresseqERKS0_>:
bool BleAddress::operator==(const BleAddress& addr) const {
   b8d4a:	b508      	push	{r3, lr}
    if (address_.addr_type == addr.address_.addr_type && !memcmp(address_.addr, addr.address_.addr, BLE_SIG_ADDR_LEN)) {
   b8d4c:	7982      	ldrb	r2, [r0, #6]
   b8d4e:	798b      	ldrb	r3, [r1, #6]
   b8d50:	429a      	cmp	r2, r3
   b8d52:	d106      	bne.n	b8d62 <_ZNK8particle10BleAddresseqERKS0_+0x18>
   b8d54:	2206      	movs	r2, #6
   b8d56:	f003 f9f7 	bl	bc148 <memcmp>
   b8d5a:	fab0 f080 	clz	r0, r0
   b8d5e:	0940      	lsrs	r0, r0, #5
}
   b8d60:	bd08      	pop	{r3, pc}
    return false;
   b8d62:	2000      	movs	r0, #0
   b8d64:	e7fc      	b.n	b8d60 <_ZNK8particle10BleAddresseqERKS0_+0x16>

000b8d66 <_ZN8particle10BleAddress5clearEv>:
    memset(address_.addr, 0xFF, BLE_SIG_ADDR_LEN);
   b8d66:	f04f 33ff 	mov.w	r3, #4294967295	; 0xffffffff
   b8d6a:	6003      	str	r3, [r0, #0]
   b8d6c:	8083      	strh	r3, [r0, #4]
}
   b8d6e:	2000      	movs	r0, #0
   b8d70:	4770      	bx	lr

000b8d72 <_ZN8particle10BleAddressC1Ev>:
BleAddress::BleAddress()
   b8d72:	b508      	push	{r3, lr}
   b8d74:	4602      	mov	r2, r0
        : address_{} {
   b8d76:	2100      	movs	r1, #0
   b8d78:	6001      	str	r1, [r0, #0]
   b8d7a:	6041      	str	r1, [r0, #4]
    clear();
   b8d7c:	f7ff fff3 	bl	b8d66 <_ZN8particle10BleAddress5clearEv>
    address_.addr_type = BLE_SIG_ADDR_TYPE_PUBLIC;
   b8d80:	7191      	strb	r1, [r2, #6]
}
   b8d82:	4610      	mov	r0, r2
   b8d84:	bd08      	pop	{r3, pc}
	...

000b8d88 <_ZN8particle7BleUuidC1Ev>:
BleUuid::BleUuid()
   b8d88:	b510      	push	{r4, lr}
        : type_(BleUuidType::LONG) {
   b8d8a:	2301      	movs	r3, #1
   b8d8c:	6103      	str	r3, [r0, #16]
    memcpy(uuid128_, BASE_UUID, BLE_SIG_UUID_128BIT_LEN);
   b8d8e:	4b05      	ldr	r3, [pc, #20]	; (b8da4 <_ZN8particle7BleUuidC1Ev+0x1c>)
   b8d90:	4602      	mov	r2, r0
   b8d92:	f103 0110 	add.w	r1, r3, #16
   b8d96:	f853 4b04 	ldr.w	r4, [r3], #4
   b8d9a:	f842 4b04 	str.w	r4, [r2], #4
   b8d9e:	428b      	cmp	r3, r1
   b8da0:	d1f9      	bne.n	b8d96 <_ZN8particle7BleUuidC1Ev+0xe>
}
   b8da2:	bd10      	pop	{r4, pc}
   b8da4:	000be9e2 	.word	0x000be9e2

000b8da8 <_ZN8particle7BleUuidC1EPKhNS_12BleUuidOrderE>:
BleUuid::BleUuid(const uint8_t* uuid128, BleUuidOrder order) {
   b8da8:	b510      	push	{r4, lr}
    if (uuid128) {
   b8daa:	460b      	mov	r3, r1
BleUuid::BleUuid(const uint8_t* uuid128, BleUuidOrder order) {
   b8dac:	4604      	mov	r4, r0
    if (uuid128) {
   b8dae:	b1b1      	cbz	r1, b8dde <_ZN8particle7BleUuidC1EPKhNS_12BleUuidOrderE+0x36>
        if (order == BleUuidOrder::LSB) {
   b8db0:	2a01      	cmp	r2, #1
   b8db2:	f101 0210 	add.w	r2, r1, #16
   b8db6:	d10a      	bne.n	b8dce <_ZN8particle7BleUuidC1EPKhNS_12BleUuidOrderE+0x26>
            memcpy(uuid128_, uuid128, BLE_SIG_UUID_128BIT_LEN);
   b8db8:	4601      	mov	r1, r0
   b8dba:	f853 0b04 	ldr.w	r0, [r3], #4
   b8dbe:	f841 0b04 	str.w	r0, [r1], #4
   b8dc2:	4293      	cmp	r3, r2
   b8dc4:	d1f9      	bne.n	b8dba <_ZN8particle7BleUuidC1EPKhNS_12BleUuidOrderE+0x12>
        type_ = BleUuidType::LONG;
   b8dc6:	2301      	movs	r3, #1
   b8dc8:	6123      	str	r3, [r4, #16]
}
   b8dca:	4620      	mov	r0, r4
   b8dcc:	bd10      	pop	{r4, pc}
   b8dce:	1e41      	subs	r1, r0, #1
                uuid128_[i] = uuid128[j];
   b8dd0:	f812 0d01 	ldrb.w	r0, [r2, #-1]!
   b8dd4:	f801 0f01 	strb.w	r0, [r1, #1]!
            for (uint8_t i = 0, j = BLE_SIG_UUID_128BIT_LEN - 1; i < BLE_SIG_UUID_128BIT_LEN; i++, j--) {
   b8dd8:	429a      	cmp	r2, r3
   b8dda:	d1f9      	bne.n	b8dd0 <_ZN8particle7BleUuidC1EPKhNS_12BleUuidOrderE+0x28>
   b8ddc:	e7f3      	b.n	b8dc6 <_ZN8particle7BleUuidC1EPKhNS_12BleUuidOrderE+0x1e>
        memset(uuid128_, 0x00, BLE_SIG_UUID_128BIT_LEN);
   b8dde:	2210      	movs	r2, #16
   b8de0:	f003 f9ea 	bl	bc1b8 <memset>
   b8de4:	e7f1      	b.n	b8dca <_ZN8particle7BleUuidC1EPKhNS_12BleUuidOrderE+0x22>

000b8de6 <_ZN8particle7BleUuidC1EPKhtNS_12BleUuidOrderE>:
BleUuid::BleUuid(const uint8_t* uuid128, uint16_t uuid16, BleUuidOrder order)
   b8de6:	b538      	push	{r3, r4, r5, lr}
   b8de8:	4604      	mov	r4, r0
   b8dea:	4615      	mov	r5, r2
        : BleUuid(uuid128, order) {
   b8dec:	461a      	mov	r2, r3
   b8dee:	f7ff ffdb 	bl	b8da8 <_ZN8particle7BleUuidC1EPKhNS_12BleUuidOrderE>
    uuid128_[UUID16_LO] = (uint8_t)(uuid16 & 0x00FF);
   b8df2:	81a5      	strh	r5, [r4, #12]
}
   b8df4:	4620      	mov	r0, r4
   b8df6:	bd38      	pop	{r3, r4, r5, pc}

000b8df8 <_ZNK8particle7BleUuid7isValidEv>:
bool BleUuid::isValid() const {
   b8df8:	b508      	push	{r3, lr}
    if (type() == BleUuidType::SHORT) {
   b8dfa:	6902      	ldr	r2, [r0, #16]
   b8dfc:	b922      	cbnz	r2, b8e08 <_ZNK8particle7BleUuid7isValidEv+0x10>
        return (uuid128_[UUID16_LO] != 0x00 || uuid128_[UUID16_HI] != 0x00);
   b8dfe:	8980      	ldrh	r0, [r0, #12]
        return memcmp(uuid128_, BASE_UUID, BLE_SIG_UUID_128BIT_LEN);
   b8e00:	3800      	subs	r0, #0
   b8e02:	bf18      	it	ne
   b8e04:	2001      	movne	r0, #1
}
   b8e06:	bd08      	pop	{r3, pc}
        return memcmp(uuid128_, BASE_UUID, BLE_SIG_UUID_128BIT_LEN);
   b8e08:	4902      	ldr	r1, [pc, #8]	; (b8e14 <_ZNK8particle7BleUuid7isValidEv+0x1c>)
   b8e0a:	2210      	movs	r2, #16
   b8e0c:	f003 f99c 	bl	bc148 <memcmp>
   b8e10:	e7f6      	b.n	b8e00 <_ZNK8particle7BleUuid7isValidEv+0x8>
   b8e12:	bf00      	nop
   b8e14:	000bea02 	.word	0x000bea02

000b8e18 <_ZNK8particle7BleUuid4typeEv>:
}
   b8e18:	6900      	ldr	r0, [r0, #16]
   b8e1a:	4770      	bx	lr

000b8e1c <_ZN8particle7BleUuid7halUUIDEv>:
hal_ble_uuid_t BleUuid::halUUID() {
   b8e1c:	b538      	push	{r3, r4, r5, lr}
   b8e1e:	460c      	mov	r4, r1
    hal_ble_uuid_t uuid = {};
   b8e20:	2214      	movs	r2, #20
   b8e22:	2100      	movs	r1, #0
hal_ble_uuid_t BleUuid::halUUID() {
   b8e24:	4605      	mov	r5, r0
    hal_ble_uuid_t uuid = {};
   b8e26:	f003 f9c7 	bl	bc1b8 <memset>
    if (type_ == BleUuidType::SHORT) {
   b8e2a:	6923      	ldr	r3, [r4, #16]
   b8e2c:	b91b      	cbnz	r3, b8e36 <_ZN8particle7BleUuid7halUUIDEv+0x1a>
        uuid.uuid16 = (uint16_t)uuid128_[UUID16_LO] | ((uint16_t)uuid128_[UUID16_HI] << 8);
   b8e2e:	89a3      	ldrh	r3, [r4, #12]
   b8e30:	802b      	strh	r3, [r5, #0]
}
   b8e32:	4628      	mov	r0, r5
   b8e34:	bd38      	pop	{r3, r4, r5, pc}
        uuid.type = BLE_UUID_TYPE_128BIT;
   b8e36:	2301      	movs	r3, #1
   b8e38:	742b      	strb	r3, [r5, #16]
        memcpy(uuid.uuid128, uuid128_, BLE_SIG_UUID_128BIT_LEN);
   b8e3a:	4621      	mov	r1, r4
   b8e3c:	462b      	mov	r3, r5
   b8e3e:	f104 0210 	add.w	r2, r4, #16
   b8e42:	f851 0b04 	ldr.w	r0, [r1], #4
   b8e46:	f843 0b04 	str.w	r0, [r3], #4
   b8e4a:	4291      	cmp	r1, r2
   b8e4c:	d1f9      	bne.n	b8e42 <_ZN8particle7BleUuid7halUUIDEv+0x26>
   b8e4e:	e7f0      	b.n	b8e32 <_ZN8particle7BleUuid7halUUIDEv+0x16>

000b8e50 <_ZNK8particle7BleUuid7shortedEv>:
}
   b8e50:	8980      	ldrh	r0, [r0, #12]
   b8e52:	4770      	bx	lr

000b8e54 <_ZNK8particle7BleUuid8rawBytesEv>:
}
   b8e54:	4770      	bx	lr

000b8e56 <_ZNK8particle7BleUuideqERKS0_>:
bool BleUuid::operator==(const BleUuid& uuid) const {
   b8e56:	b508      	push	{r3, lr}
    return ((type_ == uuid.type_) && !memcmp(uuid128_, uuid.uuid128_, BLE_SIG_UUID_128BIT_LEN));
   b8e58:	6902      	ldr	r2, [r0, #16]
   b8e5a:	690b      	ldr	r3, [r1, #16]
   b8e5c:	429a      	cmp	r2, r3
   b8e5e:	d106      	bne.n	b8e6e <_ZNK8particle7BleUuideqERKS0_+0x18>
   b8e60:	2210      	movs	r2, #16
   b8e62:	f003 f971 	bl	bc148 <memcmp>
   b8e66:	fab0 f080 	clz	r0, r0
   b8e6a:	0940      	lsrs	r0, r0, #5
}
   b8e6c:	bd08      	pop	{r3, pc}
    return ((type_ == uuid.type_) && !memcmp(uuid128_, uuid.uuid128_, BLE_SIG_UUID_128BIT_LEN));
   b8e6e:	2000      	movs	r0, #0
   b8e70:	e7fc      	b.n	b8e6c <_ZNK8particle7BleUuideqERKS0_+0x16>
	...

000b8e74 <_ZN8particle7BleUuid9constructEPKc>:
    type_ = BleUuidType::LONG;
   b8e74:	2301      	movs	r3, #1
void BleUuid::construct(const char* uuid) {
   b8e76:	e92d 41f3 	stmdb	sp!, {r0, r1, r4, r5, r6, r7, r8, lr}
    type_ = BleUuidType::LONG;
   b8e7a:	6103      	str	r3, [r0, #16]
    memcpy(uuid128_, BASE_UUID, BLE_SIG_UUID_128BIT_LEN);
   b8e7c:	4b34      	ldr	r3, [pc, #208]	; (b8f50 <_ZN8particle7BleUuid9constructEPKc+0xdc>)
void BleUuid::construct(const char* uuid) {
   b8e7e:	460c      	mov	r4, r1
   b8e80:	4606      	mov	r6, r0
    memcpy(uuid128_, BASE_UUID, BLE_SIG_UUID_128BIT_LEN);
   b8e82:	4602      	mov	r2, r0
   b8e84:	f103 0110 	add.w	r1, r3, #16
   b8e88:	f853 0b04 	ldr.w	r0, [r3], #4
   b8e8c:	f842 0b04 	str.w	r0, [r2], #4
   b8e90:	428b      	cmp	r3, r1
   b8e92:	d1f9      	bne.n	b8e88 <_ZN8particle7BleUuid9constructEPKc+0x14>
    if (uuid == nullptr) {
   b8e94:	b344      	cbz	r4, b8ee8 <_ZN8particle7BleUuid9constructEPKc+0x74>
    if (strnlen(uuid, BLE_SIG_UUID_128BIT_LEN * 2 + 4) == (BLE_SIG_UUID_16BIT_LEN * 2)) {
   b8e96:	2124      	movs	r1, #36	; 0x24
   b8e98:	4620      	mov	r0, r4
   b8e9a:	f003 f9f1 	bl	bc280 <strnlen>
   b8e9e:	2804      	cmp	r0, #4
   b8ea0:	f04f 0500 	mov.w	r5, #0
   b8ea4:	d123      	bne.n	b8eee <_ZN8particle7BleUuid9constructEPKc+0x7a>
        char buf[2] = {};
   b8ea6:	f8ad 5004 	strh.w	r5, [sp, #4]
   b8eaa:	af01      	add	r7, sp, #4
   b8eac:	1ca5      	adds	r5, r4, #2
   b8eae:	3406      	adds	r4, #6

inline size_t hexToBytes(const char* src, char* dest, size_t size) {
    size_t n = 0;
    while (n < size) {
        const int h = hexToNibble(*src++);
   b8eb0:	f815 0c02 	ldrb.w	r0, [r5, #-2]
   b8eb4:	f7ff ff0c 	bl	b8cd0 <_ZN8particle11hexToNibbleEc>
        if (h < 0) {
   b8eb8:	f1b0 0800 	subs.w	r8, r0, #0
   b8ebc:	db12      	blt.n	b8ee4 <_ZN8particle7BleUuid9constructEPKc+0x70>
            break;
        }
        const int l = hexToNibble(*src++);
   b8ebe:	f815 0c01 	ldrb.w	r0, [r5, #-1]
   b8ec2:	f7ff ff05 	bl	b8cd0 <_ZN8particle11hexToNibbleEc>
        if (l < 0) {
   b8ec6:	2800      	cmp	r0, #0
   b8ec8:	db0c      	blt.n	b8ee4 <_ZN8particle7BleUuid9constructEPKc+0x70>
    while (n < size) {
   b8eca:	3502      	adds	r5, #2
            break;
        }
        *dest++ = ((unsigned)h << 4) | (unsigned)l;
   b8ecc:	ea40 1008 	orr.w	r0, r0, r8, lsl #4
    while (n < size) {
   b8ed0:	42a5      	cmp	r5, r4
        *dest++ = ((unsigned)h << 4) | (unsigned)l;
   b8ed2:	f807 0b01 	strb.w	r0, [r7], #1
    while (n < size) {
   b8ed6:	d1eb      	bne.n	b8eb0 <_ZN8particle7BleUuid9constructEPKc+0x3c>
            uuid128_[UUID16_LO] = buf[1];
   b8ed8:	f89d 3005 	ldrb.w	r3, [sp, #5]
   b8edc:	7333      	strb	r3, [r6, #12]
            uuid128_[UUID16_HI] = buf[0];
   b8ede:	f89d 3004 	ldrb.w	r3, [sp, #4]
   b8ee2:	7373      	strb	r3, [r6, #13]
        type_ = BleUuidType::SHORT;
   b8ee4:	2300      	movs	r3, #0
   b8ee6:	6133      	str	r3, [r6, #16]
}
   b8ee8:	b002      	add	sp, #8
   b8eea:	e8bd 81f0 	ldmia.w	sp!, {r4, r5, r6, r7, r8, pc}
    size_t len = BLE_SIG_UUID_128BIT_LEN;
   b8eee:	f04f 0810 	mov.w	r8, #16
    for (size_t i = 0; i < strnlen(uuid, BLE_SIG_UUID_128BIT_LEN * 2 + 4) && len > 0; i++) {
   b8ef2:	2124      	movs	r1, #36	; 0x24
   b8ef4:	4620      	mov	r0, r4
   b8ef6:	f003 f9c3 	bl	bc280 <strnlen>
   b8efa:	42a8      	cmp	r0, r5
   b8efc:	d807      	bhi.n	b8f0e <_ZN8particle7BleUuid9constructEPKc+0x9a>
        uuid128_[len - 1] = 0x00;
   b8efe:	4642      	mov	r2, r8
   b8f00:	2100      	movs	r1, #0
   b8f02:	4630      	mov	r0, r6
}
   b8f04:	b002      	add	sp, #8
   b8f06:	e8bd 41f0 	ldmia.w	sp!, {r4, r5, r6, r7, r8, lr}
        uuid128_[len - 1] = 0x00;
   b8f0a:	f003 b955 	b.w	bc1b8 <memset>
    for (size_t i = 0; i < strnlen(uuid, BLE_SIG_UUID_128BIT_LEN * 2 + 4) && len > 0; i++) {
   b8f0e:	f1b8 0f00 	cmp.w	r8, #0
   b8f12:	d0e9      	beq.n	b8ee8 <_ZN8particle7BleUuid9constructEPKc+0x74>
        int8_t hi = hexToNibble(uuid[i]);
   b8f14:	5d60      	ldrb	r0, [r4, r5]
   b8f16:	f7ff fedb 	bl	b8cd0 <_ZN8particle11hexToNibbleEc>
        if (hi >= 0) {
   b8f1a:	0603      	lsls	r3, r0, #24
   b8f1c:	d415      	bmi.n	b8f4a <_ZN8particle7BleUuid9constructEPKc+0xd6>
            uuid128_[len - 1] = hi << 4;
   b8f1e:	0100      	lsls	r0, r0, #4
   b8f20:	f108 38ff 	add.w	r8, r8, #4294967295	; 0xffffffff
   b8f24:	b2c7      	uxtb	r7, r0
   b8f26:	f806 7008 	strb.w	r7, [r6, r8]
            if (++i < strnlen(uuid, BLE_SIG_UUID_128BIT_LEN * 2 + 4)) {
   b8f2a:	2124      	movs	r1, #36	; 0x24
   b8f2c:	4620      	mov	r0, r4
   b8f2e:	f003 f9a7 	bl	bc280 <strnlen>
   b8f32:	3501      	adds	r5, #1
   b8f34:	42a8      	cmp	r0, r5
   b8f36:	d908      	bls.n	b8f4a <_ZN8particle7BleUuid9constructEPKc+0xd6>
                int8_t lo = hexToNibble(uuid[i]);
   b8f38:	5d60      	ldrb	r0, [r4, r5]
   b8f3a:	f7ff fec9 	bl	b8cd0 <_ZN8particle11hexToNibbleEc>
   b8f3e:	b240      	sxtb	r0, r0
                if (lo >= 0) {
   b8f40:	2800      	cmp	r0, #0
                    uuid128_[len - 1] |= lo;
   b8f42:	bfa4      	itt	ge
   b8f44:	4338      	orrge	r0, r7
   b8f46:	f806 0008 	strbge.w	r0, [r6, r8]
    for (size_t i = 0; i < strnlen(uuid, BLE_SIG_UUID_128BIT_LEN * 2 + 4) && len > 0; i++) {
   b8f4a:	3501      	adds	r5, #1
   b8f4c:	e7d1      	b.n	b8ef2 <_ZN8particle7BleUuid9constructEPKc+0x7e>
   b8f4e:	bf00      	nop
   b8f50:	000be9e2 	.word	0x000be9e2

000b8f54 <_ZN8particle7BleUuidC1EPKc>:
BleUuid::BleUuid(const char* uuid)
   b8f54:	b513      	push	{r0, r1, r4, lr}
   b8f56:	4604      	mov	r4, r0
   b8f58:	9101      	str	r1, [sp, #4]
        : BleUuid() {
   b8f5a:	f7ff ff15 	bl	b8d88 <_ZN8particle7BleUuidC1Ev>
    construct(uuid);
   b8f5e:	4620      	mov	r0, r4
   b8f60:	9901      	ldr	r1, [sp, #4]
   b8f62:	f7ff ff87 	bl	b8e74 <_ZN8particle7BleUuid9constructEPKc>
}
   b8f66:	4620      	mov	r0, r4
   b8f68:	b002      	add	sp, #8
   b8f6a:	bd10      	pop	{r4, pc}

000b8f6c <_ZN8particle21BleCharacteristicImplC1Ev>:
    BleCharacteristicImpl()
   b8f6c:	b538      	push	{r3, r4, r5, lr}
              dataReceivedCallback_(nullptr) {
   b8f6e:	f64f 73ff 	movw	r3, #65535	; 0xffff
   b8f72:	2500      	movs	r5, #0
    BleCharacteristicImpl()
   b8f74:	4604      	mov	r4, r0
              dataReceivedCallback_(nullptr) {
   b8f76:	8043      	strh	r3, [r0, #2]
   b8f78:	220e      	movs	r2, #14
   b8f7a:	4629      	mov	r1, r5
   b8f7c:	7005      	strb	r5, [r0, #0]
        : value_(0) {
}

template<typename T>
inline particle::EnumFlags<T, typename std::enable_if_t<std::is_enum<T>::value>>::EnumFlags(const T& value) {
    value_ = static_cast<ValueType>(value);
   b8f7e:	7105      	strb	r5, [r0, #4]
   b8f80:	3006      	adds	r0, #6
   b8f82:	f003 f919 	bl	bc1b8 <memset>
   b8f86:	f104 0014 	add.w	r0, r4, #20
   b8f8a:	f7ff fefd 	bl	b8d88 <_ZN8particle7BleUuidC1Ev>
   b8f8e:	f104 0028 	add.w	r0, r4, #40	; 0x28
   b8f92:	f7ff fef9 	bl	b8d88 <_ZN8particle7BleUuidC1Ev>
   b8f96:	4904      	ldr	r1, [pc, #16]	; (b8fa8 <_ZN8particle21BleCharacteristicImplC1Ev+0x3c>)
   b8f98:	f104 003c 	add.w	r0, r4, #60	; 0x3c
   b8f9c:	f001 fa67 	bl	ba46e <_ZN6StringC1EPK19__FlashStringHelper>
    _Function_base() : _M_manager(nullptr) { }
   b8fa0:	6565      	str	r5, [r4, #84]	; 0x54
    }
   b8fa2:	4620      	mov	r0, r4
   b8fa4:	bd38      	pop	{r3, r4, r5, pc}
   b8fa6:	bf00      	nop
   b8fa8:	000be7fe 	.word	0x000be7fe

000b8fac <_ZN8particle18BleLocalDeviceImpl14findPeerDeviceEt>:
    BlePeerDevice* findPeerDevice(BleConnectionHandle connHandle) {
   b8fac:	b510      	push	{r4, lr}
    return data_;
}

template<typename T, typename AllocatorT>
T* spark::Vector<T, AllocatorT>::end() {
    return data_ + size_;
   b8fae:	e9d0 3206 	ldrd	r3, r2, [r0, #24]
   b8fb2:	eb03 02c2 	add.w	r2, r3, r2, lsl #3
        for (auto& peer : peers_) {
   b8fb6:	4293      	cmp	r3, r2
   b8fb8:	4618      	mov	r0, r3
   b8fba:	d006      	beq.n	b8fca <_ZN8particle18BleLocalDeviceImpl14findPeerDeviceEt+0x1e>
            if (peer.impl()->connHandle() == connHandle) {
   b8fbc:	6804      	ldr	r4, [r0, #0]
   b8fbe:	8824      	ldrh	r4, [r4, #0]
   b8fc0:	428c      	cmp	r4, r1
   b8fc2:	f103 0308 	add.w	r3, r3, #8
   b8fc6:	d1f6      	bne.n	b8fb6 <_ZN8particle18BleLocalDeviceImpl14findPeerDeviceEt+0xa>
    }
   b8fc8:	bd10      	pop	{r4, pc}
        return nullptr;
   b8fca:	2000      	movs	r0, #0
   b8fcc:	e7fc      	b.n	b8fc8 <_ZN8particle18BleLocalDeviceImpl14findPeerDeviceEt+0x1c>
	...

000b8fd0 <_ZN8particle17BleCharacteristic8setValueEPKhjNS_11BleTxRxTypeE>:
    len = std::min(len, desc.length());
    memcpy(buf, desc.c_str(), len);
    return len;
}

ssize_t BleCharacteristic::setValue(const uint8_t* buf, size_t len, BleTxRxType type) {
   b8fd0:	b5f0      	push	{r4, r5, r6, r7, lr}
   b8fd2:	4606      	mov	r6, r0
   b8fd4:	b085      	sub	sp, #20
   b8fd6:	461f      	mov	r7, r3
    if (buf == nullptr || len == 0) {
   b8fd8:	460d      	mov	r5, r1
   b8fda:	2900      	cmp	r1, #0
   b8fdc:	d050      	beq.n	b9080 <_ZN8particle17BleCharacteristic8setValueEPKhjNS_11BleTxRxTypeE+0xb0>
   b8fde:	2a00      	cmp	r2, #0
   b8fe0:	d04e      	beq.n	b9080 <_ZN8particle17BleCharacteristic8setValueEPKhjNS_11BleTxRxTypeE+0xb0>
        { __shared_ptr(__p, std::move(__d), std::move(__a)).swap(*this); }

      /// Return the stored pointer.
      element_type*
      get() const noexcept
      { return _M_ptr; }
   b8fe2:	6804      	ldr	r4, [r0, #0]
        return SYSTEM_ERROR_INVALID_ARGUMENT;
    }
    len = std::min(len, (size_t)BLE_MAX_ATTR_VALUE_PACKET_SIZE);
    if (impl()->isLocal()) {
   b8fe4:	7823      	ldrb	r3, [r4, #0]
   b8fe6:	2af4      	cmp	r2, #244	; 0xf4
   b8fe8:	bf28      	it	cs
   b8fea:	22f4      	movcs	r2, #244	; 0xf4
   b8fec:	b343      	cbz	r3, b9040 <_ZN8particle17BleCharacteristic8setValueEPKhjNS_11BleTxRxTypeE+0x70>
    return (value_ > 0);
}

template<typename T>
inline bool particle::EnumFlags<T, typename std::enable_if_t<std::is_enum<T>::value>>::isSet(const EnumFlags<T>& flags) const {
    return ((value_ & flags.value_) == flags.value_);
   b8fee:	7923      	ldrb	r3, [r4, #4]
        int ret = SYSTEM_ERROR_NOT_SUPPORTED;
        // Updates the local characteristic value for peer to read.
        if (impl()->properties().isSet(BleCharacteristicProperty::READ)) {
   b8ff0:	0798      	lsls	r0, r3, #30
   b8ff2:	d509      	bpl.n	b9008 <_ZN8particle17BleCharacteristic8setValueEPKhjNS_11BleTxRxTypeE+0x38>
            ret = CHECK(hal_ble_gatt_server_set_characteristic_value(impl()->attrHandles().value_handle, buf, len, nullptr));
   b8ff4:	89a0      	ldrh	r0, [r4, #12]
   b8ff6:	9203      	str	r2, [sp, #12]
   b8ff8:	2300      	movs	r3, #0
   b8ffa:	f7ff fb0d 	bl	b8618 <hal_ble_gatt_server_set_characteristic_value>
   b8ffe:	2800      	cmp	r0, #0
   b9000:	9a03      	ldr	r2, [sp, #12]
   b9002:	da03      	bge.n	b900c <_ZN8particle17BleCharacteristic8setValueEPKhjNS_11BleTxRxTypeE+0x3c>
            return hal_ble_gatt_client_write_with_response(impl()->connHandle(), impl()->attrHandles().value_handle, buf, len, nullptr);
        }
        return SYSTEM_ERROR_NOT_SUPPORTED;
    }
    return SYSTEM_ERROR_INVALID_STATE;
}
   b9004:	b005      	add	sp, #20
   b9006:	bdf0      	pop	{r4, r5, r6, r7, pc}
        int ret = SYSTEM_ERROR_NOT_SUPPORTED;
   b9008:	f06f 0077 	mvn.w	r0, #119	; 0x77
   b900c:	6834      	ldr	r4, [r6, #0]
   b900e:	7923      	ldrb	r3, [r4, #4]
        if (impl()->properties().isSet(BleCharacteristicProperty::NOTIFY) && type != BleTxRxType::ACK) {
   b9010:	06d9      	lsls	r1, r3, #27
   b9012:	d509      	bpl.n	b9028 <_ZN8particle17BleCharacteristic8setValueEPKhjNS_11BleTxRxTypeE+0x58>
   b9014:	2f01      	cmp	r7, #1
   b9016:	d007      	beq.n	b9028 <_ZN8particle17BleCharacteristic8setValueEPKhjNS_11BleTxRxTypeE+0x58>
            return hal_ble_gatt_server_notify_characteristic_value(impl()->attrHandles().value_handle, buf, len, nullptr);
   b9018:	89a0      	ldrh	r0, [r4, #12]
   b901a:	2300      	movs	r3, #0
   b901c:	4629      	mov	r1, r5
}
   b901e:	b005      	add	sp, #20
   b9020:	e8bd 40f0 	ldmia.w	sp!, {r4, r5, r6, r7, lr}
            return hal_ble_gatt_server_notify_characteristic_value(impl()->attrHandles().value_handle, buf, len, nullptr);
   b9024:	f7ff bb2a 	b.w	b867c <hal_ble_gatt_server_notify_characteristic_value>
        if (impl()->properties().isSet(BleCharacteristicProperty::INDICATE) && type != BleTxRxType::NACK) {
   b9028:	069b      	lsls	r3, r3, #26
   b902a:	d5eb      	bpl.n	b9004 <_ZN8particle17BleCharacteristic8setValueEPKhjNS_11BleTxRxTypeE+0x34>
   b902c:	2f02      	cmp	r7, #2
   b902e:	d0e9      	beq.n	b9004 <_ZN8particle17BleCharacteristic8setValueEPKhjNS_11BleTxRxTypeE+0x34>
            return hal_ble_gatt_server_indicate_characteristic_value(impl()->attrHandles().value_handle, buf, len, nullptr);
   b9030:	89a0      	ldrh	r0, [r4, #12]
   b9032:	2300      	movs	r3, #0
   b9034:	4629      	mov	r1, r5
}
   b9036:	b005      	add	sp, #20
   b9038:	e8bd 40f0 	ldmia.w	sp!, {r4, r5, r6, r7, lr}
            return hal_ble_gatt_server_indicate_characteristic_value(impl()->attrHandles().value_handle, buf, len, nullptr);
   b903c:	f7ff bb28 	b.w	b8690 <hal_ble_gatt_server_indicate_characteristic_value>
    if (impl()->connHandle() != BLE_INVALID_CONN_HANDLE) {
   b9040:	8860      	ldrh	r0, [r4, #2]
   b9042:	f64f 71ff 	movw	r1, #65535	; 0xffff
   b9046:	4288      	cmp	r0, r1
   b9048:	d01c      	beq.n	b9084 <_ZN8particle17BleCharacteristic8setValueEPKhjNS_11BleTxRxTypeE+0xb4>
   b904a:	7921      	ldrb	r1, [r4, #4]
        if (impl()->properties().isSet(BleCharacteristicProperty::WRITE_WO_RSP) && type != BleTxRxType::ACK) {
   b904c:	074e      	lsls	r6, r1, #29
   b904e:	d501      	bpl.n	b9054 <_ZN8particle17BleCharacteristic8setValueEPKhjNS_11BleTxRxTypeE+0x84>
   b9050:	2f01      	cmp	r7, #1
   b9052:	d104      	bne.n	b905e <_ZN8particle17BleCharacteristic8setValueEPKhjNS_11BleTxRxTypeE+0x8e>
        if (impl()->properties().isSet(BleCharacteristicProperty::WRITE) && type != BleTxRxType::NACK) {
   b9054:	070b      	lsls	r3, r1, #28
   b9056:	d409      	bmi.n	b906c <_ZN8particle17BleCharacteristic8setValueEPKhjNS_11BleTxRxTypeE+0x9c>
        return SYSTEM_ERROR_NOT_SUPPORTED;
   b9058:	f06f 0077 	mvn.w	r0, #119	; 0x77
   b905c:	e7d2      	b.n	b9004 <_ZN8particle17BleCharacteristic8setValueEPKhjNS_11BleTxRxTypeE+0x34>
            return hal_ble_gatt_client_write_without_response(impl()->connHandle(), impl()->attrHandles().value_handle, buf, len, nullptr);
   b905e:	89a1      	ldrh	r1, [r4, #12]
   b9060:	9300      	str	r3, [sp, #0]
   b9062:	4613      	mov	r3, r2
   b9064:	462a      	mov	r2, r5
   b9066:	f7ff faeb 	bl	b8640 <hal_ble_gatt_client_write_without_response>
   b906a:	e7cb      	b.n	b9004 <_ZN8particle17BleCharacteristic8setValueEPKhjNS_11BleTxRxTypeE+0x34>
        if (impl()->properties().isSet(BleCharacteristicProperty::WRITE) && type != BleTxRxType::NACK) {
   b906c:	2f02      	cmp	r7, #2
   b906e:	d0f3      	beq.n	b9058 <_ZN8particle17BleCharacteristic8setValueEPKhjNS_11BleTxRxTypeE+0x88>
            return hal_ble_gatt_client_write_with_response(impl()->connHandle(), impl()->attrHandles().value_handle, buf, len, nullptr);
   b9070:	2300      	movs	r3, #0
   b9072:	89a1      	ldrh	r1, [r4, #12]
   b9074:	9300      	str	r3, [sp, #0]
   b9076:	4613      	mov	r3, r2
   b9078:	462a      	mov	r2, r5
   b907a:	f7ff fad7 	bl	b862c <hal_ble_gatt_client_write_with_response>
   b907e:	e7c1      	b.n	b9004 <_ZN8particle17BleCharacteristic8setValueEPKhjNS_11BleTxRxTypeE+0x34>
        return SYSTEM_ERROR_INVALID_ARGUMENT;
   b9080:	4802      	ldr	r0, [pc, #8]	; (b908c <_ZN8particle17BleCharacteristic8setValueEPKhjNS_11BleTxRxTypeE+0xbc>)
   b9082:	e7bf      	b.n	b9004 <_ZN8particle17BleCharacteristic8setValueEPKhjNS_11BleTxRxTypeE+0x34>
    return SYSTEM_ERROR_INVALID_STATE;
   b9084:	f06f 00d1 	mvn.w	r0, #209	; 0xd1
   b9088:	e7bc      	b.n	b9004 <_ZN8particle17BleCharacteristic8setValueEPKhjNS_11BleTxRxTypeE+0x34>
   b908a:	bf00      	nop
   b908c:	fffffef2 	.word	0xfffffef2

000b9090 <_ZN8particle17BleCharacteristic8setValueEPKcNS_11BleTxRxTypeE>:

ssize_t BleCharacteristic::setValue(const String& str, BleTxRxType type) {
    return setValue(reinterpret_cast<const uint8_t*>(str.c_str()), str.length(), type);
}

ssize_t BleCharacteristic::setValue(const char* str, BleTxRxType type) {
   b9090:	b537      	push	{r0, r1, r2, r4, r5, lr}
   b9092:	460c      	mov	r4, r1
   b9094:	4605      	mov	r5, r0
    return setValue(reinterpret_cast<const uint8_t*>(str), strnlen(str, BLE_MAX_ATTR_VALUE_PACKET_SIZE), type);
   b9096:	21f4      	movs	r1, #244	; 0xf4
   b9098:	4620      	mov	r0, r4
ssize_t BleCharacteristic::setValue(const char* str, BleTxRxType type) {
   b909a:	9201      	str	r2, [sp, #4]
    return setValue(reinterpret_cast<const uint8_t*>(str), strnlen(str, BLE_MAX_ATTR_VALUE_PACKET_SIZE), type);
   b909c:	f003 f8f0 	bl	bc280 <strnlen>
   b90a0:	9b01      	ldr	r3, [sp, #4]
   b90a2:	4602      	mov	r2, r0
   b90a4:	4621      	mov	r1, r4
   b90a6:	4628      	mov	r0, r5
}
   b90a8:	b003      	add	sp, #12
   b90aa:	e8bd 4030 	ldmia.w	sp!, {r4, r5, lr}
    return setValue(reinterpret_cast<const uint8_t*>(str), strnlen(str, BLE_MAX_ATTR_VALUE_PACKET_SIZE), type);
   b90ae:	f7ff bf8f 	b.w	b8fd0 <_ZN8particle17BleCharacteristic8setValueEPKhjNS_11BleTxRxTypeE>
	...

000b90b4 <_ZN8particle10BleServiceC1ERKNS_7BleUuidE>:
    if (!impl()) {
        SPARK_ASSERT(false);
    }
}

BleService::BleService(const BleUuid& uuid)
   b90b4:	e92d 41f0 	stmdb	sp!, {r4, r5, r6, r7, r8, lr}

    protected:
      // This constructor is non-standard, it is used by allocate_shared.
      template<typename _Alloc, typename... _Args>
	__shared_ptr(_Sp_alloc_shared_tag<_Alloc> __tag, _Args&&... __args)
	: _M_ptr(), _M_refcount(_M_ptr, __tag, std::forward<_Args>(__args)...)
   b90b8:	2600      	movs	r6, #0
   b90ba:	6006      	str	r6, [r0, #0]
   b90bc:	4607      	mov	r7, r0
	return static_cast<_Tp*>(::operator new(__n * sizeof(_Tp)));
   b90be:	2028      	movs	r0, #40	; 0x28
   b90c0:	460c      	mov	r4, r1
   b90c2:	f7fa ffe8 	bl	b4096 <_Znwj>
	  auto __pi = ::new (__mem)
   b90c6:	1e05      	subs	r5, r0, #0
   b90c8:	f105 080c 	add.w	r8, r5, #12
   b90cc:	d00f      	beq.n	b90ee <_ZN8particle10BleServiceC1ERKNS_7BleUuidE+0x3a>
      : _M_use_count(1), _M_weak_count(1) { }
   b90ce:	2301      	movs	r3, #1
   b90d0:	e9c5 3301 	strd	r3, r3, [r5, #4]
	: _M_impl(__a)
   b90d4:	4b08      	ldr	r3, [pc, #32]	; (b90f8 <_ZN8particle10BleServiceC1ERKNS_7BleUuidE+0x44>)
   b90d6:	602b      	str	r3, [r5, #0]
              characteristicsDiscovered_(false) {
   b90d8:	4640      	mov	r0, r8
   b90da:	f7ff fe55 	bl	b8d88 <_ZN8particle7BleUuidC1Ev>
        uuid_ = svcUuid;
   b90de:	cc0f      	ldmia	r4!, {r0, r1, r2, r3}
              characteristicsDiscovered_(false) {
   b90e0:	622e      	str	r6, [r5, #32]
   b90e2:	f885 6024 	strb.w	r6, [r5, #36]	; 0x24
        uuid_ = svcUuid;
   b90e6:	4646      	mov	r6, r8
   b90e8:	c60f      	stmia	r6!, {r0, r1, r2, r3}
   b90ea:	6823      	ldr	r3, [r4, #0]
   b90ec:	6033      	str	r3, [r6, #0]
	  __p = __pi->_M_ptr();
   b90ee:	e9c7 8500 	strd	r8, r5, [r7]
        : impl_(std::make_shared<BleServiceImpl>(uuid)) {
    if (!impl()) {
        SPARK_ASSERT(false);
    }
}
   b90f2:	4638      	mov	r0, r7
   b90f4:	e8bd 81f0 	ldmia.w	sp!, {r4, r5, r6, r7, r8, pc}
   b90f8:	000be9a4 	.word	0x000be9a4

000b90fc <_ZN8particle13BlePeerDeviceC1Ev>:


/*******************************************************
 * BlePeerDevice class
 */
BlePeerDevice::BlePeerDevice()
   b90fc:	b570      	push	{r4, r5, r6, lr}
	: _M_ptr(), _M_refcount(_M_ptr, __tag, std::forward<_Args>(__args)...)
   b90fe:	2500      	movs	r5, #0
   b9100:	6005      	str	r5, [r0, #0]
   b9102:	4606      	mov	r6, r0
   b9104:	2030      	movs	r0, #48	; 0x30
   b9106:	f7fa ffc6 	bl	b4096 <_Znwj>
	  auto __pi = ::new (__mem)
   b910a:	4604      	mov	r4, r0
   b910c:	b188      	cbz	r0, b9132 <_ZN8particle13BlePeerDeviceC1Ev+0x36>
      : _M_use_count(1), _M_weak_count(1) { }
   b910e:	2301      	movs	r3, #1
   b9110:	e9c0 3301 	strd	r3, r3, [r0, #4]
	: _M_impl(__a)
   b9114:	4b09      	ldr	r3, [pc, #36]	; (b913c <_ZN8particle13BlePeerDeviceC1Ev+0x40>)
   b9116:	6003      	str	r3, [r0, #0]
              servicesDiscovered_(false) {
   b9118:	f64f 73ff 	movw	r3, #65535	; 0xffff
   b911c:	8183      	strh	r3, [r0, #12]
   b911e:	300e      	adds	r0, #14
   b9120:	f7ff fe27 	bl	b8d72 <_ZN8particle10BleAddressC1Ev>
        capacity_(0) {
   b9124:	e9c4 5506 	strd	r5, r5, [r4, #24]
   b9128:	e9c4 5508 	strd	r5, r5, [r4, #32]
   b912c:	e9c4 550a 	strd	r5, r5, [r4, #40]	; 0x28
   b9130:	75a5      	strb	r5, [r4, #22]
	  _M_pi = __pi;
   b9132:	6074      	str	r4, [r6, #4]
   b9134:	340c      	adds	r4, #12
	  __p = __pi->_M_ptr();
   b9136:	6034      	str	r4, [r6, #0]
        : impl_(std::make_shared<BlePeerDeviceImpl>()) {
    if (!impl()) {
        SPARK_ASSERT(false);
    }
}
   b9138:	4630      	mov	r0, r6
   b913a:	bd70      	pop	{r4, r5, r6, pc}
   b913c:	000be9c0 	.word	0x000be9c0

000b9140 <_ZNK8particle13BlePeerDevice7addressEv>:
void BlePeerDevice::bind(const BleAddress& address) const {
    WiringBleLock lk;
    impl()->address() = address;
}

BleAddress BlePeerDevice::address() const {
   b9140:	b537      	push	{r0, r1, r2, r4, r5, lr}
   b9142:	460d      	mov	r5, r1
   b9144:	4604      	mov	r4, r0
    WiringBleLock lk;
   b9146:	a801      	add	r0, sp, #4
   b9148:	f7ff fdd8 	bl	b8cfc <_ZN8particle3ble13WiringBleLockC1Ev>
      { return _M_ptr; }
   b914c:	682a      	ldr	r2, [r5, #0]
    address_ = addr.address_;
   b914e:	f8d2 3002 	ldr.w	r3, [r2, #2]
   b9152:	6023      	str	r3, [r4, #0]
   b9154:	f8d2 3006 	ldr.w	r3, [r2, #6]
   b9158:	6063      	str	r3, [r4, #4]
    WiringBleLock lk;
   b915a:	a801      	add	r0, sp, #4
   b915c:	f7ff fddc 	bl	b8d18 <_ZN8particle3ble13WiringBleLockD1Ev>
    return impl()->address();
}
   b9160:	4620      	mov	r0, r4
   b9162:	b003      	add	sp, #12
   b9164:	bd30      	pop	{r4, r5, pc}

000b9166 <_ZNK8particle13BlePeerDeviceeqERKS0_>:
bool BlePeerDevice::isValid() const {
    WiringBleLock lk;
    return impl()->connHandle() != BLE_INVALID_CONN_HANDLE;
}

bool BlePeerDevice::operator==(const BlePeerDevice& device) const {
   b9166:	b530      	push	{r4, r5, lr}
   b9168:	4605      	mov	r5, r0
   b916a:	b087      	sub	sp, #28
   b916c:	460c      	mov	r4, r1
    WiringBleLock lk;
   b916e:	a801      	add	r0, sp, #4
   b9170:	f7ff fdc4 	bl	b8cfc <_ZN8particle3ble13WiringBleLockC1Ev>
    if (impl()->connHandle() == device.impl()->connHandle() && address() == device.address()) {
   b9174:	682a      	ldr	r2, [r5, #0]
   b9176:	6823      	ldr	r3, [r4, #0]
   b9178:	8812      	ldrh	r2, [r2, #0]
   b917a:	881b      	ldrh	r3, [r3, #0]
   b917c:	429a      	cmp	r2, r3
   b917e:	d10d      	bne.n	b919c <_ZNK8particle13BlePeerDeviceeqERKS0_+0x36>
   b9180:	4629      	mov	r1, r5
   b9182:	a802      	add	r0, sp, #8
   b9184:	f7ff ffdc 	bl	b9140 <_ZNK8particle13BlePeerDevice7addressEv>
   b9188:	4621      	mov	r1, r4
   b918a:	a804      	add	r0, sp, #16
   b918c:	f7ff ffd8 	bl	b9140 <_ZNK8particle13BlePeerDevice7addressEv>
   b9190:	a904      	add	r1, sp, #16
   b9192:	a802      	add	r0, sp, #8
   b9194:	f7ff fdd9 	bl	b8d4a <_ZNK8particle10BleAddresseqERKS0_>
   b9198:	4604      	mov	r4, r0
   b919a:	b900      	cbnz	r0, b919e <_ZNK8particle13BlePeerDeviceeqERKS0_+0x38>
        return true;
    }
    return false;
   b919c:	2400      	movs	r4, #0
    WiringBleLock lk;
   b919e:	a801      	add	r0, sp, #4
   b91a0:	f7ff fdba 	bl	b8d18 <_ZN8particle3ble13WiringBleLockD1Ev>
}
   b91a4:	4620      	mov	r0, r4
   b91a6:	b007      	add	sp, #28
   b91a8:	bd30      	pop	{r4, r5, pc}
	...

000b91ac <_ZN8particle14BleLocalDeviceC1Ev>:


/*******************************************************
 * BleLocalDevice class
 */
BleLocalDevice::BleLocalDevice()
   b91ac:	b510      	push	{r4, lr}
   b91ae:	4604      	mov	r4, r0

  /// std::make_unique for single objects
  template<typename _Tp, typename... _Args>
    inline typename _MakeUniq<_Tp>::__single_object
    make_unique(_Args&&... __args)
    { return unique_ptr<_Tp>(new _Tp(std::forward<_Args>(__args)...)); }
   b91b0:	2064      	movs	r0, #100	; 0x64
   b91b2:	f7fa ff70 	bl	b4096 <_Znwj>
   b91b6:	b168      	cbz	r0, b91d4 <_ZN8particle14BleLocalDeviceC1Ev+0x28>
   b91b8:	2300      	movs	r3, #0
   b91ba:	e9c0 3300 	strd	r3, r3, [r0]
   b91be:	e9c0 3302 	strd	r3, r3, [r0, #8]
   b91c2:	e9c0 3304 	strd	r3, r3, [r0, #16]
   b91c6:	e9c0 3306 	strd	r3, r3, [r0, #24]
   b91ca:	6203      	str	r3, [r0, #32]
   b91cc:	62c3      	str	r3, [r0, #44]	; 0x2c
   b91ce:	63c3      	str	r3, [r0, #60]	; 0x3c
   b91d0:	64c3      	str	r3, [r0, #76]	; 0x4c
   b91d2:	65c3      	str	r3, [r0, #92]	; 0x5c
      __uniq_ptr_impl(pointer __p) : _M_t() { _M_ptr() = __p; }
   b91d4:	6020      	str	r0, [r4, #0]
        : impl_(std::make_unique<BleLocalDeviceImpl>()) {
    if (!impl()) {
   b91d6:	b920      	cbnz	r0, b91e2 <_ZN8particle14BleLocalDeviceC1Ev+0x36>
        SPARK_ASSERT(false);
   b91d8:	4a0a      	ldr	r2, [pc, #40]	; (b9204 <_ZN8particle14BleLocalDeviceC1Ev+0x58>)
   b91da:	490b      	ldr	r1, [pc, #44]	; (b9208 <_ZN8particle14BleLocalDeviceC1Ev+0x5c>)
   b91dc:	200a      	movs	r0, #10
   b91de:	f7ff fbb1 	bl	b8944 <panic_>
    }
    SPARK_ASSERT(hal_ble_stack_init(nullptr) == SYSTEM_ERROR_NONE);
   b91e2:	2000      	movs	r0, #0
   b91e4:	f7ff f9e4 	bl	b85b0 <hal_ble_stack_init>
   b91e8:	b120      	cbz	r0, b91f4 <_ZN8particle14BleLocalDeviceC1Ev+0x48>
   b91ea:	4a06      	ldr	r2, [pc, #24]	; (b9204 <_ZN8particle14BleLocalDeviceC1Ev+0x58>)
   b91ec:	4907      	ldr	r1, [pc, #28]	; (b920c <_ZN8particle14BleLocalDeviceC1Ev+0x60>)
   b91ee:	200a      	movs	r0, #10
   b91f0:	f7ff fba8 	bl	b8944 <panic_>
    hal_ble_set_callback_on_periph_link_events(impl()->onBleLinkEvents, impl(), nullptr);
   b91f4:	6821      	ldr	r1, [r4, #0]
   b91f6:	4806      	ldr	r0, [pc, #24]	; (b9210 <_ZN8particle14BleLocalDeviceC1Ev+0x64>)
   b91f8:	2200      	movs	r2, #0
   b91fa:	f7ff fa35 	bl	b8668 <hal_ble_set_callback_on_periph_link_events>
}
   b91fe:	4620      	mov	r0, r4
   b9200:	bd10      	pop	{r4, pc}
   b9202:	bf00      	nop
   b9204:	000b86e5 	.word	0x000b86e5
   b9208:	000be834 	.word	0x000be834
   b920c:	000be872 	.word	0x000be872
   b9210:	000b9795 	.word	0x000b9795

000b9214 <_ZN8particle14BleLocalDevice11getInstanceEv>:

BleLocalDevice& BleLocalDevice::getInstance() {
   b9214:	b510      	push	{r4, lr}
    static BleLocalDevice instance;
   b9216:	4c0a      	ldr	r4, [pc, #40]	; (b9240 <_ZN8particle14BleLocalDevice11getInstanceEv+0x2c>)
   b9218:	7823      	ldrb	r3, [r4, #0]
   b921a:	f3bf 8f5b 	dmb	ish
   b921e:	07db      	lsls	r3, r3, #31
   b9220:	d40c      	bmi.n	b923c <_ZN8particle14BleLocalDevice11getInstanceEv+0x28>
   b9222:	4620      	mov	r0, r4
   b9224:	f7fa ff3f 	bl	b40a6 <__cxa_guard_acquire>
   b9228:	b140      	cbz	r0, b923c <_ZN8particle14BleLocalDevice11getInstanceEv+0x28>
   b922a:	4806      	ldr	r0, [pc, #24]	; (b9244 <_ZN8particle14BleLocalDevice11getInstanceEv+0x30>)
   b922c:	f7ff ffbe 	bl	b91ac <_ZN8particle14BleLocalDeviceC1Ev>
   b9230:	4620      	mov	r0, r4
   b9232:	f7fa ff3d 	bl	b40b0 <__cxa_guard_release>
   b9236:	4804      	ldr	r0, [pc, #16]	; (b9248 <_ZN8particle14BleLocalDevice11getInstanceEv+0x34>)
   b9238:	f002 ff7c 	bl	bc134 <atexit>
    return instance;
}
   b923c:	4801      	ldr	r0, [pc, #4]	; (b9244 <_ZN8particle14BleLocalDevice11getInstanceEv+0x30>)
   b923e:	bd10      	pop	{r4, pc}
   b9240:	2003e6b8 	.word	0x2003e6b8
   b9244:	2003e6c4 	.word	0x2003e6c4
   b9248:	000b9461 	.word	0x000b9461

000b924c <_ZN8particle21BleCharacteristicImpl15onBleCharEventsEPK18hal_ble_char_evt_tPv>:
void BleCharacteristicImpl::onBleCharEvents(const hal_ble_char_evt_t *event, void* context) {
   b924c:	b530      	push	{r4, r5, lr}
    switch (event->type) {
   b924e:	6803      	ldr	r3, [r0, #0]
   b9250:	3b09      	subs	r3, #9
   b9252:	2b01      	cmp	r3, #1
void BleCharacteristicImpl::onBleCharEvents(const hal_ble_char_evt_t *event, void* context) {
   b9254:	b08d      	sub	sp, #52	; 0x34
   b9256:	4604      	mov	r4, r0
   b9258:	460d      	mov	r5, r1
    switch (event->type) {
   b925a:	d811      	bhi.n	b9280 <_ZN8particle21BleCharacteristicImpl15onBleCharEventsEPK18hal_ble_char_evt_tPv+0x34>
            auto peer = BleLocalDevice::getInstance().impl()->findPeerDevice(event->conn_handle);
   b925c:	f7ff ffda 	bl	b9214 <_ZN8particle14BleLocalDevice11getInstanceEv>
   b9260:	88a1      	ldrh	r1, [r4, #4]
   b9262:	6800      	ldr	r0, [r0, #0]
   b9264:	f7ff fea2 	bl	b8fac <_ZN8particle18BleLocalDeviceImpl14findPeerDeviceEt>
            if (!peer) {
   b9268:	4603      	mov	r3, r0
   b926a:	b958      	cbnz	r0, b9284 <_ZN8particle21BleCharacteristicImpl15onBleCharEventsEPK18hal_ble_char_evt_tPv+0x38>
                LOG(ERROR, "Peer device is missing!");
   b926c:	2220      	movs	r2, #32
   b926e:	e9cd 2004 	strd	r2, r0, [sp, #16]
   b9272:	4a0b      	ldr	r2, [pc, #44]	; (b92a0 <_ZN8particle21BleCharacteristicImpl15onBleCharEventsEPK18hal_ble_char_evt_tPv+0x54>)
   b9274:	9200      	str	r2, [sp, #0]
   b9276:	490b      	ldr	r1, [pc, #44]	; (b92a4 <_ZN8particle21BleCharacteristicImpl15onBleCharEventsEPK18hal_ble_char_evt_tPv+0x58>)
   b9278:	aa04      	add	r2, sp, #16
   b927a:	2032      	movs	r0, #50	; 0x32
   b927c:	f7ff fb6a 	bl	b8954 <log_message>
}
   b9280:	b00d      	add	sp, #52	; 0x34
   b9282:	bd30      	pop	{r4, r5, pc}
            if (impl->dataReceivedCallback_) {
   b9284:	6d6a      	ldr	r2, [r5, #84]	; 0x54
   b9286:	2a00      	cmp	r2, #0
   b9288:	d0fa      	beq.n	b9280 <_ZN8particle21BleCharacteristicImpl15onBleCharEventsEPK18hal_ble_char_evt_tPv+0x34>
                impl->dataReceivedCallback_(event->params.data_written.data, event->params.data_written.len, *peer);
   b928a:	e9d4 2103 	ldrd	r2, r1, [r4, #12]
    function<_Res(_ArgTypes...)>::
    operator()(_ArgTypes... __args) const
    {
      if (_M_empty())
	__throw_bad_function_call();
      return _M_invoker(_M_functor, std::forward<_ArgTypes>(__args)...);
   b928e:	f105 004c 	add.w	r0, r5, #76	; 0x4c
   b9292:	e9cd 1203 	strd	r1, r2, [sp, #12]
   b9296:	6dac      	ldr	r4, [r5, #88]	; 0x58
   b9298:	aa04      	add	r2, sp, #16
   b929a:	a903      	add	r1, sp, #12
   b929c:	47a0      	blx	r4
}
   b929e:	e7ef      	b.n	b9280 <_ZN8particle21BleCharacteristicImpl15onBleCharEventsEPK18hal_ble_char_evt_tPv+0x34>
   b92a0:	000be8b4 	.word	0x000be8b4
   b92a4:	000be84b 	.word	0x000be84b

000b92a8 <_ZNK8particle14BleLocalDevice2onEv>:
    stopAdvertising(); // BLE HAL will guard that device keeps broadcasting if device is in the Listening/Provisioning mode.
    stopScanning();
    return SYSTEM_ERROR_NONE;
}

int BleLocalDevice::on() const {
   b92a8:	b508      	push	{r3, lr}
    CHECK(hal_ble_stack_init(nullptr));
   b92aa:	2000      	movs	r0, #0
   b92ac:	f7ff f980 	bl	b85b0 <hal_ble_stack_init>
    return SYSTEM_ERROR_NONE;
}
   b92b0:	ea00 70e0 	and.w	r0, r0, r0, asr #31
   b92b4:	bd08      	pop	{r3, pc}

000b92b6 <_ZNK8particle14BleLocalDevice18setAdvertisingDataEPNS_18BleAdvertisingDataE>:
int BleLocalDevice::getAdvertisingParameters(BleAdvertisingParams& params) const {
    return getAdvertisingParameters(&params);
}

int BleLocalDevice::setAdvertisingData(BleAdvertisingData* advertisingData) const {
    if (advertisingData == nullptr) {
   b92b6:	b919      	cbnz	r1, b92c0 <_ZNK8particle14BleLocalDevice18setAdvertisingDataEPNS_18BleAdvertisingDataE+0xa>
        return hal_ble_gap_set_advertising_data(nullptr, 0, nullptr);
   b92b8:	460a      	mov	r2, r1
   b92ba:	4608      	mov	r0, r1
    } else {
        return hal_ble_gap_set_advertising_data(advertisingData->data(), advertisingData->length(), nullptr);
   b92bc:	f7ff b980 	b.w	b85c0 <hal_ble_gap_set_advertising_data>
   b92c0:	e9d1 0100 	ldrd	r0, r1, [r1]
   b92c4:	2200      	movs	r2, #0
   b92c6:	e7f9      	b.n	b92bc <_ZNK8particle14BleLocalDevice18setAdvertisingDataEPNS_18BleAdvertisingDataE+0x6>

000b92c8 <_ZN5spark6VectorIhNS_16DefaultAllocatorEE8removeAtEii>:
inline void spark::Vector<T, AllocatorT>::removeAt(int i, int n) {
   b92c8:	b538      	push	{r3, r4, r5, lr}
    if (n < 0 || i + n > size_) {
   b92ca:	1e14      	subs	r4, r2, #0
   b92cc:	6843      	ldr	r3, [r0, #4]
inline void spark::Vector<T, AllocatorT>::removeAt(int i, int n) {
   b92ce:	4605      	mov	r5, r0
    if (n < 0 || i + n > size_) {
   b92d0:	db02      	blt.n	b92d8 <_ZN5spark6VectorIhNS_16DefaultAllocatorEE8removeAtEii+0x10>
   b92d2:	1862      	adds	r2, r4, r1
   b92d4:	429a      	cmp	r2, r3
   b92d6:	dd00      	ble.n	b92da <_ZN5spark6VectorIhNS_16DefaultAllocatorEE8removeAtEii+0x12>
        n = size_ - i;
   b92d8:	1a5c      	subs	r4, r3, r1
    T* const p = data_ + i;
   b92da:	682a      	ldr	r2, [r5, #0]
   b92dc:	1850      	adds	r0, r2, r1
    destruct(p, p + n);
   b92de:	1901      	adds	r1, r0, r4
    move(p, p + n, data_ + size_);
   b92e0:	441a      	add	r2, r3
        ::memmove(dest, p, (end - p) * sizeof(T));
   b92e2:	1a52      	subs	r2, r2, r1
   b92e4:	f002 ff4e 	bl	bc184 <memmove>
    size_ -= n;
   b92e8:	686a      	ldr	r2, [r5, #4]
   b92ea:	1b12      	subs	r2, r2, r4
   b92ec:	606a      	str	r2, [r5, #4]
}
   b92ee:	bd38      	pop	{r3, r4, r5, pc}

000b92f0 <_ZN8particle18BleAdvertisingData6removeENS_22BleAdvertisingDataTypeE>:
void BleAdvertisingData::remove(BleAdvertisingDataType type) {
   b92f0:	b537      	push	{r0, r1, r2, r4, r5, lr}
    if (offset == nullptr) {
   b92f2:	460a      	mov	r2, r1
void BleAdvertisingData::remove(BleAdvertisingDataType type) {
   b92f4:	4604      	mov	r4, r0
   b92f6:	460d      	mov	r5, r1
   b92f8:	ab01      	add	r3, sp, #4
   b92fa:	e9d0 0100 	ldrd	r0, r1, [r0]
   b92fe:	f7ff fc73 	bl	b8be8 <_ZN8particle18BleAdvertisingData6locateEPKhjNS_22BleAdvertisingDataTypeEPj.part.0>
    if (len > 0) {
   b9302:	4602      	mov	r2, r0
   b9304:	b138      	cbz	r0, b9316 <_ZN8particle18BleAdvertisingData6removeENS_22BleAdvertisingDataTypeE+0x26>
        selfData_.removeAt(offset, len);
   b9306:	9901      	ldr	r1, [sp, #4]
   b9308:	4620      	mov	r0, r4
   b930a:	f7ff ffdd 	bl	b92c8 <_ZN5spark6VectorIhNS_16DefaultAllocatorEE8removeAtEii>
        remove(type);
   b930e:	4629      	mov	r1, r5
   b9310:	4620      	mov	r0, r4
   b9312:	f7ff ffed 	bl	b92f0 <_ZN8particle18BleAdvertisingData6removeENS_22BleAdvertisingDataTypeE>
}
   b9316:	b003      	add	sp, #12
   b9318:	bd30      	pop	{r4, r5, pc}

000b931a <_ZNK8particle14BleLocalDevice19setScanResponseDataEPNS_18BleAdvertisingDataE>:

int BleLocalDevice::setAdvertisingData(BleAdvertisingData& advertisingData) const {
    return setAdvertisingData(&advertisingData);
}

int BleLocalDevice::setScanResponseData(BleAdvertisingData* scanResponse) const {
   b931a:	b510      	push	{r4, lr}
    if (scanResponse == nullptr) {
   b931c:	460c      	mov	r4, r1
   b931e:	b929      	cbnz	r1, b932c <_ZNK8particle14BleLocalDevice19setScanResponseDataEPNS_18BleAdvertisingDataE+0x12>
        return hal_ble_gap_set_scan_response_data(nullptr, 0, nullptr);
   b9320:	460a      	mov	r2, r1
   b9322:	4608      	mov	r0, r1
    } else {
        scanResponse->remove(BleAdvertisingDataType::FLAGS);
        return hal_ble_gap_set_scan_response_data(scanResponse->data(), scanResponse->length(), nullptr);
    }
}
   b9324:	e8bd 4010 	ldmia.w	sp!, {r4, lr}
        return hal_ble_gap_set_scan_response_data(scanResponse->data(), scanResponse->length(), nullptr);
   b9328:	f7ff b952 	b.w	b85d0 <hal_ble_gap_set_scan_response_data>
        scanResponse->remove(BleAdvertisingDataType::FLAGS);
   b932c:	2101      	movs	r1, #1
   b932e:	4620      	mov	r0, r4
   b9330:	f7ff ffde 	bl	b92f0 <_ZN8particle18BleAdvertisingData6removeENS_22BleAdvertisingDataTypeE>
        return hal_ble_gap_set_scan_response_data(scanResponse->data(), scanResponse->length(), nullptr);
   b9334:	e9d4 0100 	ldrd	r0, r1, [r4]
   b9338:	2200      	movs	r2, #0
   b933a:	e7f3      	b.n	b9324 <_ZNK8particle14BleLocalDevice19setScanResponseDataEPNS_18BleAdvertisingDataE+0xa>

000b933c <_ZNK8particle14BleLocalDevice9advertiseEPNS_18BleAdvertisingDataES2_>:

int BleLocalDevice::advertise() const {
    return hal_ble_gap_start_advertising(nullptr);
}

int BleLocalDevice::advertise(BleAdvertisingData* advertisingData, BleAdvertisingData* scanResponse) const {
   b933c:	b538      	push	{r3, r4, r5, lr}
   b933e:	4604      	mov	r4, r0
   b9340:	4615      	mov	r5, r2
    CHECK(setAdvertisingData(advertisingData));
   b9342:	f7ff ffb8 	bl	b92b6 <_ZNK8particle14BleLocalDevice18setAdvertisingDataEPNS_18BleAdvertisingDataE>
   b9346:	2800      	cmp	r0, #0
   b9348:	db0a      	blt.n	b9360 <_ZNK8particle14BleLocalDevice9advertiseEPNS_18BleAdvertisingDataES2_+0x24>
    CHECK(setScanResponseData(scanResponse));
   b934a:	4629      	mov	r1, r5
   b934c:	4620      	mov	r0, r4
   b934e:	f7ff ffe4 	bl	b931a <_ZNK8particle14BleLocalDevice19setScanResponseDataEPNS_18BleAdvertisingDataE>
   b9352:	2800      	cmp	r0, #0
   b9354:	db04      	blt.n	b9360 <_ZNK8particle14BleLocalDevice9advertiseEPNS_18BleAdvertisingDataES2_+0x24>
    return advertise();
}
   b9356:	e8bd 4038 	ldmia.w	sp!, {r3, r4, r5, lr}
    return hal_ble_gap_start_advertising(nullptr);
   b935a:	2000      	movs	r0, #0
   b935c:	f7ff b940 	b.w	b85e0 <hal_ble_gap_start_advertising>
}
   b9360:	bd38      	pop	{r3, r4, r5, pc}
	...

000b9364 <_ZNSt8functionIFvPKhjRKN8particle13BlePeerDeviceEEEC1ISt5_BindIFPFvS1_jS5_PvESt12_PlaceholderILi1EESD_ILi2EESD_ILi3EESA_EEvvEET_>:
      function<_Res(_ArgTypes...)>::
   b9364:	b538      	push	{r3, r4, r5, lr}
    _Function_base() : _M_manager(nullptr) { }
   b9366:	2300      	movs	r3, #0
      function<_Res(_ArgTypes...)>::
   b9368:	4604      	mov	r4, r0
    _Function_base() : _M_manager(nullptr) { }
   b936a:	6083      	str	r3, [r0, #8]
	{ __functor._M_access<_Functor*>() = new _Functor(std::move(__f)); }
   b936c:	2008      	movs	r0, #8
      function<_Res(_ArgTypes...)>::
   b936e:	460d      	mov	r5, r1
	{ __functor._M_access<_Functor*>() = new _Functor(std::move(__f)); }
   b9370:	f7fa fe91 	bl	b4096 <_Znwj>
   b9374:	b118      	cbz	r0, b937e <_ZNSt8functionIFvPKhjRKN8particle13BlePeerDeviceEEEC1ISt5_BindIFPFvS1_jS5_PvESt12_PlaceholderILi1EESD_ILi2EESD_ILi3EESA_EEvvEET_+0x1a>
	_Bind(_Functor&& __f, _Args&&... __args)
	: _M_f(std::move(__f)), _M_bound_args(std::forward<_Args>(__args)...)
	{ }

      _Bind(const _Bind&) = default;
      _Bind(_Bind&&) = default;
   b9376:	682b      	ldr	r3, [r5, #0]
   b9378:	6003      	str	r3, [r0, #0]
      constexpr _Head_base(const _Head_base&) = default;
      constexpr _Head_base(_Head_base&&) = default;

      template<typename _UHead>
        constexpr _Head_base(_UHead&& __h)
	: _M_head_impl(std::forward<_UHead>(__h)) { }
   b937a:	686b      	ldr	r3, [r5, #4]
   b937c:	6043      	str	r3, [r0, #4]
	    _M_invoker = &_My_handler::_M_invoke;
   b937e:	4b03      	ldr	r3, [pc, #12]	; (b938c <_ZNSt8functionIFvPKhjRKN8particle13BlePeerDeviceEEEC1ISt5_BindIFPFvS1_jS5_PvESt12_PlaceholderILi1EESD_ILi2EESD_ILi3EESA_EEvvEET_+0x28>)
   b9380:	60e3      	str	r3, [r4, #12]
	    _M_manager = &_My_handler::_M_manager;
   b9382:	4b03      	ldr	r3, [pc, #12]	; (b9390 <_ZNSt8functionIFvPKhjRKN8particle13BlePeerDeviceEEEC1ISt5_BindIFPFvS1_jS5_PvESt12_PlaceholderILi1EESD_ILi2EESD_ILi3EESA_EEvvEET_+0x2c>)
	{ __functor._M_access<_Functor*>() = new _Functor(std::move(__f)); }
   b9384:	6020      	str	r0, [r4, #0]
	    _M_manager = &_My_handler::_M_manager;
   b9386:	60a3      	str	r3, [r4, #8]
      }
   b9388:	4620      	mov	r0, r4
   b938a:	bd38      	pop	{r3, r4, r5, pc}
   b938c:	000b8c29 	.word	0x000b8c29
   b9390:	000b8c41 	.word	0x000b8c41

000b9394 <_ZNSt14__shared_countILN9__gnu_cxx12_Lock_policyE0EEC1ERKS2_>:
      : _M_pi(__r._M_pi)
   b9394:	680b      	ldr	r3, [r1, #0]
   b9396:	6003      	str	r3, [r0, #0]
	if (_M_pi != 0)
   b9398:	b113      	cbz	r3, b93a0 <_ZNSt14__shared_countILN9__gnu_cxx12_Lock_policyE0EEC1ERKS2_+0xc>
    { ++_M_use_count; }
   b939a:	685a      	ldr	r2, [r3, #4]
   b939c:	3201      	adds	r2, #1
   b939e:	605a      	str	r2, [r3, #4]
      }
   b93a0:	4770      	bx	lr

000b93a2 <_ZN8particle17BleCharacteristicC1ERKS0_>:
BleCharacteristic::BleCharacteristic(const BleCharacteristic& characteristic)
   b93a2:	b510      	push	{r4, lr}
      __shared_ptr(const __shared_ptr&) noexcept = default;
   b93a4:	f851 3b04 	ldr.w	r3, [r1], #4
   b93a8:	4604      	mov	r4, r0
   b93aa:	f840 3b04 	str.w	r3, [r0], #4
   b93ae:	f7ff fff1 	bl	b9394 <_ZNSt14__shared_countILN9__gnu_cxx12_Lock_policyE0EEC1ERKS2_>
    if (!impl()) {
   b93b2:	6823      	ldr	r3, [r4, #0]
   b93b4:	b90b      	cbnz	r3, b93ba <_ZN8particle17BleCharacteristicC1ERKS0_+0x18>
   b93b6:	f7ff fc2d 	bl	b8c14 <_ZN8particle10BleServiceC2ERKNS_7BleUuidE.part.0>
}
   b93ba:	4620      	mov	r0, r4
   b93bc:	bd10      	pop	{r4, pc}

000b93be <_ZNSt12__shared_ptrIN8particle14BleServiceImplELN9__gnu_cxx12_Lock_policyE0EEC1ERKS4_>:
   b93be:	b510      	push	{r4, lr}
   b93c0:	f851 3b04 	ldr.w	r3, [r1], #4
   b93c4:	4604      	mov	r4, r0
   b93c6:	f840 3b04 	str.w	r3, [r0], #4
   b93ca:	f7ff ffe3 	bl	b9394 <_ZNSt14__shared_countILN9__gnu_cxx12_Lock_policyE0EEC1ERKS2_>
   b93ce:	4620      	mov	r0, r4
   b93d0:	bd10      	pop	{r4, pc}

000b93d2 <_ZNSt12__shared_ptrIN8particle17BlePeerDeviceImplELN9__gnu_cxx12_Lock_policyE0EEC1ERKS4_>:
   b93d2:	b510      	push	{r4, lr}
   b93d4:	f851 3b04 	ldr.w	r3, [r1], #4
   b93d8:	4604      	mov	r4, r0
   b93da:	f840 3b04 	str.w	r3, [r0], #4
   b93de:	f7ff ffd9 	bl	b9394 <_ZNSt14__shared_countILN9__gnu_cxx12_Lock_policyE0EEC1ERKS2_>
   b93e2:	4620      	mov	r0, r4
   b93e4:	bd10      	pop	{r4, pc}

000b93e6 <_ZNSt14__shared_countILN9__gnu_cxx12_Lock_policyE0EED1Ev>:
      ~__shared_count() noexcept
   b93e6:	b510      	push	{r4, lr}
   b93e8:	4604      	mov	r4, r0
	if (_M_pi != nullptr)
   b93ea:	6800      	ldr	r0, [r0, #0]
   b93ec:	b108      	cbz	r0, b93f2 <_ZNSt14__shared_countILN9__gnu_cxx12_Lock_policyE0EED1Ev+0xc>
	  _M_pi->_M_release();
   b93ee:	f7ff fc5b 	bl	b8ca8 <_ZNSt16_Sp_counted_baseILN9__gnu_cxx12_Lock_policyE0EE10_M_releaseEv>
      }
   b93f2:	4620      	mov	r0, r4
   b93f4:	bd10      	pop	{r4, pc}

000b93f6 <_ZN8particle17BleCharacteristicD1Ev>:
BleCharacteristic::~BleCharacteristic() {
   b93f6:	b510      	push	{r4, lr}
   b93f8:	4604      	mov	r4, r0
      ~__shared_ptr() = default;
   b93fa:	3004      	adds	r0, #4
   b93fc:	f7ff fff3 	bl	b93e6 <_ZNSt14__shared_countILN9__gnu_cxx12_Lock_policyE0EED1Ev>
}
   b9400:	4620      	mov	r0, r4
   b9402:	bd10      	pop	{r4, pc}

000b9404 <_ZN5spark6VectorIN8particle10BleServiceENS_16DefaultAllocatorEED1Ev>:
inline spark::Vector<T, AllocatorT>::~Vector() {
   b9404:	b570      	push	{r4, r5, r6, lr}
    destruct(data_, data_ + size_);
   b9406:	e9d0 5300 	ldrd	r5, r3, [r0]
inline spark::Vector<T, AllocatorT>::~Vector() {
   b940a:	4604      	mov	r4, r0
    destruct(data_, data_ + size_);
   b940c:	eb05 06c3 	add.w	r6, r5, r3, lsl #3
        for (; p != end; ++p) {
   b9410:	42ae      	cmp	r6, r5
   b9412:	d004      	beq.n	b941e <_ZN5spark6VectorIN8particle10BleServiceENS_16DefaultAllocatorEED1Ev+0x1a>
   b9414:	1d28      	adds	r0, r5, #4
   b9416:	f7ff ffe6 	bl	b93e6 <_ZNSt14__shared_countILN9__gnu_cxx12_Lock_policyE0EED1Ev>
   b941a:	3508      	adds	r5, #8
   b941c:	e7f8      	b.n	b9410 <_ZN5spark6VectorIN8particle10BleServiceENS_16DefaultAllocatorEED1Ev+0xc>
    ::free(ptr);
   b941e:	6820      	ldr	r0, [r4, #0]
   b9420:	f7ff fb44 	bl	b8aac <free>
}
   b9424:	4620      	mov	r0, r4
   b9426:	bd70      	pop	{r4, r5, r6, pc}

000b9428 <_ZN5spark6VectorIN8particle17BleCharacteristicENS_16DefaultAllocatorEED1Ev>:
inline spark::Vector<T, AllocatorT>::~Vector() {
   b9428:	b570      	push	{r4, r5, r6, lr}
    destruct(data_, data_ + size_);
   b942a:	e9d0 5300 	ldrd	r5, r3, [r0]
inline spark::Vector<T, AllocatorT>::~Vector() {
   b942e:	4604      	mov	r4, r0
    destruct(data_, data_ + size_);
   b9430:	eb05 06c3 	add.w	r6, r5, r3, lsl #3
        for (; p != end; ++p) {
   b9434:	42ae      	cmp	r6, r5
   b9436:	d004      	beq.n	b9442 <_ZN5spark6VectorIN8particle17BleCharacteristicENS_16DefaultAllocatorEED1Ev+0x1a>
   b9438:	1d28      	adds	r0, r5, #4
   b943a:	f7ff ffd4 	bl	b93e6 <_ZNSt14__shared_countILN9__gnu_cxx12_Lock_policyE0EED1Ev>
   b943e:	3508      	adds	r5, #8
   b9440:	e7f8      	b.n	b9434 <_ZN5spark6VectorIN8particle17BleCharacteristicENS_16DefaultAllocatorEED1Ev+0xc>
    ::free(ptr);
   b9442:	6820      	ldr	r0, [r4, #0]
   b9444:	f7ff fb32 	bl	b8aac <free>
}
   b9448:	4620      	mov	r0, r4
   b944a:	bd70      	pop	{r4, r5, r6, pc}

000b944c <_ZNSt23_Sp_counted_ptr_inplaceIN8particle17BlePeerDeviceImplESaIS1_ELN9__gnu_cxx12_Lock_policyE0EE10_M_disposeEv>:
      _M_dispose() noexcept
   b944c:	b510      	push	{r4, lr}
   b944e:	4604      	mov	r4, r0
    ~BlePeerDeviceImpl() = default;
   b9450:	3024      	adds	r0, #36	; 0x24
   b9452:	f7ff ffe9 	bl	b9428 <_ZN5spark6VectorIN8particle17BleCharacteristicENS_16DefaultAllocatorEED1Ev>
   b9456:	f104 0018 	add.w	r0, r4, #24
   b945a:	f7ff ffd3 	bl	b9404 <_ZN5spark6VectorIN8particle10BleServiceENS_16DefaultAllocatorEED1Ev>
      }
   b945e:	bd10      	pop	{r4, pc}

000b9460 <__tcf_0>:
    static BleLocalDevice instance;
   b9460:	b570      	push	{r4, r5, r6, lr}
	if (__ptr != nullptr)
   b9462:	4b17      	ldr	r3, [pc, #92]	; (b94c0 <__tcf_0+0x60>)
   b9464:	681c      	ldr	r4, [r3, #0]
   b9466:	b354      	cbz	r4, b94be <__tcf_0+0x5e>
    class function<_Res(_ArgTypes...)>
   b9468:	f104 0054 	add.w	r0, r4, #84	; 0x54
   b946c:	f7ff fc08 	bl	b8c80 <_ZNSt14_Function_baseD1Ev>
   b9470:	f104 0044 	add.w	r0, r4, #68	; 0x44
   b9474:	f7ff fc04 	bl	b8c80 <_ZNSt14_Function_baseD1Ev>
   b9478:	f104 0034 	add.w	r0, r4, #52	; 0x34
   b947c:	f7ff fc00 	bl	b8c80 <_ZNSt14_Function_baseD1Ev>
   b9480:	f104 0024 	add.w	r0, r4, #36	; 0x24
   b9484:	f7ff fbfc 	bl	b8c80 <_ZNSt14_Function_baseD1Ev>
    destruct(data_, data_ + size_);
   b9488:	e9d4 5306 	ldrd	r5, r3, [r4, #24]
   b948c:	eb05 06c3 	add.w	r6, r5, r3, lsl #3
        for (; p != end; ++p) {
   b9490:	42ae      	cmp	r6, r5
   b9492:	d004      	beq.n	b949e <__tcf_0+0x3e>
      ~__shared_ptr() = default;
   b9494:	1d28      	adds	r0, r5, #4
   b9496:	f7ff ffa6 	bl	b93e6 <_ZNSt14__shared_countILN9__gnu_cxx12_Lock_policyE0EED1Ev>
   b949a:	3508      	adds	r5, #8
   b949c:	e7f8      	b.n	b9490 <__tcf_0+0x30>
    ::free(ptr);
   b949e:	69a0      	ldr	r0, [r4, #24]
   b94a0:	f7ff fb04 	bl	b8aac <free>
    ~BleLocalDeviceImpl() = default;
   b94a4:	f104 000c 	add.w	r0, r4, #12
   b94a8:	f7ff ffbe 	bl	b9428 <_ZN5spark6VectorIN8particle17BleCharacteristicENS_16DefaultAllocatorEED1Ev>
   b94ac:	4620      	mov	r0, r4
   b94ae:	f7ff ffa9 	bl	b9404 <_ZN5spark6VectorIN8particle10BleServiceENS_16DefaultAllocatorEED1Ev>
	delete __ptr;
   b94b2:	4620      	mov	r0, r4
   b94b4:	2164      	movs	r1, #100	; 0x64
    static BleLocalDevice instance;
   b94b6:	e8bd 4070 	ldmia.w	sp!, {r4, r5, r6, lr}
   b94ba:	f7fa bdf2 	b.w	b40a2 <_ZdlPvj>
   b94be:	bd70      	pop	{r4, r5, r6, pc}
   b94c0:	2003e6c4 	.word	0x2003e6c4

000b94c4 <_ZNSt12__shared_ptrIN8particle21BleCharacteristicImplELN9__gnu_cxx12_Lock_policyE0EEaSEOS4_.isra.0>:
      operator=(__shared_ptr&& __r) noexcept
   b94c4:	b513      	push	{r0, r1, r4, lr}
	__r._M_pi = _M_pi;
   b94c6:	2300      	movs	r3, #0
	_Sp_counted_base<_Lp>* __tmp = __r._M_pi;
   b94c8:	e9d1 4200 	ldrd	r4, r2, [r1]
	__r._M_ptr = 0;
   b94cc:	e9c1 3300 	strd	r3, r3, [r1]
#if __cplusplus < 201103L
      // concept requirements
      __glibcxx_function_requires(_SGIAssignableConcept<_Tp>)
#endif
      _Tp __tmp = _GLIBCXX_MOVE(__a);
      __a = _GLIBCXX_MOVE(__b);
   b94d0:	6803      	ldr	r3, [r0, #0]
   b94d2:	9300      	str	r3, [sp, #0]
      __b = _GLIBCXX_MOVE(__tmp);
   b94d4:	6004      	str	r4, [r0, #0]
	_Sp_counted_base<_Lp>* __tmp = __r._M_pi;
   b94d6:	6843      	ldr	r3, [r0, #4]
	__r._M_pi = _M_pi;
   b94d8:	6042      	str	r2, [r0, #4]
      ~__shared_ptr() = default;
   b94da:	a801      	add	r0, sp, #4
	_M_pi = __tmp;
   b94dc:	9301      	str	r3, [sp, #4]
      ~__shared_ptr() = default;
   b94de:	f7ff ff82 	bl	b93e6 <_ZNSt14__shared_countILN9__gnu_cxx12_Lock_policyE0EED1Ev>
      }
   b94e2:	b002      	add	sp, #8
   b94e4:	bd10      	pop	{r4, pc}

000b94e6 <_ZNKSt8functionIFvRKN8particle13BlePeerDeviceEEEclES3_>:
      if (_M_empty())
   b94e6:	6882      	ldr	r2, [r0, #8]
    function<_Res(_ArgTypes...)>::
   b94e8:	b510      	push	{r4, lr}
      if (_M_empty())
   b94ea:	b90a      	cbnz	r2, b94f0 <_ZNKSt8functionIFvRKN8particle13BlePeerDeviceEEEclES3_+0xa>
	__throw_bad_function_call();
   b94ec:	f001 fe5d 	bl	bb1aa <_ZSt25__throw_bad_function_callv>
    }
   b94f0:	e8bd 4010 	ldmia.w	sp!, {r4, lr}
      return _M_invoker(_M_functor, std::forward<_ArgTypes>(__args)...);
   b94f4:	68c3      	ldr	r3, [r0, #12]
   b94f6:	4718      	bx	r3

000b94f8 <_ZN5spark6VectorIhNS_16DefaultAllocatorEE7reallocIhLi0EEEbi>:
    bool realloc(int n) {
   b94f8:	b538      	push	{r3, r4, r5, lr}
        if (n > 0) {
   b94fa:	1e0d      	subs	r5, r1, #0
    bool realloc(int n) {
   b94fc:	4604      	mov	r4, r0
            d = (T*)AllocatorT::realloc(data_, n * sizeof(T));
   b94fe:	6800      	ldr	r0, [r0, #0]
        if (n > 0) {
   b9500:	dd03      	ble.n	b950a <_ZN5spark6VectorIhNS_16DefaultAllocatorEE7reallocIhLi0EEEbi+0x12>
    return ::realloc(ptr, size);
   b9502:	f7ff fadb 	bl	b8abc <realloc>
            if (!d) {
   b9506:	b918      	cbnz	r0, b9510 <_ZN5spark6VectorIhNS_16DefaultAllocatorEE7reallocIhLi0EEEbi+0x18>
    }
   b9508:	bd38      	pop	{r3, r4, r5, pc}
    ::free(ptr);
   b950a:	f7ff facf 	bl	b8aac <free>
        T* d = nullptr;
   b950e:	2000      	movs	r0, #0
        data_ = d;
   b9510:	6020      	str	r0, [r4, #0]
        capacity_ = n;
   b9512:	60a5      	str	r5, [r4, #8]
        return true;
   b9514:	2001      	movs	r0, #1
   b9516:	e7f7      	b.n	b9508 <_ZN5spark6VectorIhNS_16DefaultAllocatorEE7reallocIhLi0EEEbi+0x10>

000b9518 <_ZN5spark6VectorIhNS_16DefaultAllocatorEE7reserveEi>:
inline bool spark::Vector<T, AllocatorT>::reserve(int n) {
   b9518:	b508      	push	{r3, lr}
    if (n > capacity_ && !realloc(n)) {
   b951a:	6883      	ldr	r3, [r0, #8]
   b951c:	428b      	cmp	r3, r1
   b951e:	da02      	bge.n	b9526 <_ZN5spark6VectorIhNS_16DefaultAllocatorEE7reserveEi+0xe>
   b9520:	f7ff ffea 	bl	b94f8 <_ZN5spark6VectorIhNS_16DefaultAllocatorEE7reallocIhLi0EEEbi>
}
   b9524:	bd08      	pop	{r3, pc}
    return true;
   b9526:	2001      	movs	r0, #1
   b9528:	e7fc      	b.n	b9524 <_ZN5spark6VectorIhNS_16DefaultAllocatorEE7reserveEi+0xc>

000b952a <_ZN5spark6VectorIhNS_16DefaultAllocatorEE6insertEiPKhi>:
inline bool spark::Vector<T, AllocatorT>::insert(int i, const T* values, int n) {
   b952a:	e92d 41f0 	stmdb	sp!, {r4, r5, r6, r7, r8, lr}
   b952e:	460f      	mov	r7, r1
    if (size_ + n > capacity_ && !realloc(size_ + n)) {
   b9530:	6841      	ldr	r1, [r0, #4]
inline bool spark::Vector<T, AllocatorT>::insert(int i, const T* values, int n) {
   b9532:	461d      	mov	r5, r3
    if (size_ + n > capacity_ && !realloc(size_ + n)) {
   b9534:	4419      	add	r1, r3
   b9536:	6883      	ldr	r3, [r0, #8]
   b9538:	4299      	cmp	r1, r3
inline bool spark::Vector<T, AllocatorT>::insert(int i, const T* values, int n) {
   b953a:	4604      	mov	r4, r0
   b953c:	4690      	mov	r8, r2
    if (size_ + n > capacity_ && !realloc(size_ + n)) {
   b953e:	dc12      	bgt.n	b9566 <_ZN5spark6VectorIhNS_16DefaultAllocatorEE6insertEiPKhi+0x3c>
    T* const p = data_ + i;
   b9540:	6826      	ldr	r6, [r4, #0]
        ::memmove(dest, p, (end - p) * sizeof(T));
   b9542:	6862      	ldr	r2, [r4, #4]
    T* const p = data_ + i;
   b9544:	443e      	add	r6, r7
        ::memmove(dest, p, (end - p) * sizeof(T));
   b9546:	1bd2      	subs	r2, r2, r7
   b9548:	4631      	mov	r1, r6
   b954a:	1970      	adds	r0, r6, r5
   b954c:	f002 fe1a 	bl	bc184 <memmove>
        ::memcpy(dest, p, (end - p) * sizeof(T));
   b9550:	462a      	mov	r2, r5
   b9552:	4641      	mov	r1, r8
   b9554:	4630      	mov	r0, r6
   b9556:	f002 fe07 	bl	bc168 <memcpy>
    size_ += n;
   b955a:	6863      	ldr	r3, [r4, #4]
   b955c:	442b      	add	r3, r5
   b955e:	6063      	str	r3, [r4, #4]
    return true;
   b9560:	2001      	movs	r0, #1
}
   b9562:	e8bd 81f0 	ldmia.w	sp!, {r4, r5, r6, r7, r8, pc}
    if (size_ + n > capacity_ && !realloc(size_ + n)) {
   b9566:	f7ff ffc7 	bl	b94f8 <_ZN5spark6VectorIhNS_16DefaultAllocatorEE7reallocIhLi0EEEbi>
   b956a:	2800      	cmp	r0, #0
   b956c:	d1e8      	bne.n	b9540 <_ZN5spark6VectorIhNS_16DefaultAllocatorEE6insertEiPKhi+0x16>
   b956e:	e7f8      	b.n	b9562 <_ZN5spark6VectorIhNS_16DefaultAllocatorEE6insertEiPKhi+0x38>

000b9570 <_ZN5spark6VectorIhNS_16DefaultAllocatorEE6insertEih.isra.0>:
inline bool spark::Vector<T, AllocatorT>::insert(int i, T value) {
   b9570:	b5f8      	push	{r3, r4, r5, r6, r7, lr}
   b9572:	460d      	mov	r5, r1
    if (size_ + 1 > capacity_ && !realloc(size_ + 1)) {
   b9574:	e9d0 1301 	ldrd	r1, r3, [r0, #4]
   b9578:	4299      	cmp	r1, r3
inline bool spark::Vector<T, AllocatorT>::insert(int i, T value) {
   b957a:	4604      	mov	r4, r0
   b957c:	4616      	mov	r6, r2
    if (size_ + 1 > capacity_ && !realloc(size_ + 1)) {
   b957e:	da0b      	bge.n	b9598 <_ZN5spark6VectorIhNS_16DefaultAllocatorEE6insertEih.isra.0+0x28>
    T* const p = data_ + i;
   b9580:	6827      	ldr	r7, [r4, #0]
        ::memmove(dest, p, (end - p) * sizeof(T));
   b9582:	6862      	ldr	r2, [r4, #4]
    T* const p = data_ + i;
   b9584:	1979      	adds	r1, r7, r5
        ::memmove(dest, p, (end - p) * sizeof(T));
   b9586:	1b52      	subs	r2, r2, r5
   b9588:	1c48      	adds	r0, r1, #1
   b958a:	f002 fdfb 	bl	bc184 <memmove>
    new(p) T(std::move(value));
   b958e:	557e      	strb	r6, [r7, r5]
    ++size_;
   b9590:	6863      	ldr	r3, [r4, #4]
   b9592:	3301      	adds	r3, #1
   b9594:	6063      	str	r3, [r4, #4]
}
   b9596:	bdf8      	pop	{r3, r4, r5, r6, r7, pc}
    if (size_ + 1 > capacity_ && !realloc(size_ + 1)) {
   b9598:	3101      	adds	r1, #1
   b959a:	f7ff ffad 	bl	b94f8 <_ZN5spark6VectorIhNS_16DefaultAllocatorEE7reallocIhLi0EEEbi>
   b959e:	2800      	cmp	r0, #0
   b95a0:	d1ee      	bne.n	b9580 <_ZN5spark6VectorIhNS_16DefaultAllocatorEE6insertEih.isra.0+0x10>
   b95a2:	e7f8      	b.n	b9596 <_ZN5spark6VectorIhNS_16DefaultAllocatorEE6insertEih.isra.0+0x26>

000b95a4 <_ZN5spark6VectorIhNS_16DefaultAllocatorEE6appendEh.isra.0>:
inline bool spark::Vector<T, AllocatorT>::append(T value) {
   b95a4:	460a      	mov	r2, r1
    return insert(size_, std::move(value));
   b95a6:	6841      	ldr	r1, [r0, #4]
   b95a8:	f7ff bfe2 	b.w	b9570 <_ZN5spark6VectorIhNS_16DefaultAllocatorEE6insertEih.isra.0>

000b95ac <_ZN8particle18BleAdvertisingData6appendENS_22BleAdvertisingDataTypeEPKhjb.part.0>:
size_t BleAdvertisingData::append(BleAdvertisingDataType type, const uint8_t* buf, size_t len, bool force) {
   b95ac:	e92d 43f7 	stmdb	sp!, {r0, r1, r2, r4, r5, r6, r7, r8, r9, lr}
   b95b0:	4604      	mov	r4, r0
   b95b2:	461d      	mov	r5, r3
   b95b4:	460f      	mov	r7, r1
   b95b6:	ab01      	add	r3, sp, #4
   b95b8:	4690      	mov	r8, r2
   b95ba:	460a      	mov	r2, r1
   b95bc:	e9d0 0100 	ldrd	r0, r1, [r0]
   b95c0:	f89d 9028 	ldrb.w	r9, [sp, #40]	; 0x28
   b95c4:	f7ff fb10 	bl	b8be8 <_ZN8particle18BleAdvertisingData6locateEPKhjNS_22BleAdvertisingDataTypeEPj.part.0>
   b95c8:	1cae      	adds	r6, r5, #2
   b95ca:	6863      	ldr	r3, [r4, #4]
   b95cc:	4602      	mov	r2, r0
    if (!force && adsLen > 0) {
   b95ce:	f1b9 0f00 	cmp.w	r9, #0
   b95d2:	d126      	bne.n	b9622 <_ZN8particle18BleAdvertisingData6appendENS_22BleAdvertisingDataTypeEPKhjb.part.0+0x76>
   b95d4:	b328      	cbz	r0, b9622 <_ZN8particle18BleAdvertisingData6appendENS_22BleAdvertisingDataTypeEPKhjb.part.0+0x76>
        if ((selfData_.size() - adsLen + len + 2) <= BLE_MAX_ADV_DATA_LEN_EXT) {
   b95d6:	4433      	add	r3, r6
   b95d8:	1a1b      	subs	r3, r3, r0
   b95da:	2bff      	cmp	r3, #255	; 0xff
   b95dc:	d809      	bhi.n	b95f2 <_ZN8particle18BleAdvertisingData6appendENS_22BleAdvertisingDataTypeEPKhjb.part.0+0x46>
            selfData_.removeAt(offset, adsLen);
   b95de:	9901      	ldr	r1, [sp, #4]
   b95e0:	4620      	mov	r0, r4
   b95e2:	f7ff fe71 	bl	b92c8 <_ZN5spark6VectorIhNS_16DefaultAllocatorEE8removeAtEii>
            CHECK_TRUE(selfData_.reserve(selfData_.size() + len + 2), selfData_.size());
   b95e6:	6861      	ldr	r1, [r4, #4]
   b95e8:	4620      	mov	r0, r4
   b95ea:	4431      	add	r1, r6
   b95ec:	f7ff ff94 	bl	b9518 <_ZN5spark6VectorIhNS_16DefaultAllocatorEE7reserveEi>
   b95f0:	b918      	cbnz	r0, b95fa <_ZN8particle18BleAdvertisingData6appendENS_22BleAdvertisingDataTypeEPKhjb.part.0+0x4e>
    return selfData_.size();
   b95f2:	6860      	ldr	r0, [r4, #4]
}
   b95f4:	b003      	add	sp, #12
   b95f6:	e8bd 83f0 	ldmia.w	sp!, {r4, r5, r6, r7, r8, r9, pc}
            selfData_.insert(offset, len + 1);
   b95fa:	1c6a      	adds	r2, r5, #1
   b95fc:	9901      	ldr	r1, [sp, #4]
   b95fe:	b2d2      	uxtb	r2, r2
   b9600:	4620      	mov	r0, r4
   b9602:	f7ff ffb5 	bl	b9570 <_ZN5spark6VectorIhNS_16DefaultAllocatorEE6insertEih.isra.0>
            selfData_.insert(offset + 1, static_cast<uint8_t>(type));
   b9606:	9901      	ldr	r1, [sp, #4]
   b9608:	463a      	mov	r2, r7
   b960a:	3101      	adds	r1, #1
   b960c:	4620      	mov	r0, r4
   b960e:	f7ff ffaf 	bl	b9570 <_ZN5spark6VectorIhNS_16DefaultAllocatorEE6insertEih.isra.0>
            selfData_.insert(offset + 2, buf, len);
   b9612:	9901      	ldr	r1, [sp, #4]
   b9614:	462b      	mov	r3, r5
   b9616:	4642      	mov	r2, r8
   b9618:	3102      	adds	r1, #2
    return insert(size_, values, n);
   b961a:	4620      	mov	r0, r4
   b961c:	f7ff ff85 	bl	b952a <_ZN5spark6VectorIhNS_16DefaultAllocatorEE6insertEiPKhi>
   b9620:	e7e7      	b.n	b95f2 <_ZN8particle18BleAdvertisingData6appendENS_22BleAdvertisingDataTypeEPKhjb.part.0+0x46>
    else if ((selfData_.size() + len + 2) <= BLE_MAX_ADV_DATA_LEN_EXT) {
   b9622:	18f1      	adds	r1, r6, r3
   b9624:	29ff      	cmp	r1, #255	; 0xff
   b9626:	d8e4      	bhi.n	b95f2 <_ZN8particle18BleAdvertisingData6appendENS_22BleAdvertisingDataTypeEPKhjb.part.0+0x46>
        CHECK_TRUE(selfData_.reserve(selfData_.size() + len + 2), selfData_.size());
   b9628:	4620      	mov	r0, r4
   b962a:	f7ff ff75 	bl	b9518 <_ZN5spark6VectorIhNS_16DefaultAllocatorEE7reserveEi>
   b962e:	2800      	cmp	r0, #0
   b9630:	d0df      	beq.n	b95f2 <_ZN8particle18BleAdvertisingData6appendENS_22BleAdvertisingDataTypeEPKhjb.part.0+0x46>
        selfData_.append(len + 1);
   b9632:	1c69      	adds	r1, r5, #1
   b9634:	b2c9      	uxtb	r1, r1
   b9636:	4620      	mov	r0, r4
   b9638:	f7ff ffb4 	bl	b95a4 <_ZN5spark6VectorIhNS_16DefaultAllocatorEE6appendEh.isra.0>
        selfData_.append(static_cast<uint8_t>(type));
   b963c:	4639      	mov	r1, r7
   b963e:	4620      	mov	r0, r4
   b9640:	f7ff ffb0 	bl	b95a4 <_ZN5spark6VectorIhNS_16DefaultAllocatorEE6appendEh.isra.0>
   b9644:	6861      	ldr	r1, [r4, #4]
   b9646:	462b      	mov	r3, r5
   b9648:	4642      	mov	r2, r8
   b964a:	e7e6      	b.n	b961a <_ZN8particle18BleAdvertisingData6appendENS_22BleAdvertisingDataTypeEPKhjb.part.0+0x6e>

000b964c <_ZN8particle18BleAdvertisingData6appendENS_22BleAdvertisingDataTypeEPKhjb>:
size_t BleAdvertisingData::append(BleAdvertisingDataType type, const uint8_t* buf, size_t len, bool force) {
   b964c:	b430      	push	{r4, r5}
   b964e:	f89d 5008 	ldrb.w	r5, [sp, #8]
    if (buf == nullptr) {
   b9652:	b11a      	cbz	r2, b965c <_ZN8particle18BleAdvertisingData6appendENS_22BleAdvertisingDataTypeEPKhjb+0x10>
   b9654:	9502      	str	r5, [sp, #8]
}
   b9656:	bc30      	pop	{r4, r5}
   b9658:	f7ff bfa8 	b.w	b95ac <_ZN8particle18BleAdvertisingData6appendENS_22BleAdvertisingDataTypeEPKhjb.part.0>
        return selfData_.size();
   b965c:	6840      	ldr	r0, [r0, #4]
}
   b965e:	bc30      	pop	{r4, r5}
   b9660:	4770      	bx	lr

000b9662 <_ZN8particle18BleAdvertisingDataC1Ev>:
BleAdvertisingData::BleAdvertisingData()
   b9662:	b51f      	push	{r0, r1, r2, r3, r4, lr}
        capacity_(0) {
   b9664:	2300      	movs	r3, #0
   b9666:	e9c0 3300 	strd	r3, r3, [r0]
   b966a:	6083      	str	r3, [r0, #8]
    uint8_t flag = BLE_SIG_ADV_FLAGS_LE_ONLY_GENERAL_DISC_MODE;
   b966c:	2206      	movs	r2, #6
    append(BleAdvertisingDataType::FLAGS, &flag, sizeof(uint8_t));
   b966e:	9300      	str	r3, [sp, #0]
   b9670:	2301      	movs	r3, #1
    uint8_t flag = BLE_SIG_ADV_FLAGS_LE_ONLY_GENERAL_DISC_MODE;
   b9672:	f88d 200f 	strb.w	r2, [sp, #15]
    append(BleAdvertisingDataType::FLAGS, &flag, sizeof(uint8_t));
   b9676:	4619      	mov	r1, r3
   b9678:	f10d 020f 	add.w	r2, sp, #15
BleAdvertisingData::BleAdvertisingData()
   b967c:	4604      	mov	r4, r0
    append(BleAdvertisingDataType::FLAGS, &flag, sizeof(uint8_t));
   b967e:	f7ff ffe5 	bl	b964c <_ZN8particle18BleAdvertisingData6appendENS_22BleAdvertisingDataTypeEPKhjb>
}
   b9682:	4620      	mov	r0, r4
   b9684:	b004      	add	sp, #16
   b9686:	bd10      	pop	{r4, pc}

000b9688 <_ZN5spark6VectorIN8particle13BlePeerDeviceENS_16DefaultAllocatorEE4moveIS2_Li0EEEvPS2_S6_S6_>:
        if (dest > p && dest < end) {
   b9688:	4288      	cmp	r0, r1
    static void move(T* dest, T* p, T* end) {
   b968a:	b5f8      	push	{r3, r4, r5, r6, r7, lr}
   b968c:	4604      	mov	r4, r0
   b968e:	460d      	mov	r5, r1
   b9690:	4616      	mov	r6, r2
        if (dest > p && dest < end) {
   b9692:	d914      	bls.n	b96be <_ZN5spark6VectorIN8particle13BlePeerDeviceENS_16DefaultAllocatorEE4moveIS2_Li0EEEvPS2_S6_S6_+0x36>
   b9694:	4290      	cmp	r0, r2
   b9696:	d213      	bcs.n	b96c0 <_ZN5spark6VectorIN8particle13BlePeerDeviceENS_16DefaultAllocatorEE4moveIS2_Li0EEEvPS2_S6_S6_+0x38>
            --end;
   b9698:	f1a2 0608 	sub.w	r6, r2, #8
            dest += end - p - 1;
   b969c:	1a75      	subs	r5, r6, r1
   b969e:	f1a1 0708 	sub.w	r7, r1, #8
   b96a2:	442c      	add	r4, r5
            for (; end != p; --end, --dest) {
   b96a4:	42b7      	cmp	r7, r6
   b96a6:	d018      	beq.n	b96da <_ZN5spark6VectorIN8particle13BlePeerDeviceENS_16DefaultAllocatorEE4moveIS2_Li0EEEvPS2_S6_S6_+0x52>
                new(dest) T(std::move(*end));
   b96a8:	b11c      	cbz	r4, b96b2 <_ZN5spark6VectorIN8particle13BlePeerDeviceENS_16DefaultAllocatorEE4moveIS2_Li0EEEvPS2_S6_S6_+0x2a>
       *  @brief  Construct an empty %shared_ptr.
       *  @post   use_count()==0 && get()==0
       */
      constexpr shared_ptr() noexcept : __shared_ptr<_Tp>() { }

      shared_ptr(const shared_ptr&) noexcept = default; ///< Copy constructor
   b96aa:	4631      	mov	r1, r6
   b96ac:	4620      	mov	r0, r4
   b96ae:	f7ff fe90 	bl	b93d2 <_ZNSt12__shared_ptrIN8particle17BlePeerDeviceImplELN9__gnu_cxx12_Lock_policyE0EEC1ERKS4_>
      ~__shared_ptr() = default;
   b96b2:	1d30      	adds	r0, r6, #4
   b96b4:	f7ff fe97 	bl	b93e6 <_ZNSt14__shared_countILN9__gnu_cxx12_Lock_policyE0EED1Ev>
            for (; end != p; --end, --dest) {
   b96b8:	3e08      	subs	r6, #8
   b96ba:	3c08      	subs	r4, #8
   b96bc:	e7f2      	b.n	b96a4 <_ZN5spark6VectorIN8particle13BlePeerDeviceENS_16DefaultAllocatorEE4moveIS2_Li0EEEvPS2_S6_S6_+0x1c>
        } else if (dest != p) {
   b96be:	d00c      	beq.n	b96da <_ZN5spark6VectorIN8particle13BlePeerDeviceENS_16DefaultAllocatorEE4moveIS2_Li0EEEvPS2_S6_S6_+0x52>
            for (; p != end; ++p, ++dest) {
   b96c0:	42b5      	cmp	r5, r6
   b96c2:	d00a      	beq.n	b96da <_ZN5spark6VectorIN8particle13BlePeerDeviceENS_16DefaultAllocatorEE4moveIS2_Li0EEEvPS2_S6_S6_+0x52>
                new(dest) T(std::move(*p));
   b96c4:	b11c      	cbz	r4, b96ce <_ZN5spark6VectorIN8particle13BlePeerDeviceENS_16DefaultAllocatorEE4moveIS2_Li0EEEvPS2_S6_S6_+0x46>
   b96c6:	4629      	mov	r1, r5
   b96c8:	4620      	mov	r0, r4
   b96ca:	f7ff fe82 	bl	b93d2 <_ZNSt12__shared_ptrIN8particle17BlePeerDeviceImplELN9__gnu_cxx12_Lock_policyE0EEC1ERKS4_>
   b96ce:	1d28      	adds	r0, r5, #4
   b96d0:	f7ff fe89 	bl	b93e6 <_ZNSt14__shared_countILN9__gnu_cxx12_Lock_policyE0EED1Ev>
            for (; p != end; ++p, ++dest) {
   b96d4:	3508      	adds	r5, #8
   b96d6:	3408      	adds	r4, #8
   b96d8:	e7f2      	b.n	b96c0 <_ZN5spark6VectorIN8particle13BlePeerDeviceENS_16DefaultAllocatorEE4moveIS2_Li0EEEvPS2_S6_S6_+0x38>
    }
   b96da:	bdf8      	pop	{r3, r4, r5, r6, r7, pc}

000b96dc <_ZN5spark6VectorIN8particle13BlePeerDeviceENS_16DefaultAllocatorEE6appendES2_>:
inline bool spark::Vector<T, AllocatorT>::append(T value) {
   b96dc:	b5f7      	push	{r0, r1, r2, r4, r5, r6, r7, lr}
   b96de:	4604      	mov	r4, r0
    return insert(size_, std::move(value));
   b96e0:	6846      	ldr	r6, [r0, #4]
   b96e2:	4668      	mov	r0, sp
   b96e4:	f7ff fe75 	bl	b93d2 <_ZNSt12__shared_ptrIN8particle17BlePeerDeviceImplELN9__gnu_cxx12_Lock_policyE0EEC1ERKS4_>
    if (size_ + 1 > capacity_ && !realloc(size_ + 1)) {
   b96e8:	e9d4 7301 	ldrd	r7, r3, [r4, #4]
   b96ec:	429f      	cmp	r7, r3
   b96ee:	db12      	blt.n	b9716 <_ZN5spark6VectorIN8particle13BlePeerDeviceENS_16DefaultAllocatorEE6appendES2_+0x3a>
   b96f0:	3701      	adds	r7, #1
        if (n > 0) {
   b96f2:	2f00      	cmp	r7, #0
   b96f4:	dd29      	ble.n	b974a <_ZN5spark6VectorIN8particle13BlePeerDeviceENS_16DefaultAllocatorEE6appendES2_+0x6e>
    return ::malloc(size);
   b96f6:	00f8      	lsls	r0, r7, #3
   b96f8:	f7ff f9d0 	bl	b8a9c <malloc>
            if (!d) {
   b96fc:	4605      	mov	r5, r0
   b96fe:	b1f0      	cbz	r0, b973e <_ZN5spark6VectorIN8particle13BlePeerDeviceENS_16DefaultAllocatorEE6appendES2_+0x62>
            move(d, data_, data_ + size_);
   b9700:	e9d4 1200 	ldrd	r1, r2, [r4]
   b9704:	eb01 02c2 	add.w	r2, r1, r2, lsl #3
   b9708:	f7ff ffbe 	bl	b9688 <_ZN5spark6VectorIN8particle13BlePeerDeviceENS_16DefaultAllocatorEE4moveIS2_Li0EEEvPS2_S6_S6_>
    ::free(ptr);
   b970c:	6820      	ldr	r0, [r4, #0]
   b970e:	f7ff f9cd 	bl	b8aac <free>
        data_ = d;
   b9712:	6025      	str	r5, [r4, #0]
        capacity_ = n;
   b9714:	60a7      	str	r7, [r4, #8]
    T* const p = data_ + i;
   b9716:	6823      	ldr	r3, [r4, #0]
    move(p + 1, p, data_ + size_);
   b9718:	6862      	ldr	r2, [r4, #4]
    T* const p = data_ + i;
   b971a:	eb03 06c6 	add.w	r6, r3, r6, lsl #3
    move(p + 1, p, data_ + size_);
   b971e:	eb03 02c2 	add.w	r2, r3, r2, lsl #3
   b9722:	4631      	mov	r1, r6
   b9724:	f106 0008 	add.w	r0, r6, #8
   b9728:	f7ff ffae 	bl	b9688 <_ZN5spark6VectorIN8particle13BlePeerDeviceENS_16DefaultAllocatorEE4moveIS2_Li0EEEvPS2_S6_S6_>
    new(p) T(std::move(value));
   b972c:	b11e      	cbz	r6, b9736 <_ZN5spark6VectorIN8particle13BlePeerDeviceENS_16DefaultAllocatorEE6appendES2_+0x5a>
   b972e:	4669      	mov	r1, sp
   b9730:	4630      	mov	r0, r6
   b9732:	f7ff fe4e 	bl	b93d2 <_ZNSt12__shared_ptrIN8particle17BlePeerDeviceImplELN9__gnu_cxx12_Lock_policyE0EEC1ERKS4_>
    ++size_;
   b9736:	6863      	ldr	r3, [r4, #4]
   b9738:	3301      	adds	r3, #1
   b973a:	6063      	str	r3, [r4, #4]
    return true;
   b973c:	2501      	movs	r5, #1
   b973e:	a801      	add	r0, sp, #4
   b9740:	f7ff fe51 	bl	b93e6 <_ZNSt14__shared_countILN9__gnu_cxx12_Lock_policyE0EED1Ev>
}
   b9744:	4628      	mov	r0, r5
   b9746:	b003      	add	sp, #12
   b9748:	bdf0      	pop	{r4, r5, r6, r7, pc}
        T* d = nullptr;
   b974a:	2500      	movs	r5, #0
   b974c:	e7de      	b.n	b970c <_ZN5spark6VectorIN8particle13BlePeerDeviceENS_16DefaultAllocatorEE6appendES2_+0x30>

000b974e <_ZN5spark6VectorIN8particle13BlePeerDeviceENS_16DefaultAllocatorEE9removeOneERKS2_.isra.0>:
inline bool spark::Vector<T, AllocatorT>::removeOne(const T &value) {
   b974e:	b5f8      	push	{r3, r4, r5, r6, r7, lr}
    T* const p = find(data_, data_ + size_, value);
   b9750:	e9d0 4300 	ldrd	r4, r3, [r0]
inline bool spark::Vector<T, AllocatorT>::removeOne(const T &value) {
   b9754:	4605      	mov	r5, r0
   b9756:	460f      	mov	r7, r1
    T* const p = find(data_, data_ + size_, value);
   b9758:	eb04 06c3 	add.w	r6, r4, r3, lsl #3
        for (; p != end; ++p) {
   b975c:	42a6      	cmp	r6, r4
   b975e:	d005      	beq.n	b976c <_ZN5spark6VectorIN8particle13BlePeerDeviceENS_16DefaultAllocatorEE9removeOneERKS2_.isra.0+0x1e>
            if (*p == value) {
   b9760:	4639      	mov	r1, r7
   b9762:	4620      	mov	r0, r4
   b9764:	f7ff fcff 	bl	b9166 <_ZNK8particle13BlePeerDeviceeqERKS0_>
   b9768:	b108      	cbz	r0, b976e <_ZN5spark6VectorIN8particle13BlePeerDeviceENS_16DefaultAllocatorEE9removeOneERKS2_.isra.0+0x20>
    if (!p) {
   b976a:	b914      	cbnz	r4, b9772 <_ZN5spark6VectorIN8particle13BlePeerDeviceENS_16DefaultAllocatorEE9removeOneERKS2_.isra.0+0x24>
}
   b976c:	bdf8      	pop	{r3, r4, r5, r6, r7, pc}
        for (; p != end; ++p) {
   b976e:	3408      	adds	r4, #8
   b9770:	e7f4      	b.n	b975c <_ZN5spark6VectorIN8particle13BlePeerDeviceENS_16DefaultAllocatorEE9removeOneERKS2_.isra.0+0xe>
   b9772:	1d20      	adds	r0, r4, #4
   b9774:	f7ff fe37 	bl	b93e6 <_ZNSt14__shared_countILN9__gnu_cxx12_Lock_policyE0EED1Ev>
    move(p, p + 1, data_ + size_);
   b9778:	e9d5 3200 	ldrd	r3, r2, [r5]
   b977c:	f104 0108 	add.w	r1, r4, #8
   b9780:	eb03 02c2 	add.w	r2, r3, r2, lsl #3
   b9784:	4620      	mov	r0, r4
   b9786:	f7ff ff7f 	bl	b9688 <_ZN5spark6VectorIN8particle13BlePeerDeviceENS_16DefaultAllocatorEE4moveIS2_Li0EEEvPS2_S6_S6_>
    --size_;
   b978a:	686b      	ldr	r3, [r5, #4]
   b978c:	3b01      	subs	r3, #1
   b978e:	606b      	str	r3, [r5, #4]
    return true;
   b9790:	e7ec      	b.n	b976c <_ZN5spark6VectorIN8particle13BlePeerDeviceENS_16DefaultAllocatorEE9removeOneERKS2_.isra.0+0x1e>
	...

000b9794 <_ZN8particle18BleLocalDeviceImpl15onBleLinkEventsEPK18hal_ble_link_evt_tPv>:
    static void onBleLinkEvents(const hal_ble_link_evt_t* event, void* context) {
   b9794:	e92d 41f0 	stmdb	sp!, {r4, r5, r6, r7, r8, lr}
   b9798:	4605      	mov	r5, r0
   b979a:	b08e      	sub	sp, #56	; 0x38
        WiringBleLock lk;
   b979c:	a803      	add	r0, sp, #12
    static void onBleLinkEvents(const hal_ble_link_evt_t* event, void* context) {
   b979e:	460c      	mov	r4, r1
        WiringBleLock lk;
   b97a0:	f7ff faac 	bl	b8cfc <_ZN8particle3ble13WiringBleLockC1Ev>
        switch (event->type) {
   b97a4:	682e      	ldr	r6, [r5, #0]
   b97a6:	1ef3      	subs	r3, r6, #3
   b97a8:	2b0d      	cmp	r3, #13
   b97aa:	d83c      	bhi.n	b9826 <_ZN8particle18BleLocalDeviceImpl15onBleLinkEventsEPK18hal_ble_link_evt_tPv+0x92>
   b97ac:	e8df f013 	tbh	[pc, r3, lsl #1]
   b97b0:	0053000e 	.word	0x0053000e
   b97b4:	00d1003b 	.word	0x00d1003b
   b97b8:	003b003b 	.word	0x003b003b
   b97bc:	003b003b 	.word	0x003b003b
   b97c0:	009b003b 	.word	0x009b003b
   b97c4:	009b009b 	.word	0x009b009b
   b97c8:	009b009b 	.word	0x009b009b
                BlePeerDevice peer;
   b97cc:	a804      	add	r0, sp, #16
   b97ce:	f7ff fc95 	bl	b90fc <_ZN8particle13BlePeerDeviceC1Ev>
                peer.impl()->connHandle() = event->conn_handle;
   b97d2:	9b04      	ldr	r3, [sp, #16]
   b97d4:	89aa      	ldrh	r2, [r5, #12]
   b97d6:	801a      	strh	r2, [r3, #0]
                peer.impl()->address() = event->params.connected.info->address;
   b97d8:	6869      	ldr	r1, [r5, #4]
   b97da:	9804      	ldr	r0, [sp, #16]
   b97dc:	3108      	adds	r1, #8
   b97de:	3002      	adds	r0, #2
   b97e0:	f7ff faa6 	bl	b8d30 <_ZN8particle10BleAddressaSERK14hal_ble_addr_t>
   b97e4:	a904      	add	r1, sp, #16
   b97e6:	a806      	add	r0, sp, #24
   b97e8:	f7ff fdf3 	bl	b93d2 <_ZNSt12__shared_ptrIN8particle17BlePeerDeviceImplELN9__gnu_cxx12_Lock_policyE0EEC1ERKS4_>
                if (!impl->peers_.append(peer)) {
   b97ec:	a906      	add	r1, sp, #24
   b97ee:	f104 0018 	add.w	r0, r4, #24
   b97f2:	f7ff ff73 	bl	b96dc <_ZN5spark6VectorIN8particle13BlePeerDeviceENS_16DefaultAllocatorEE6appendES2_>
   b97f6:	4605      	mov	r5, r0
   b97f8:	a807      	add	r0, sp, #28
   b97fa:	f7ff fdf4 	bl	b93e6 <_ZNSt14__shared_countILN9__gnu_cxx12_Lock_policyE0EED1Ev>
   b97fe:	2320      	movs	r3, #32
                    LOG(ERROR, "Failed to append peer Central device.");
   b9800:	9306      	str	r3, [sp, #24]
                if (!impl->peers_.append(peer)) {
   b9802:	b9b5      	cbnz	r5, b9832 <_ZN8particle18BleLocalDeviceImpl15onBleLinkEventsEPK18hal_ble_link_evt_tPv+0x9e>
                    LOG(ERROR, "Failed to append peer Central device.");
   b9804:	4b5d      	ldr	r3, [pc, #372]	; (b997c <_ZN8particle18BleLocalDeviceImpl15onBleLinkEventsEPK18hal_ble_link_evt_tPv+0x1e8>)
   b9806:	495e      	ldr	r1, [pc, #376]	; (b9980 <_ZN8particle18BleLocalDeviceImpl15onBleLinkEventsEPK18hal_ble_link_evt_tPv+0x1ec>)
   b9808:	9300      	str	r3, [sp, #0]
   b980a:	2032      	movs	r0, #50	; 0x32
   b980c:	462b      	mov	r3, r5
   b980e:	aa06      	add	r2, sp, #24
   b9810:	9507      	str	r5, [sp, #28]
   b9812:	f7ff f89f 	bl	b8954 <log_message>
                    hal_ble_gap_disconnect(peer.impl()->connHandle(), nullptr);
   b9816:	9b04      	ldr	r3, [sp, #16]
   b9818:	4629      	mov	r1, r5
   b981a:	8818      	ldrh	r0, [r3, #0]
   b981c:	f7fe fee8 	bl	b85f0 <hal_ble_gap_disconnect>
   b9820:	a805      	add	r0, sp, #20
   b9822:	f7ff fde0 	bl	b93e6 <_ZNSt14__shared_countILN9__gnu_cxx12_Lock_policyE0EED1Ev>
        WiringBleLock lk;
   b9826:	a803      	add	r0, sp, #12
   b9828:	f7ff fa76 	bl	b8d18 <_ZN8particle3ble13WiringBleLockD1Ev>
    }
   b982c:	b00e      	add	sp, #56	; 0x38
   b982e:	e8bd 81f0 	ldmia.w	sp!, {r4, r5, r6, r7, r8, pc}
                LOG(TRACE, "Connected by Central device.");
   b9832:	4a54      	ldr	r2, [pc, #336]	; (b9984 <_ZN8particle18BleLocalDeviceImpl15onBleLinkEventsEPK18hal_ble_link_evt_tPv+0x1f0>)
   b9834:	9200      	str	r2, [sp, #0]
   b9836:	2300      	movs	r3, #0
   b9838:	4951      	ldr	r1, [pc, #324]	; (b9980 <_ZN8particle18BleLocalDeviceImpl15onBleLinkEventsEPK18hal_ble_link_evt_tPv+0x1ec>)
   b983a:	9307      	str	r3, [sp, #28]
   b983c:	aa06      	add	r2, sp, #24
   b983e:	2001      	movs	r0, #1
   b9840:	f7ff f888 	bl	b8954 <log_message>
                if (impl->connectedCallback_) {
   b9844:	6ae3      	ldr	r3, [r4, #44]	; 0x2c
   b9846:	2b00      	cmp	r3, #0
   b9848:	d0ea      	beq.n	b9820 <_ZN8particle18BleLocalDeviceImpl15onBleLinkEventsEPK18hal_ble_link_evt_tPv+0x8c>
                    impl->connectedCallback_(peer);
   b984a:	a904      	add	r1, sp, #16
   b984c:	f104 0024 	add.w	r0, r4, #36	; 0x24
   b9850:	f7ff fe49 	bl	b94e6 <_ZNKSt8functionIFvRKN8particle13BlePeerDeviceEEEclES3_>
   b9854:	e7e4      	b.n	b9820 <_ZN8particle18BleLocalDeviceImpl15onBleLinkEventsEPK18hal_ble_link_evt_tPv+0x8c>
                BlePeerDevice* peer = impl->findPeerDevice(event->conn_handle);
   b9856:	89a9      	ldrh	r1, [r5, #12]
   b9858:	4620      	mov	r0, r4
   b985a:	f7ff fba7 	bl	b8fac <_ZN8particle18BleLocalDeviceImpl14findPeerDeviceEt>
                if (peer) {
   b985e:	4606      	mov	r6, r0
   b9860:	2800      	cmp	r0, #0
   b9862:	d0e0      	beq.n	b9826 <_ZN8particle18BleLocalDeviceImpl15onBleLinkEventsEPK18hal_ble_link_evt_tPv+0x92>
      { return _M_ptr; }
   b9864:	6805      	ldr	r5, [r0, #0]
    return data_ + size_;
   b9866:	e9d5 3206 	ldrd	r3, r2, [r5, #24]
        connHandle_ = BLE_INVALID_CONN_HANDLE;
   b986a:	f64f 71ff 	movw	r1, #65535	; 0xffff
   b986e:	8029      	strh	r1, [r5, #0]
   b9870:	eb03 02c2 	add.w	r2, r3, r2, lsl #3
        for (auto& characteristic : characteristics()) {
   b9874:	429a      	cmp	r2, r3
   b9876:	d003      	beq.n	b9880 <_ZN8particle18BleLocalDeviceImpl15onBleLinkEventsEPK18hal_ble_link_evt_tPv+0xec>
   b9878:	f853 0b08 	ldr.w	r0, [r3], #8
            characteristic.impl()->connHandle() = BLE_INVALID_CONN_HANDLE;
   b987c:	8041      	strh	r1, [r0, #2]
        for (auto& characteristic : characteristics()) {
   b987e:	e7f9      	b.n	b9874 <_ZN8particle18BleLocalDeviceImpl15onBleLinkEventsEPK18hal_ble_link_evt_tPv+0xe0>
    destruct(data_, data_ + size_);
   b9880:	e9d5 7303 	ldrd	r7, r3, [r5, #12]
   b9884:	eb07 08c3 	add.w	r8, r7, r3, lsl #3
        for (; p != end; ++p) {
   b9888:	45b8      	cmp	r8, r7
   b988a:	d004      	beq.n	b9896 <_ZN8particle18BleLocalDeviceImpl15onBleLinkEventsEPK18hal_ble_link_evt_tPv+0x102>
      ~__shared_ptr() = default;
   b988c:	1d38      	adds	r0, r7, #4
   b988e:	f7ff fdaa 	bl	b93e6 <_ZNSt14__shared_countILN9__gnu_cxx12_Lock_policyE0EED1Ev>
   b9892:	3708      	adds	r7, #8
   b9894:	e7f8      	b.n	b9888 <_ZN8particle18BleLocalDeviceImpl15onBleLinkEventsEPK18hal_ble_link_evt_tPv+0xf4>
    size_ = 0;
   b9896:	2300      	movs	r3, #0
   b9898:	612b      	str	r3, [r5, #16]
    destruct(data_, data_ + size_);
   b989a:	e9d5 7306 	ldrd	r7, r3, [r5, #24]
   b989e:	eb07 08c3 	add.w	r8, r7, r3, lsl #3
        for (; p != end; ++p) {
   b98a2:	45b8      	cmp	r8, r7
   b98a4:	d004      	beq.n	b98b0 <_ZN8particle18BleLocalDeviceImpl15onBleLinkEventsEPK18hal_ble_link_evt_tPv+0x11c>
   b98a6:	1d38      	adds	r0, r7, #4
   b98a8:	f7ff fd9d 	bl	b93e6 <_ZNSt14__shared_countILN9__gnu_cxx12_Lock_policyE0EED1Ev>
   b98ac:	3708      	adds	r7, #8
   b98ae:	e7f8      	b.n	b98a2 <_ZN8particle18BleLocalDeviceImpl15onBleLinkEventsEPK18hal_ble_link_evt_tPv+0x10e>
    size_ = 0;
   b98b0:	2300      	movs	r3, #0
   b98b2:	61eb      	str	r3, [r5, #28]
        servicesDiscovered_ = false;
   b98b4:	72ab      	strb	r3, [r5, #10]
                    if (impl->disconnectedCallback_) {
   b98b6:	6be3      	ldr	r3, [r4, #60]	; 0x3c
   b98b8:	b123      	cbz	r3, b98c4 <_ZN8particle18BleLocalDeviceImpl15onBleLinkEventsEPK18hal_ble_link_evt_tPv+0x130>
                        impl->disconnectedCallback_(*peer);
   b98ba:	4631      	mov	r1, r6
   b98bc:	f104 0034 	add.w	r0, r4, #52	; 0x34
   b98c0:	f7ff fe11 	bl	b94e6 <_ZNKSt8functionIFvRKN8particle13BlePeerDeviceEEEclES3_>
                    LOG(TRACE, "Disconnected by remote device.");
   b98c4:	2300      	movs	r3, #0
   b98c6:	2220      	movs	r2, #32
   b98c8:	e9cd 2306 	strd	r2, r3, [sp, #24]
   b98cc:	4a2e      	ldr	r2, [pc, #184]	; (b9988 <_ZN8particle18BleLocalDeviceImpl15onBleLinkEventsEPK18hal_ble_link_evt_tPv+0x1f4>)
   b98ce:	9200      	str	r2, [sp, #0]
   b98d0:	492b      	ldr	r1, [pc, #172]	; (b9980 <_ZN8particle18BleLocalDeviceImpl15onBleLinkEventsEPK18hal_ble_link_evt_tPv+0x1ec>)
   b98d2:	aa06      	add	r2, sp, #24
   b98d4:	2001      	movs	r0, #1
   b98d6:	f7ff f83d 	bl	b8954 <log_message>
                    impl->peers_.removeOne(*peer);
   b98da:	4631      	mov	r1, r6
   b98dc:	f104 0018 	add.w	r0, r4, #24
   b98e0:	f7ff ff35 	bl	b974e <_ZN5spark6VectorIN8particle13BlePeerDeviceENS_16DefaultAllocatorEE9removeOneERKS2_.isra.0>
   b98e4:	e79f      	b.n	b9826 <_ZN8particle18BleLocalDeviceImpl15onBleLinkEventsEPK18hal_ble_link_evt_tPv+0x92>
                BlePeerDevice* peer = impl->findPeerDevice(event->conn_handle);
   b98e6:	89a9      	ldrh	r1, [r5, #12]
   b98e8:	4620      	mov	r0, r4
   b98ea:	f7ff fb5f 	bl	b8fac <_ZN8particle18BleLocalDeviceImpl14findPeerDeviceEt>
                if (peer) {
   b98ee:	2800      	cmp	r0, #0
   b98f0:	d099      	beq.n	b9826 <_ZN8particle18BleLocalDeviceImpl15onBleLinkEventsEPK18hal_ble_link_evt_tPv+0x92>
                    if (impl->pairingEventCallback_) {
   b98f2:	6ce3      	ldr	r3, [r4, #76]	; 0x4c
   b98f4:	2b00      	cmp	r3, #0
   b98f6:	d096      	beq.n	b9826 <_ZN8particle18BleLocalDeviceImpl15onBleLinkEventsEPK18hal_ble_link_evt_tPv+0x92>
                        BlePairingEventPayload payload = {};
   b98f8:	2300      	movs	r3, #0
                        if (event->type == BLE_EVT_PAIRING_PASSKEY_DISPLAY || event->type == BLE_EVT_PAIRING_NUMERIC_COMPARISON) {
   b98fa:	2e0d      	cmp	r6, #13
                        BlePairingEventPayload payload = {};
   b98fc:	f8ad 3016 	strh.w	r3, [sp, #22]
                        if (event->type == BLE_EVT_PAIRING_PASSKEY_DISPLAY || event->type == BLE_EVT_PAIRING_NUMERIC_COMPARISON) {
   b9900:	d001      	beq.n	b9906 <_ZN8particle18BleLocalDeviceImpl15onBleLinkEventsEPK18hal_ble_link_evt_tPv+0x172>
   b9902:	2e10      	cmp	r6, #16
   b9904:	d117      	bne.n	b9936 <_ZN8particle18BleLocalDeviceImpl15onBleLinkEventsEPK18hal_ble_link_evt_tPv+0x1a2>
                        BlePairingEventPayload payload = {};
   b9906:	2300      	movs	r3, #0
                            payload.passkey = event->params.passkey_display.passkey;
   b9908:	6869      	ldr	r1, [r5, #4]
                        BlePairingEventPayload payload = {};
   b990a:	461a      	mov	r2, r3
                            payloadLen = BLE_PAIRING_PASSKEY_LEN;
   b990c:	2506      	movs	r5, #6
                        };
   b990e:	f88d 3015 	strb.w	r3, [sp, #21]
   b9912:	9104      	str	r1, [sp, #16]
   b9914:	f88d 2014 	strb.w	r2, [sp, #20]
   b9918:	9006      	str	r0, [sp, #24]
   b991a:	e9dd 0104 	ldrd	r0, r1, [sp, #16]
   b991e:	ab09      	add	r3, sp, #36	; 0x24
                            .type = static_cast<BlePairingEventType>(event->type),
   b9920:	f88d 601c 	strb.w	r6, [sp, #28]
                        };
   b9924:	9508      	str	r5, [sp, #32]
   b9926:	e883 0003 	stmia.w	r3, {r0, r1}
   b992a:	6d23      	ldr	r3, [r4, #80]	; 0x50
   b992c:	a906      	add	r1, sp, #24
   b992e:	f104 0044 	add.w	r0, r4, #68	; 0x44
   b9932:	4798      	blx	r3
   b9934:	e777      	b.n	b9826 <_ZN8particle18BleLocalDeviceImpl15onBleLinkEventsEPK18hal_ble_link_evt_tPv+0x92>
                        } else if (event->type == BLE_EVT_PAIRING_STATUS_UPDATED) {
   b9936:	2e0f      	cmp	r6, #15
                            payload.status.bonded = event->params.pairing_status.bonded;
   b9938:	bf01      	itttt	eq
   b993a:	7a2b      	ldrbeq	r3, [r5, #8]
                            payload.status.status = event->params.pairing_status.status;
   b993c:	6869      	ldreq	r1, [r5, #4]
                            payload.status.bonded = event->params.pairing_status.bonded;
   b993e:	f003 0201 	andeq.w	r2, r3, #1
                            payloadLen = sizeof(BlePairingStatus);
   b9942:	2508      	moveq	r5, #8
                            payload.status.lesc = event->params.pairing_status.lesc;
   b9944:	bf0f      	iteee	eq
   b9946:	f3c3 0340 	ubfxeq	r3, r3, #1, #1
                        BlePairingEventPayload payload = {};
   b994a:	461a      	movne	r2, r3
   b994c:	4619      	movne	r1, r3
                        size_t payloadLen = 0;
   b994e:	461d      	movne	r5, r3
   b9950:	e7dd      	b.n	b990e <_ZN8particle18BleLocalDeviceImpl15onBleLinkEventsEPK18hal_ble_link_evt_tPv+0x17a>
                BlePeerDevice* peer = impl->findPeerDevice(event->conn_handle);
   b9952:	89a9      	ldrh	r1, [r5, #12]
   b9954:	4620      	mov	r0, r4
   b9956:	f7ff fb29 	bl	b8fac <_ZN8particle18BleLocalDeviceImpl14findPeerDeviceEt>
                if (peer && impl->attMtuExchangedCallback_) {
   b995a:	4601      	mov	r1, r0
   b995c:	2800      	cmp	r0, #0
   b995e:	f43f af62 	beq.w	b9826 <_ZN8particle18BleLocalDeviceImpl15onBleLinkEventsEPK18hal_ble_link_evt_tPv+0x92>
   b9962:	6de3      	ldr	r3, [r4, #92]	; 0x5c
   b9964:	2b00      	cmp	r3, #0
   b9966:	f43f af5e 	beq.w	b9826 <_ZN8particle18BleLocalDeviceImpl15onBleLinkEventsEPK18hal_ble_link_evt_tPv+0x92>
                    impl->attMtuExchangedCallback_(*peer, event->params.att_mtu_updated.att_mtu_size);
   b996a:	686b      	ldr	r3, [r5, #4]
   b996c:	9306      	str	r3, [sp, #24]
   b996e:	aa06      	add	r2, sp, #24
   b9970:	6e23      	ldr	r3, [r4, #96]	; 0x60
   b9972:	f104 0054 	add.w	r0, r4, #84	; 0x54
   b9976:	4798      	blx	r3
   b9978:	e755      	b.n	b9826 <_ZN8particle18BleLocalDeviceImpl15onBleLinkEventsEPK18hal_ble_link_evt_tPv+0x92>
   b997a:	bf00      	nop
   b997c:	000be8cc 	.word	0x000be8cc
   b9980:	000be84b 	.word	0x000be84b
   b9984:	000be8f2 	.word	0x000be8f2
   b9988:	000be90f 	.word	0x000be90f

000b998c <_ZSt4swapISt9_Any_dataENSt9enable_ifIXsrSt6__and_IJSt6__not_ISt15__is_tuple_likeIT_EESt21is_move_constructibleIS5_ESt18is_move_assignableIS5_EEE5valueEvE4typeERS5_SF_>:
    swap(_Tp& __a, _Tp& __b)
   b998c:	b513      	push	{r0, r1, r4, lr}
   b998e:	460b      	mov	r3, r1
   b9990:	4602      	mov	r2, r0
      _Tp __tmp = _GLIBCXX_MOVE(__a);
   b9992:	e9d0 0100 	ldrd	r0, r1, [r0]
   b9996:	466c      	mov	r4, sp
   b9998:	e884 0003 	stmia.w	r4, {r0, r1}
      __a = _GLIBCXX_MOVE(__b);
   b999c:	e893 0003 	ldmia.w	r3, {r0, r1}
   b99a0:	e882 0003 	stmia.w	r2, {r0, r1}
      __b = _GLIBCXX_MOVE(__tmp);
   b99a4:	e894 0003 	ldmia.w	r4, {r0, r1}
   b99a8:	e883 0003 	stmia.w	r3, {r0, r1}
    }
   b99ac:	b002      	add	sp, #8
   b99ae:	bd10      	pop	{r4, pc}

000b99b0 <_ZNSt8functionIFvPKhjRKN8particle13BlePeerDeviceEEE4swapERS7_>:
      void swap(function& __x) noexcept
   b99b0:	b538      	push	{r3, r4, r5, lr}
   b99b2:	4605      	mov	r5, r0
   b99b4:	460c      	mov	r4, r1
	std::swap(_M_functor, __x._M_functor);
   b99b6:	f7ff ffe9 	bl	b998c <_ZSt4swapISt9_Any_dataENSt9enable_ifIXsrSt6__and_IJSt6__not_ISt15__is_tuple_likeIT_EESt21is_move_constructibleIS5_ESt18is_move_assignableIS5_EEE5valueEvE4typeERS5_SF_>
      _Tp __tmp = _GLIBCXX_MOVE(__a);
   b99ba:	68ab      	ldr	r3, [r5, #8]
      __a = _GLIBCXX_MOVE(__b);
   b99bc:	68a2      	ldr	r2, [r4, #8]
   b99be:	60aa      	str	r2, [r5, #8]
      __b = _GLIBCXX_MOVE(__tmp);
   b99c0:	60a3      	str	r3, [r4, #8]
      _Tp __tmp = _GLIBCXX_MOVE(__a);
   b99c2:	68eb      	ldr	r3, [r5, #12]
      __a = _GLIBCXX_MOVE(__b);
   b99c4:	68e2      	ldr	r2, [r4, #12]
   b99c6:	60ea      	str	r2, [r5, #12]
      __b = _GLIBCXX_MOVE(__tmp);
   b99c8:	60e3      	str	r3, [r4, #12]
      }
   b99ca:	bd38      	pop	{r3, r4, r5, pc}

000b99cc <_ZN8particle21BleCharacteristicImplC1ENS_9EnumFlagsINS_25BleCharacteristicPropertyEvEEPKcPFvPKhjRKNS_13BlePeerDeviceEPvESB_>:
    BleCharacteristicImpl(EnumFlags<BleCharacteristicProperty> properties, const char* desc, BleOnDataReceivedCallback callback, void* context)
   b99cc:	b570      	push	{r4, r5, r6, lr}
   b99ce:	4604      	mov	r4, r0
   b99d0:	b08c      	sub	sp, #48	; 0x30
   b99d2:	460e      	mov	r6, r1
   b99d4:	9201      	str	r2, [sp, #4]
   b99d6:	461d      	mov	r5, r3
            : BleCharacteristicImpl() {
   b99d8:	f7ff fac8 	bl	b8f6c <_ZN8particle21BleCharacteristicImplC1Ev>
        properties_ = properties;
   b99dc:	7126      	strb	r6, [r4, #4]
        description_ = desc;
   b99de:	9901      	ldr	r1, [sp, #4]
   b99e0:	f104 003c 	add.w	r0, r4, #60	; 0x3c
   b99e4:	f000 fd8b 	bl	ba4fe <_ZN6StringaSEPKc>
        dataReceivedCallback_ = callback ? std::bind(callback, _1, _2, _3, context) : (BleOnDataReceivedStdFunction)nullptr;
   b99e8:	f104 064c 	add.w	r6, r4, #76	; 0x4c
   b99ec:	b1cd      	cbz	r5, b9a22 <_ZN8particle21BleCharacteristicImplC1ENS_9EnumFlagsINS_25BleCharacteristicPropertyEvEEPKcPFvPKhjRKNS_13BlePeerDeviceEPvESB_+0x56>
   b99ee:	9b10      	ldr	r3, [sp, #64]	; 0x40
	: _M_f(__f), _M_bound_args(std::forward<_Args>(__args)...)
   b99f0:	9502      	str	r5, [sp, #8]
   b99f2:	a902      	add	r1, sp, #8
   b99f4:	a804      	add	r0, sp, #16
   b99f6:	9303      	str	r3, [sp, #12]
   b99f8:	f7ff fcb4 	bl	b9364 <_ZNSt8functionIFvPKhjRKN8particle13BlePeerDeviceEEEC1ISt5_BindIFPFvS1_jS5_PvESt12_PlaceholderILi1EESD_ILi2EESD_ILi3EESA_EEvvEET_>
    _Function_base() : _M_manager(nullptr) { }
   b99fc:	2300      	movs	r3, #0
	__x.swap(*this);
   b99fe:	a908      	add	r1, sp, #32
   b9a00:	a804      	add	r0, sp, #16
    _Function_base() : _M_manager(nullptr) { }
   b9a02:	930a      	str	r3, [sp, #40]	; 0x28
	__x.swap(*this);
   b9a04:	f7ff ffd4 	bl	b99b0 <_ZNSt8functionIFvPKhjRKN8particle13BlePeerDeviceEEE4swapERS7_>
	function(std::move(__x)).swap(*this);
   b9a08:	4631      	mov	r1, r6
   b9a0a:	a808      	add	r0, sp, #32
   b9a0c:	f7ff ffd0 	bl	b99b0 <_ZNSt8functionIFvPKhjRKN8particle13BlePeerDeviceEEE4swapERS7_>
    class function<_Res(_ArgTypes...)>
   b9a10:	a808      	add	r0, sp, #32
   b9a12:	f7ff f935 	bl	b8c80 <_ZNSt14_Function_baseD1Ev>
   b9a16:	a804      	add	r0, sp, #16
   b9a18:	f7ff f932 	bl	b8c80 <_ZNSt14_Function_baseD1Ev>
    }
   b9a1c:	4620      	mov	r0, r4
   b9a1e:	b00c      	add	sp, #48	; 0x30
   b9a20:	bd70      	pop	{r4, r5, r6, pc}
    _Function_base() : _M_manager(nullptr) { }
   b9a22:	9506      	str	r5, [sp, #24]
      : _Function_base() { }
   b9a24:	e7ea      	b.n	b99fc <_ZN8particle21BleCharacteristicImplC1ENS_9EnumFlagsINS_25BleCharacteristicPropertyEvEEPKcPFvPKhjRKNS_13BlePeerDeviceEPvESB_+0x30>
	...

000b9a28 <_ZN8particle17BleCharacteristic9constructEPKcNS_9EnumFlagsINS_25BleCharacteristicPropertyEvEERNS_7BleUuidES7_PFvPKhjRKNS_13BlePeerDeviceEPvESD_>:
void BleCharacteristic::construct(const char* desc, EnumFlags<BleCharacteristicProperty> properties, BleUuid& charUuid, BleUuid& svcUuid, BleOnDataReceivedCallback callback, void* context) {
   b9a28:	e92d 4ff0 	stmdb	sp!, {r4, r5, r6, r7, r8, r9, sl, fp, lr}
   b9a2c:	b087      	sub	sp, #28
   b9a2e:	461d      	mov	r5, r3
   b9a30:	e9dd 4310 	ldrd	r4, r3, [sp, #64]	; 0x40
   b9a34:	4680      	mov	r8, r0
   b9a36:	468b      	mov	fp, r1
   b9a38:	4692      	mov	sl, r2
   b9a3a:	9912      	ldr	r1, [sp, #72]	; 0x48
   b9a3c:	9303      	str	r3, [sp, #12]
	: _M_ptr(), _M_refcount(_M_ptr, __tag, std::forward<_Args>(__args)...)
   b9a3e:	2200      	movs	r2, #0
   b9a40:	2068      	movs	r0, #104	; 0x68
   b9a42:	9102      	str	r1, [sp, #8]
   b9a44:	9204      	str	r2, [sp, #16]
   b9a46:	f7fa fb26 	bl	b4096 <_Znwj>
	  auto __pi = ::new (__mem)
   b9a4a:	1e06      	subs	r6, r0, #0
   b9a4c:	f106 090c 	add.w	r9, r6, #12
   b9a50:	d018      	beq.n	b9a84 <_ZN8particle17BleCharacteristic9constructEPKcNS_9EnumFlagsINS_25BleCharacteristicPropertyEvEERNS_7BleUuidES7_PFvPKhjRKNS_13BlePeerDeviceEPvESD_+0x5c>
      : _M_use_count(1), _M_weak_count(1) { }
   b9a52:	2201      	movs	r2, #1
	: _M_impl(__a)
   b9a54:	4637      	mov	r7, r6
      : _M_use_count(1), _M_weak_count(1) { }
   b9a56:	e9c6 2201 	strd	r2, r2, [r6, #4]
            : BleCharacteristicImpl(properties, desc, callback, context) {
   b9a5a:	9902      	ldr	r1, [sp, #8]
	: _M_impl(__a)
   b9a5c:	4a15      	ldr	r2, [pc, #84]	; (b9ab4 <_ZN8particle17BleCharacteristic9constructEPKcNS_9EnumFlagsINS_25BleCharacteristicPropertyEvEERNS_7BleUuidES7_PFvPKhjRKNS_13BlePeerDeviceEPvESD_+0x8c>)
   b9a5e:	f847 2b20 	str.w	r2, [r7], #32
   b9a62:	9b03      	ldr	r3, [sp, #12]
   b9a64:	9100      	str	r1, [sp, #0]
   b9a66:	465a      	mov	r2, fp
   b9a68:	4651      	mov	r1, sl
   b9a6a:	4648      	mov	r0, r9
   b9a6c:	f7ff ffae 	bl	b99cc <_ZN8particle21BleCharacteristicImplC1ENS_9EnumFlagsINS_25BleCharacteristicPropertyEvEEPKcPFvPKhjRKNS_13BlePeerDeviceEPvESB_>
        charUuid_ = charUuid;
   b9a70:	cd0f      	ldmia	r5!, {r0, r1, r2, r3}
   b9a72:	c70f      	stmia	r7!, {r0, r1, r2, r3}
   b9a74:	682b      	ldr	r3, [r5, #0]
   b9a76:	603b      	str	r3, [r7, #0]
        svcUuid_ = svcUuid;
   b9a78:	cc0f      	ldmia	r4!, {r0, r1, r2, r3}
   b9a7a:	f106 0534 	add.w	r5, r6, #52	; 0x34
   b9a7e:	c50f      	stmia	r5!, {r0, r1, r2, r3}
   b9a80:	6823      	ldr	r3, [r4, #0]
   b9a82:	602b      	str	r3, [r5, #0]
#endif

      shared_ptr&
      operator=(shared_ptr&& __r) noexcept
      {
	this->__shared_ptr<_Tp>::operator=(std::move(__r));
   b9a84:	a904      	add	r1, sp, #16
   b9a86:	4640      	mov	r0, r8
	  __p = __pi->_M_ptr();
   b9a88:	e9cd 9604 	strd	r9, r6, [sp, #16]
   b9a8c:	f7ff fd1a 	bl	b94c4 <_ZNSt12__shared_ptrIN8particle21BleCharacteristicImplELN9__gnu_cxx12_Lock_policyE0EEaSEOS4_.isra.0>
      ~__shared_ptr() = default;
   b9a90:	a805      	add	r0, sp, #20
   b9a92:	f7ff fca8 	bl	b93e6 <_ZNSt14__shared_countILN9__gnu_cxx12_Lock_policyE0EED1Ev>
    if (!impl()) {
   b9a96:	f8d8 3000 	ldr.w	r3, [r8]
   b9a9a:	b93b      	cbnz	r3, b9aac <_ZN8particle17BleCharacteristic9constructEPKcNS_9EnumFlagsINS_25BleCharacteristicPropertyEvEERNS_7BleUuidES7_PFvPKhjRKNS_13BlePeerDeviceEPvESD_+0x84>
        SPARK_ASSERT(false);
   b9a9c:	4a06      	ldr	r2, [pc, #24]	; (b9ab8 <_ZN8particle17BleCharacteristic9constructEPKcNS_9EnumFlagsINS_25BleCharacteristicPropertyEvEERNS_7BleUuidES7_PFvPKhjRKNS_13BlePeerDeviceEPvESD_+0x90>)
   b9a9e:	4907      	ldr	r1, [pc, #28]	; (b9abc <_ZN8particle17BleCharacteristic9constructEPKcNS_9EnumFlagsINS_25BleCharacteristicPropertyEvEERNS_7BleUuidES7_PFvPKhjRKNS_13BlePeerDeviceEPvESD_+0x94>)
   b9aa0:	200a      	movs	r0, #10
}
   b9aa2:	b007      	add	sp, #28
   b9aa4:	e8bd 4ff0 	ldmia.w	sp!, {r4, r5, r6, r7, r8, r9, sl, fp, lr}
        SPARK_ASSERT(false);
   b9aa8:	f7fe bf4c 	b.w	b8944 <panic_>
}
   b9aac:	b007      	add	sp, #28
   b9aae:	e8bd 8ff0 	ldmia.w	sp!, {r4, r5, r6, r7, r8, r9, sl, fp, pc}
   b9ab2:	bf00      	nop
   b9ab4:	000be988 	.word	0x000be988
   b9ab8:	000b86e5 	.word	0x000b86e5
   b9abc:	000be834 	.word	0x000be834

000b9ac0 <_ZN5spark6VectorIN8particle10BleServiceENS_16DefaultAllocatorEE4moveIS2_Li0EEEvPS2_S6_S6_>:
        if (dest > p && dest < end) {
   b9ac0:	4288      	cmp	r0, r1
    static void move(T* dest, T* p, T* end) {
   b9ac2:	b5f8      	push	{r3, r4, r5, r6, r7, lr}
   b9ac4:	4604      	mov	r4, r0
   b9ac6:	460d      	mov	r5, r1
   b9ac8:	4616      	mov	r6, r2
        if (dest > p && dest < end) {
   b9aca:	d914      	bls.n	b9af6 <_ZN5spark6VectorIN8particle10BleServiceENS_16DefaultAllocatorEE4moveIS2_Li0EEEvPS2_S6_S6_+0x36>
   b9acc:	4290      	cmp	r0, r2
   b9ace:	d213      	bcs.n	b9af8 <_ZN5spark6VectorIN8particle10BleServiceENS_16DefaultAllocatorEE4moveIS2_Li0EEEvPS2_S6_S6_+0x38>
            --end;
   b9ad0:	f1a2 0608 	sub.w	r6, r2, #8
            dest += end - p - 1;
   b9ad4:	1a75      	subs	r5, r6, r1
   b9ad6:	f1a1 0708 	sub.w	r7, r1, #8
   b9ada:	442c      	add	r4, r5
            for (; end != p; --end, --dest) {
   b9adc:	42b7      	cmp	r7, r6
   b9ade:	d018      	beq.n	b9b12 <_ZN5spark6VectorIN8particle10BleServiceENS_16DefaultAllocatorEE4moveIS2_Li0EEEvPS2_S6_S6_+0x52>
                new(dest) T(std::move(*end));
   b9ae0:	b11c      	cbz	r4, b9aea <_ZN5spark6VectorIN8particle10BleServiceENS_16DefaultAllocatorEE4moveIS2_Li0EEEvPS2_S6_S6_+0x2a>
      shared_ptr(const shared_ptr&) noexcept = default; ///< Copy constructor
   b9ae2:	4631      	mov	r1, r6
   b9ae4:	4620      	mov	r0, r4
   b9ae6:	f7ff fc6a 	bl	b93be <_ZNSt12__shared_ptrIN8particle14BleServiceImplELN9__gnu_cxx12_Lock_policyE0EEC1ERKS4_>
   b9aea:	1d30      	adds	r0, r6, #4
   b9aec:	f7ff fc7b 	bl	b93e6 <_ZNSt14__shared_countILN9__gnu_cxx12_Lock_policyE0EED1Ev>
            for (; end != p; --end, --dest) {
   b9af0:	3e08      	subs	r6, #8
   b9af2:	3c08      	subs	r4, #8
   b9af4:	e7f2      	b.n	b9adc <_ZN5spark6VectorIN8particle10BleServiceENS_16DefaultAllocatorEE4moveIS2_Li0EEEvPS2_S6_S6_+0x1c>
        } else if (dest != p) {
   b9af6:	d00c      	beq.n	b9b12 <_ZN5spark6VectorIN8particle10BleServiceENS_16DefaultAllocatorEE4moveIS2_Li0EEEvPS2_S6_S6_+0x52>
            for (; p != end; ++p, ++dest) {
   b9af8:	42b5      	cmp	r5, r6
   b9afa:	d00a      	beq.n	b9b12 <_ZN5spark6VectorIN8particle10BleServiceENS_16DefaultAllocatorEE4moveIS2_Li0EEEvPS2_S6_S6_+0x52>
                new(dest) T(std::move(*p));
   b9afc:	b11c      	cbz	r4, b9b06 <_ZN5spark6VectorIN8particle10BleServiceENS_16DefaultAllocatorEE4moveIS2_Li0EEEvPS2_S6_S6_+0x46>
   b9afe:	4629      	mov	r1, r5
   b9b00:	4620      	mov	r0, r4
   b9b02:	f7ff fc5c 	bl	b93be <_ZNSt12__shared_ptrIN8particle14BleServiceImplELN9__gnu_cxx12_Lock_policyE0EEC1ERKS4_>
   b9b06:	1d28      	adds	r0, r5, #4
   b9b08:	f7ff fc6d 	bl	b93e6 <_ZNSt14__shared_countILN9__gnu_cxx12_Lock_policyE0EED1Ev>
            for (; p != end; ++p, ++dest) {
   b9b0c:	3508      	adds	r5, #8
   b9b0e:	3408      	adds	r4, #8
   b9b10:	e7f2      	b.n	b9af8 <_ZN5spark6VectorIN8particle10BleServiceENS_16DefaultAllocatorEE4moveIS2_Li0EEEvPS2_S6_S6_+0x38>
    }
   b9b12:	bdf8      	pop	{r3, r4, r5, r6, r7, pc}

000b9b14 <_ZN5spark6VectorIN8particle10BleServiceENS_16DefaultAllocatorEE7reallocIS2_Li0EEEbi>:
    bool realloc(int n) {
   b9b14:	b570      	push	{r4, r5, r6, lr}
        if (n > 0) {
   b9b16:	1e0e      	subs	r6, r1, #0
    bool realloc(int n) {
   b9b18:	4605      	mov	r5, r0
        if (n > 0) {
   b9b1a:	dd11      	ble.n	b9b40 <_ZN5spark6VectorIN8particle10BleServiceENS_16DefaultAllocatorEE7reallocIS2_Li0EEEbi+0x2c>
    return ::malloc(size);
   b9b1c:	00f0      	lsls	r0, r6, #3
   b9b1e:	f7fe ffbd 	bl	b8a9c <malloc>
            if (!d) {
   b9b22:	4604      	mov	r4, r0
   b9b24:	b158      	cbz	r0, b9b3e <_ZN5spark6VectorIN8particle10BleServiceENS_16DefaultAllocatorEE7reallocIS2_Li0EEEbi+0x2a>
            move(d, data_, data_ + size_);
   b9b26:	e9d5 1200 	ldrd	r1, r2, [r5]
   b9b2a:	eb01 02c2 	add.w	r2, r1, r2, lsl #3
   b9b2e:	f7ff ffc7 	bl	b9ac0 <_ZN5spark6VectorIN8particle10BleServiceENS_16DefaultAllocatorEE4moveIS2_Li0EEEvPS2_S6_S6_>
    ::free(ptr);
   b9b32:	6828      	ldr	r0, [r5, #0]
   b9b34:	f7fe ffba 	bl	b8aac <free>
        data_ = d;
   b9b38:	602c      	str	r4, [r5, #0]
        capacity_ = n;
   b9b3a:	60ae      	str	r6, [r5, #8]
        return true;
   b9b3c:	2001      	movs	r0, #1
    }
   b9b3e:	bd70      	pop	{r4, r5, r6, pc}
        T* d = nullptr;
   b9b40:	2400      	movs	r4, #0
   b9b42:	e7f6      	b.n	b9b32 <_ZN5spark6VectorIN8particle10BleServiceENS_16DefaultAllocatorEE7reallocIS2_Li0EEEbi+0x1e>

000b9b44 <_ZN5spark6VectorIN8particle10BleServiceENS_16DefaultAllocatorEE6appendES2_>:
inline bool spark::Vector<T, AllocatorT>::append(T value) {
   b9b44:	b573      	push	{r0, r1, r4, r5, r6, lr}
   b9b46:	4604      	mov	r4, r0
    return insert(size_, std::move(value));
   b9b48:	6845      	ldr	r5, [r0, #4]
   b9b4a:	4668      	mov	r0, sp
   b9b4c:	f7ff fc37 	bl	b93be <_ZNSt12__shared_ptrIN8particle14BleServiceImplELN9__gnu_cxx12_Lock_policyE0EEC1ERKS4_>
    if (size_ + 1 > capacity_ && !realloc(size_ + 1)) {
   b9b50:	e9d4 1301 	ldrd	r1, r3, [r4, #4]
   b9b54:	4299      	cmp	r1, r3
   b9b56:	da10      	bge.n	b9b7a <_ZN5spark6VectorIN8particle10BleServiceENS_16DefaultAllocatorEE6appendES2_+0x36>
    T* const p = data_ + i;
   b9b58:	6823      	ldr	r3, [r4, #0]
    move(p + 1, p, data_ + size_);
   b9b5a:	6862      	ldr	r2, [r4, #4]
    T* const p = data_ + i;
   b9b5c:	eb03 05c5 	add.w	r5, r3, r5, lsl #3
    move(p + 1, p, data_ + size_);
   b9b60:	eb03 02c2 	add.w	r2, r3, r2, lsl #3
   b9b64:	4629      	mov	r1, r5
   b9b66:	f105 0008 	add.w	r0, r5, #8
   b9b6a:	f7ff ffa9 	bl	b9ac0 <_ZN5spark6VectorIN8particle10BleServiceENS_16DefaultAllocatorEE4moveIS2_Li0EEEvPS2_S6_S6_>
    new(p) T(std::move(value));
   b9b6e:	b98d      	cbnz	r5, b9b94 <_ZN5spark6VectorIN8particle10BleServiceENS_16DefaultAllocatorEE6appendES2_+0x50>
    ++size_;
   b9b70:	6863      	ldr	r3, [r4, #4]
   b9b72:	3301      	adds	r3, #1
   b9b74:	6063      	str	r3, [r4, #4]
    return true;
   b9b76:	2601      	movs	r6, #1
   b9b78:	e006      	b.n	b9b88 <_ZN5spark6VectorIN8particle10BleServiceENS_16DefaultAllocatorEE6appendES2_+0x44>
    if (size_ + 1 > capacity_ && !realloc(size_ + 1)) {
   b9b7a:	3101      	adds	r1, #1
   b9b7c:	4620      	mov	r0, r4
   b9b7e:	f7ff ffc9 	bl	b9b14 <_ZN5spark6VectorIN8particle10BleServiceENS_16DefaultAllocatorEE7reallocIS2_Li0EEEbi>
   b9b82:	4606      	mov	r6, r0
   b9b84:	2800      	cmp	r0, #0
   b9b86:	d1e7      	bne.n	b9b58 <_ZN5spark6VectorIN8particle10BleServiceENS_16DefaultAllocatorEE6appendES2_+0x14>
   b9b88:	a801      	add	r0, sp, #4
   b9b8a:	f7ff fc2c 	bl	b93e6 <_ZNSt14__shared_countILN9__gnu_cxx12_Lock_policyE0EED1Ev>
}
   b9b8e:	4630      	mov	r0, r6
   b9b90:	b002      	add	sp, #8
   b9b92:	bd70      	pop	{r4, r5, r6, pc}
   b9b94:	4669      	mov	r1, sp
   b9b96:	4628      	mov	r0, r5
   b9b98:	f7ff fc11 	bl	b93be <_ZNSt12__shared_ptrIN8particle14BleServiceImplELN9__gnu_cxx12_Lock_policyE0EEC1ERKS4_>
   b9b9c:	e7e8      	b.n	b9b70 <_ZN5spark6VectorIN8particle10BleServiceENS_16DefaultAllocatorEE6appendES2_+0x2c>

000b9b9e <_ZN5spark6VectorIN8particle17BleCharacteristicENS_16DefaultAllocatorEE4moveIS2_Li0EEEvPS2_S6_S6_>:
        if (dest > p && dest < end) {
   b9b9e:	4288      	cmp	r0, r1
    static void move(T* dest, T* p, T* end) {
   b9ba0:	b5f8      	push	{r3, r4, r5, r6, r7, lr}
   b9ba2:	4604      	mov	r4, r0
   b9ba4:	460d      	mov	r5, r1
   b9ba6:	4616      	mov	r6, r2
        if (dest > p && dest < end) {
   b9ba8:	d914      	bls.n	b9bd4 <_ZN5spark6VectorIN8particle17BleCharacteristicENS_16DefaultAllocatorEE4moveIS2_Li0EEEvPS2_S6_S6_+0x36>
   b9baa:	4290      	cmp	r0, r2
   b9bac:	d213      	bcs.n	b9bd6 <_ZN5spark6VectorIN8particle17BleCharacteristicENS_16DefaultAllocatorEE4moveIS2_Li0EEEvPS2_S6_S6_+0x38>
            --end;
   b9bae:	f1a2 0608 	sub.w	r6, r2, #8
            dest += end - p - 1;
   b9bb2:	1a75      	subs	r5, r6, r1
   b9bb4:	f1a1 0708 	sub.w	r7, r1, #8
   b9bb8:	442c      	add	r4, r5
            for (; end != p; --end, --dest) {
   b9bba:	42b7      	cmp	r7, r6
   b9bbc:	d018      	beq.n	b9bf0 <_ZN5spark6VectorIN8particle17BleCharacteristicENS_16DefaultAllocatorEE4moveIS2_Li0EEEvPS2_S6_S6_+0x52>
                new(dest) T(std::move(*end));
   b9bbe:	b11c      	cbz	r4, b9bc8 <_ZN5spark6VectorIN8particle17BleCharacteristicENS_16DefaultAllocatorEE4moveIS2_Li0EEEvPS2_S6_S6_+0x2a>
   b9bc0:	4631      	mov	r1, r6
   b9bc2:	4620      	mov	r0, r4
   b9bc4:	f7ff fbed 	bl	b93a2 <_ZN8particle17BleCharacteristicC1ERKS0_>
   b9bc8:	1d30      	adds	r0, r6, #4
   b9bca:	f7ff fc0c 	bl	b93e6 <_ZNSt14__shared_countILN9__gnu_cxx12_Lock_policyE0EED1Ev>
            for (; end != p; --end, --dest) {
   b9bce:	3e08      	subs	r6, #8
   b9bd0:	3c08      	subs	r4, #8
   b9bd2:	e7f2      	b.n	b9bba <_ZN5spark6VectorIN8particle17BleCharacteristicENS_16DefaultAllocatorEE4moveIS2_Li0EEEvPS2_S6_S6_+0x1c>
        } else if (dest != p) {
   b9bd4:	d00c      	beq.n	b9bf0 <_ZN5spark6VectorIN8particle17BleCharacteristicENS_16DefaultAllocatorEE4moveIS2_Li0EEEvPS2_S6_S6_+0x52>
            for (; p != end; ++p, ++dest) {
   b9bd6:	42b5      	cmp	r5, r6
   b9bd8:	d00a      	beq.n	b9bf0 <_ZN5spark6VectorIN8particle17BleCharacteristicENS_16DefaultAllocatorEE4moveIS2_Li0EEEvPS2_S6_S6_+0x52>
                new(dest) T(std::move(*p));
   b9bda:	b11c      	cbz	r4, b9be4 <_ZN5spark6VectorIN8particle17BleCharacteristicENS_16DefaultAllocatorEE4moveIS2_Li0EEEvPS2_S6_S6_+0x46>
   b9bdc:	4629      	mov	r1, r5
   b9bde:	4620      	mov	r0, r4
   b9be0:	f7ff fbdf 	bl	b93a2 <_ZN8particle17BleCharacteristicC1ERKS0_>
   b9be4:	1d28      	adds	r0, r5, #4
   b9be6:	f7ff fbfe 	bl	b93e6 <_ZNSt14__shared_countILN9__gnu_cxx12_Lock_policyE0EED1Ev>
            for (; p != end; ++p, ++dest) {
   b9bea:	3508      	adds	r5, #8
   b9bec:	3408      	adds	r4, #8
   b9bee:	e7f2      	b.n	b9bd6 <_ZN5spark6VectorIN8particle17BleCharacteristicENS_16DefaultAllocatorEE4moveIS2_Li0EEEvPS2_S6_S6_+0x38>
    }
   b9bf0:	bdf8      	pop	{r3, r4, r5, r6, r7, pc}

000b9bf2 <_ZN5spark6VectorIN8particle17BleCharacteristicENS_16DefaultAllocatorEE7reallocIS2_Li0EEEbi>:
    bool realloc(int n) {
   b9bf2:	b570      	push	{r4, r5, r6, lr}
        if (n > 0) {
   b9bf4:	1e0e      	subs	r6, r1, #0
    bool realloc(int n) {
   b9bf6:	4605      	mov	r5, r0
        if (n > 0) {
   b9bf8:	dd11      	ble.n	b9c1e <_ZN5spark6VectorIN8particle17BleCharacteristicENS_16DefaultAllocatorEE7reallocIS2_Li0EEEbi+0x2c>
    return ::malloc(size);
   b9bfa:	00f0      	lsls	r0, r6, #3
   b9bfc:	f7fe ff4e 	bl	b8a9c <malloc>
            if (!d) {
   b9c00:	4604      	mov	r4, r0
   b9c02:	b158      	cbz	r0, b9c1c <_ZN5spark6VectorIN8particle17BleCharacteristicENS_16DefaultAllocatorEE7reallocIS2_Li0EEEbi+0x2a>
            move(d, data_, data_ + size_);
   b9c04:	e9d5 1200 	ldrd	r1, r2, [r5]
   b9c08:	eb01 02c2 	add.w	r2, r1, r2, lsl #3
   b9c0c:	f7ff ffc7 	bl	b9b9e <_ZN5spark6VectorIN8particle17BleCharacteristicENS_16DefaultAllocatorEE4moveIS2_Li0EEEvPS2_S6_S6_>
    ::free(ptr);
   b9c10:	6828      	ldr	r0, [r5, #0]
   b9c12:	f7fe ff4b 	bl	b8aac <free>
        data_ = d;
   b9c16:	602c      	str	r4, [r5, #0]
        capacity_ = n;
   b9c18:	60ae      	str	r6, [r5, #8]
        return true;
   b9c1a:	2001      	movs	r0, #1
    }
   b9c1c:	bd70      	pop	{r4, r5, r6, pc}
        T* d = nullptr;
   b9c1e:	2400      	movs	r4, #0
   b9c20:	e7f6      	b.n	b9c10 <_ZN5spark6VectorIN8particle17BleCharacteristicENS_16DefaultAllocatorEE7reallocIS2_Li0EEEbi+0x1e>

000b9c22 <_ZN5spark6VectorIN8particle17BleCharacteristicENS_16DefaultAllocatorEE6appendES2_>:
inline bool spark::Vector<T, AllocatorT>::append(T value) {
   b9c22:	b573      	push	{r0, r1, r4, r5, r6, lr}
   b9c24:	4604      	mov	r4, r0
    return insert(size_, std::move(value));
   b9c26:	6845      	ldr	r5, [r0, #4]
   b9c28:	4668      	mov	r0, sp
   b9c2a:	f7ff fbba 	bl	b93a2 <_ZN8particle17BleCharacteristicC1ERKS0_>
    if (size_ + 1 > capacity_ && !realloc(size_ + 1)) {
   b9c2e:	e9d4 1301 	ldrd	r1, r3, [r4, #4]
   b9c32:	4299      	cmp	r1, r3
   b9c34:	da10      	bge.n	b9c58 <_ZN5spark6VectorIN8particle17BleCharacteristicENS_16DefaultAllocatorEE6appendES2_+0x36>
    T* const p = data_ + i;
   b9c36:	6823      	ldr	r3, [r4, #0]
    move(p + 1, p, data_ + size_);
   b9c38:	6862      	ldr	r2, [r4, #4]
    T* const p = data_ + i;
   b9c3a:	eb03 05c5 	add.w	r5, r3, r5, lsl #3
    move(p + 1, p, data_ + size_);
   b9c3e:	eb03 02c2 	add.w	r2, r3, r2, lsl #3
   b9c42:	4629      	mov	r1, r5
   b9c44:	f105 0008 	add.w	r0, r5, #8
   b9c48:	f7ff ffa9 	bl	b9b9e <_ZN5spark6VectorIN8particle17BleCharacteristicENS_16DefaultAllocatorEE4moveIS2_Li0EEEvPS2_S6_S6_>
    new(p) T(std::move(value));
   b9c4c:	b98d      	cbnz	r5, b9c72 <_ZN5spark6VectorIN8particle17BleCharacteristicENS_16DefaultAllocatorEE6appendES2_+0x50>
    ++size_;
   b9c4e:	6863      	ldr	r3, [r4, #4]
   b9c50:	3301      	adds	r3, #1
   b9c52:	6063      	str	r3, [r4, #4]
    return true;
   b9c54:	2601      	movs	r6, #1
   b9c56:	e006      	b.n	b9c66 <_ZN5spark6VectorIN8particle17BleCharacteristicENS_16DefaultAllocatorEE6appendES2_+0x44>
    if (size_ + 1 > capacity_ && !realloc(size_ + 1)) {
   b9c58:	3101      	adds	r1, #1
   b9c5a:	4620      	mov	r0, r4
   b9c5c:	f7ff ffc9 	bl	b9bf2 <_ZN5spark6VectorIN8particle17BleCharacteristicENS_16DefaultAllocatorEE7reallocIS2_Li0EEEbi>
   b9c60:	4606      	mov	r6, r0
   b9c62:	2800      	cmp	r0, #0
   b9c64:	d1e7      	bne.n	b9c36 <_ZN5spark6VectorIN8particle17BleCharacteristicENS_16DefaultAllocatorEE6appendES2_+0x14>
   b9c66:	a801      	add	r0, sp, #4
   b9c68:	f7ff fbbd 	bl	b93e6 <_ZNSt14__shared_countILN9__gnu_cxx12_Lock_policyE0EED1Ev>
}
   b9c6c:	4630      	mov	r0, r6
   b9c6e:	b002      	add	sp, #8
   b9c70:	bd70      	pop	{r4, r5, r6, pc}
    new(p) T(std::move(value));
   b9c72:	4669      	mov	r1, sp
   b9c74:	4628      	mov	r0, r5
   b9c76:	f7ff fb94 	bl	b93a2 <_ZN8particle17BleCharacteristicC1ERKS0_>
   b9c7a:	e7e8      	b.n	b9c4e <_ZN5spark6VectorIN8particle17BleCharacteristicENS_16DefaultAllocatorEE6appendES2_+0x2c>

000b9c7c <_ZN8particle14BleLocalDevice17addCharacteristicERKNS_17BleCharacteristicE>:
        }
    }
    return BlePeerDevice();
}

BleCharacteristic BleLocalDevice::addCharacteristic(const BleCharacteristic& characteristic) {
   b9c7c:	e92d 4ff0 	stmdb	sp!, {r4, r5, r6, r7, r8, r9, sl, fp, lr}
   b9c80:	4617      	mov	r7, r2
   b9c82:	b0a1      	sub	sp, #132	; 0x84
   b9c84:	4680      	mov	r8, r0
    WiringBleLock lk;
   b9c86:	a80a      	add	r0, sp, #40	; 0x28
BleCharacteristic BleLocalDevice::addCharacteristic(const BleCharacteristic& characteristic) {
   b9c88:	460e      	mov	r6, r1
    WiringBleLock lk;
   b9c8a:	f7ff f837 	bl	b8cfc <_ZN8particle3ble13WiringBleLockC1Ev>
      { return _M_ptr; }
   b9c8e:	683c      	ldr	r4, [r7, #0]
    auto charImpl = characteristic.impl();
    if (charImpl->properties() == BleCharacteristicProperty::NONE) {
   b9c90:	7923      	ldrb	r3, [r4, #4]
   b9c92:	b953      	cbnz	r3, b9caa <_ZN8particle14BleLocalDevice17addCharacteristicERKNS_17BleCharacteristicE+0x2e>
        return characteristic;
    }
    for (const auto& existChar : impl()->characteristics()) {
        if (*charImpl == *existChar.impl()) {
            LOG(ERROR, "Duplicated characteristic cannot be added.");
            return characteristic;
   b9c94:	4639      	mov	r1, r7
   b9c96:	4640      	mov	r0, r8
   b9c98:	f7ff fb83 	bl	b93a2 <_ZN8particle17BleCharacteristicC1ERKS0_>
    WiringBleLock lk;
   b9c9c:	a80a      	add	r0, sp, #40	; 0x28
   b9c9e:	f7ff f83b 	bl	b8d18 <_ZN8particle3ble13WiringBleLockD1Ev>
    LOG_DEBUG(TRACE, "Add new local characteristic.");
    if(!impl()->characteristics().append(characteristic)) {
        LOG(ERROR, "Failed to append local characteristic.");
    }
    return characteristic;
}
   b9ca2:	4640      	mov	r0, r8
   b9ca4:	b021      	add	sp, #132	; 0x84
   b9ca6:	e8bd 8ff0 	ldmia.w	sp!, {r4, r5, r6, r7, r8, r9, sl, fp, pc}
      pointer    _M_ptr() const { return std::get<0>(_M_t); }
   b9caa:	6833      	ldr	r3, [r6, #0]
    return data_ + size_;
   b9cac:	e9d3 5303 	ldrd	r5, r3, [r3, #12]
   b9cb0:	eb05 03c3 	add.w	r3, r5, r3, lsl #3
   b9cb4:	9303      	str	r3, [sp, #12]
                svcUuid_ == impl.svcUuid_ &&
   b9cb6:	f104 0a28 	add.w	sl, r4, #40	; 0x28
        if (charUuid_ == impl.charUuid_ &&
   b9cba:	f104 0b14 	add.w	fp, r4, #20
    for (const auto& existChar : impl()->characteristics()) {
   b9cbe:	9b03      	ldr	r3, [sp, #12]
   b9cc0:	429d      	cmp	r5, r3
   b9cc2:	d021      	beq.n	b9d08 <_ZN8particle14BleLocalDevice17addCharacteristicERKNS_17BleCharacteristicE+0x8c>
   b9cc4:	f8d5 9000 	ldr.w	r9, [r5]
        if (charUuid_ == impl.charUuid_ &&
   b9cc8:	4658      	mov	r0, fp
   b9cca:	f109 0114 	add.w	r1, r9, #20
   b9cce:	f7ff f8c2 	bl	b8e56 <_ZNK8particle7BleUuideqERKS0_>
                isLocal_ == impl.isLocal_ &&
   b9cd2:	b1b8      	cbz	r0, b9d04 <_ZN8particle14BleLocalDevice17addCharacteristicERKNS_17BleCharacteristicE+0x88>
                svcUuid_ == impl.svcUuid_ &&
   b9cd4:	f109 0128 	add.w	r1, r9, #40	; 0x28
   b9cd8:	4650      	mov	r0, sl
   b9cda:	f7ff f8bc 	bl	b8e56 <_ZNK8particle7BleUuideqERKS0_>
        if (charUuid_ == impl.charUuid_ &&
   b9cde:	b188      	cbz	r0, b9d04 <_ZN8particle14BleLocalDevice17addCharacteristicERKNS_17BleCharacteristicE+0x88>
                isLocal_ == impl.isLocal_ &&
   b9ce0:	6823      	ldr	r3, [r4, #0]
   b9ce2:	f8d9 2000 	ldr.w	r2, [r9]
   b9ce6:	4053      	eors	r3, r2
   b9ce8:	f433 437f 	bics.w	r3, r3, #65280	; 0xff00
   b9cec:	d10a      	bne.n	b9d04 <_ZN8particle14BleLocalDevice17addCharacteristicERKNS_17BleCharacteristicE+0x88>
            LOG(ERROR, "Duplicated characteristic cannot be added.");
   b9cee:	2220      	movs	r2, #32
   b9cf0:	e9cd 2315 	strd	r2, r3, [sp, #84]	; 0x54
   b9cf4:	4a5e      	ldr	r2, [pc, #376]	; (b9e70 <_ZN8particle14BleLocalDevice17addCharacteristicERKNS_17BleCharacteristicE+0x1f4>)
   b9cf6:	9200      	str	r2, [sp, #0]
   b9cf8:	aa15      	add	r2, sp, #84	; 0x54
   b9cfa:	495e      	ldr	r1, [pc, #376]	; (b9e74 <_ZN8particle14BleLocalDevice17addCharacteristicERKNS_17BleCharacteristicE+0x1f8>)
   b9cfc:	2032      	movs	r0, #50	; 0x32
   b9cfe:	f7fe fe29 	bl	b8954 <log_message>
   b9d02:	e7c7      	b.n	b9c94 <_ZN8particle14BleLocalDevice17addCharacteristicERKNS_17BleCharacteristicE+0x18>
    for (const auto& existChar : impl()->characteristics()) {
   b9d04:	3508      	adds	r5, #8
   b9d06:	e7da      	b.n	b9cbe <_ZN8particle14BleLocalDevice17addCharacteristicERKNS_17BleCharacteristicE+0x42>
    if (!charImpl->svcUUID().isValid()) {
   b9d08:	4650      	mov	r0, sl
   b9d0a:	f7ff f875 	bl	b8df8 <_ZNK8particle7BleUuid7isValidEv>
   b9d0e:	b960      	cbnz	r0, b9d2a <_ZN8particle14BleLocalDevice17addCharacteristicERKNS_17BleCharacteristicE+0xae>
    String toString(bool stripped = false) const;
    size_t toString(char* buf, size_t len, bool stripped = false) const;

    template<typename T>
    BleUuid& operator=(T uuid) {
        return *this = BleUuid(uuid);
   b9d10:	4959      	ldr	r1, [pc, #356]	; (b9e78 <_ZN8particle14BleLocalDevice17addCharacteristicERKNS_17BleCharacteristicE+0x1fc>)
   b9d12:	2201      	movs	r2, #1
   b9d14:	a815      	add	r0, sp, #84	; 0x54
   b9d16:	ad15      	add	r5, sp, #84	; 0x54
   b9d18:	f7ff f846 	bl	b8da8 <_ZN8particle7BleUuidC1EPKhNS_12BleUuidOrderE>
   b9d1c:	cd0f      	ldmia	r5!, {r0, r1, r2, r3}
   b9d1e:	46d4      	mov	ip, sl
   b9d20:	e8ac 000f 	stmia.w	ip!, {r0, r1, r2, r3}
   b9d24:	682b      	ldr	r3, [r5, #0]
   b9d26:	f8cc 3000 	str.w	r3, [ip]
   b9d2a:	6833      	ldr	r3, [r6, #0]
   b9d2c:	e9d3 5300 	ldrd	r5, r3, [r3]
   b9d30:	eb05 0bc3 	add.w	fp, r5, r3, lsl #3
    for (auto& svc : impl()->services()) {
   b9d34:	455d      	cmp	r5, fp
   b9d36:	46a9      	mov	r9, r5
        BleService svc(charImpl->svcUUID());
   b9d38:	4651      	mov	r1, sl
    for (auto& svc : impl()->services()) {
   b9d3a:	d06e      	beq.n	b9e1a <_ZN8particle14BleLocalDevice17addCharacteristicERKNS_17BleCharacteristicE+0x19e>
        if (svc.impl()->UUID() == charImpl->svcUUID()) {
   b9d3c:	f855 0b08 	ldr.w	r0, [r5], #8
   b9d40:	f7ff f889 	bl	b8e56 <_ZNK8particle7BleUuideqERKS0_>
   b9d44:	2800      	cmp	r0, #0
   b9d46:	d0f5      	beq.n	b9d34 <_ZN8particle14BleLocalDevice17addCharacteristicERKNS_17BleCharacteristicE+0xb8>
        if (!charUuid_.isValid()) {
   b9d48:	f104 0a14 	add.w	sl, r4, #20
   b9d4c:	4650      	mov	r0, sl
   b9d4e:	f7ff f853 	bl	b8df8 <_ZNK8particle7BleUuid7isValidEv>
   b9d52:	b988      	cbnz	r0, b9d78 <_ZN8particle14BleLocalDevice17addCharacteristicERKNS_17BleCharacteristicE+0xfc>
            defaultUuidCharCount_++;
   b9d54:	4b49      	ldr	r3, [pc, #292]	; (b9e7c <_ZN8particle14BleLocalDevice17addCharacteristicERKNS_17BleCharacteristicE+0x200>)
            BleUuid newUuid(PARTICLE_DEFAULT_BLE_SVC_UUID, defaultUuidCharCount_);
   b9d56:	4948      	ldr	r1, [pc, #288]	; (b9e78 <_ZN8particle14BleLocalDevice17addCharacteristicERKNS_17BleCharacteristicE+0x1fc>)
            defaultUuidCharCount_++;
   b9d58:	881a      	ldrh	r2, [r3, #0]
   b9d5a:	3201      	adds	r2, #1
   b9d5c:	b292      	uxth	r2, r2
   b9d5e:	801a      	strh	r2, [r3, #0]
            BleUuid newUuid(PARTICLE_DEFAULT_BLE_SVC_UUID, defaultUuidCharCount_);
   b9d60:	a815      	add	r0, sp, #84	; 0x54
   b9d62:	2301      	movs	r3, #1
            charUuid_ = newUuid;
   b9d64:	ad15      	add	r5, sp, #84	; 0x54
            BleUuid newUuid(PARTICLE_DEFAULT_BLE_SVC_UUID, defaultUuidCharCount_);
   b9d66:	f7ff f83e 	bl	b8de6 <_ZN8particle7BleUuidC1EPKhtNS_12BleUuidOrderE>
            charUuid_ = newUuid;
   b9d6a:	cd0f      	ldmia	r5!, {r0, r1, r2, r3}
   b9d6c:	46d4      	mov	ip, sl
   b9d6e:	e8ac 000f 	stmia.w	ip!, {r0, r1, r2, r3}
   b9d72:	682b      	ldr	r3, [r5, #0]
   b9d74:	f8cc 3000 	str.w	r3, [ip]
    charInit.version = BLE_API_VERSION;
   b9d78:	4b41      	ldr	r3, [pc, #260]	; (b9e80 <_ZN8particle14BleLocalDevice17addCharacteristicERKNS_17BleCharacteristicE+0x204>)
   b9d7a:	9315      	str	r3, [sp, #84]	; 0x54
    hal_ble_char_init_t charInit = {};
   b9d7c:	2228      	movs	r2, #40	; 0x28
   b9d7e:	2100      	movs	r1, #0
   b9d80:	a816      	add	r0, sp, #88	; 0x58
   b9d82:	f002 fa19 	bl	bc1b8 <memset>
    charInit.uuid = charImpl->charUUID().halUUID();
   b9d86:	4651      	mov	r1, sl
   b9d88:	a804      	add	r0, sp, #16
   b9d8a:	f7ff f847 	bl	b8e1c <_ZN8particle7BleUuid7halUUIDEv>
   b9d8e:	ab04      	add	r3, sp, #16
   b9d90:	aa18      	add	r2, sp, #96	; 0x60
   b9d92:	f10d 0c20 	add.w	ip, sp, #32
   b9d96:	6818      	ldr	r0, [r3, #0]
   b9d98:	6859      	ldr	r1, [r3, #4]
   b9d9a:	4615      	mov	r5, r2
   b9d9c:	c503      	stmia	r5!, {r0, r1}
   b9d9e:	3308      	adds	r3, #8
   b9da0:	4563      	cmp	r3, ip
   b9da2:	462a      	mov	r2, r5
   b9da4:	d1f7      	bne.n	b9d96 <_ZN8particle14BleLocalDevice17addCharacteristicERKNS_17BleCharacteristicE+0x11a>
   b9da6:	6818      	ldr	r0, [r3, #0]
   b9da8:	6028      	str	r0, [r5, #0]
    return value_;
   b9daa:	7923      	ldrb	r3, [r4, #4]
    charInit.properties = charImpl->properties().value();
   b9dac:	f88d 3058 	strb.w	r3, [sp, #88]	; 0x58
    charInit.service_handle = service->impl()->startHandle();
   b9db0:	f8d9 3000 	ldr.w	r3, [r9]
   b9db4:	8a9b      	ldrh	r3, [r3, #20]
   b9db6:	f8ad 3074 	strh.w	r3, [sp, #116]	; 0x74
    charInit.description = charImpl->description().c_str();
   b9dba:	6be3      	ldr	r3, [r4, #60]	; 0x3c
   b9dbc:	9317      	str	r3, [sp, #92]	; 0x5c
    charInit.callback = charImpl->onBleCharEvents;
   b9dbe:	4b31      	ldr	r3, [pc, #196]	; (b9e84 <_ZN8particle14BleLocalDevice17addCharacteristicERKNS_17BleCharacteristicE+0x208>)
    if (hal_ble_gatt_server_add_characteristic(&charInit, &charImpl->attrHandles(), nullptr) != SYSTEM_ERROR_NONE) {
   b9dc0:	2200      	movs	r2, #0
   b9dc2:	1da1      	adds	r1, r4, #6
   b9dc4:	a815      	add	r0, sp, #84	; 0x54
    charInit.context = charImpl;
   b9dc6:	e9cd 341e 	strd	r3, r4, [sp, #120]	; 0x78
    if (hal_ble_gatt_server_add_characteristic(&charInit, &charImpl->attrHandles(), nullptr) != SYSTEM_ERROR_NONE) {
   b9dca:	f7fe fc43 	bl	b8654 <hal_ble_gatt_server_add_characteristic>
   b9dce:	2800      	cmp	r0, #0
   b9dd0:	f47f af60 	bne.w	b9c94 <_ZN8particle14BleLocalDevice17addCharacteristicERKNS_17BleCharacteristicE+0x18>
        isLocal_ = local;
   b9dd4:	2301      	movs	r3, #1
   b9dd6:	7023      	strb	r3, [r4, #0]
        return characteristics_;
   b9dd8:	6834      	ldr	r4, [r6, #0]
    if(!impl()->characteristics().append(characteristic)) {
   b9dda:	4639      	mov	r1, r7
        return characteristics_;
   b9ddc:	340c      	adds	r4, #12
    if(!impl()->characteristics().append(characteristic)) {
   b9dde:	a80d      	add	r0, sp, #52	; 0x34
   b9de0:	f7ff fadf 	bl	b93a2 <_ZN8particle17BleCharacteristicC1ERKS0_>
   b9de4:	4620      	mov	r0, r4
   b9de6:	a90d      	add	r1, sp, #52	; 0x34
   b9de8:	f7ff ff1b 	bl	b9c22 <_ZN5spark6VectorIN8particle17BleCharacteristicENS_16DefaultAllocatorEE6appendES2_>
   b9dec:	4604      	mov	r4, r0
      ~__shared_ptr() = default;
   b9dee:	a80e      	add	r0, sp, #56	; 0x38
   b9df0:	f7ff faf9 	bl	b93e6 <_ZNSt14__shared_countILN9__gnu_cxx12_Lock_policyE0EED1Ev>
   b9df4:	2c00      	cmp	r4, #0
   b9df6:	f47f af4d 	bne.w	b9c94 <_ZN8particle14BleLocalDevice17addCharacteristicERKNS_17BleCharacteristicE+0x18>
        LOG(ERROR, "Failed to append local characteristic.");
   b9dfa:	2320      	movs	r3, #32
   b9dfc:	e9cd 340d 	strd	r3, r4, [sp, #52]	; 0x34
   b9e00:	4b21      	ldr	r3, [pc, #132]	; (b9e88 <_ZN8particle14BleLocalDevice17addCharacteristicERKNS_17BleCharacteristicE+0x20c>)
   b9e02:	9300      	str	r3, [sp, #0]
   b9e04:	aa0d      	add	r2, sp, #52	; 0x34
   b9e06:	4623      	mov	r3, r4
   b9e08:	e777      	b.n	b9cfa <_ZN8particle14BleLocalDevice17addCharacteristicERKNS_17BleCharacteristicE+0x7e>
            return characteristic;
   b9e0a:	4639      	mov	r1, r7
   b9e0c:	4640      	mov	r0, r8
   b9e0e:	f7ff fac8 	bl	b93a2 <_ZN8particle17BleCharacteristicC1ERKS0_>
   b9e12:	a80c      	add	r0, sp, #48	; 0x30
   b9e14:	f7ff fae7 	bl	b93e6 <_ZNSt14__shared_countILN9__gnu_cxx12_Lock_policyE0EED1Ev>
   b9e18:	e740      	b.n	b9c9c <_ZN8particle14BleLocalDevice17addCharacteristicERKNS_17BleCharacteristicE+0x20>
        BleService svc(charImpl->svcUUID());
   b9e1a:	a80b      	add	r0, sp, #44	; 0x2c
   b9e1c:	f7ff f94a 	bl	b90b4 <_ZN8particle10BleServiceC1ERKNS_7BleUuidE>
        hal_ble_uuid_t halUuid = charImpl->svcUUID().halUUID();
   b9e20:	4651      	mov	r1, sl
   b9e22:	a815      	add	r0, sp, #84	; 0x54
   b9e24:	f7fe fffa 	bl	b8e1c <_ZN8particle7BleUuid7halUUIDEv>
        if (hal_ble_gatt_server_add_service(BLE_SERVICE_TYPE_PRIMARY, &halUuid, &svc.impl()->startHandle(), nullptr) != SYSTEM_ERROR_NONE) {
   b9e28:	9a0b      	ldr	r2, [sp, #44]	; 0x2c
   b9e2a:	2300      	movs	r3, #0
   b9e2c:	3214      	adds	r2, #20
   b9e2e:	a915      	add	r1, sp, #84	; 0x54
   b9e30:	2001      	movs	r0, #1
   b9e32:	f7fe fbe7 	bl	b8604 <hal_ble_gatt_server_add_service>
   b9e36:	2800      	cmp	r0, #0
   b9e38:	d1e7      	bne.n	b9e0a <_ZN8particle14BleLocalDevice17addCharacteristicERKNS_17BleCharacteristicE+0x18e>
        return services_;
   b9e3a:	6835      	ldr	r5, [r6, #0]
   b9e3c:	a90b      	add	r1, sp, #44	; 0x2c
   b9e3e:	a80d      	add	r0, sp, #52	; 0x34
   b9e40:	f7ff fabd 	bl	b93be <_ZNSt12__shared_ptrIN8particle14BleServiceImplELN9__gnu_cxx12_Lock_policyE0EEC1ERKS4_>
        if(!impl()->services().append(svc)) {
   b9e44:	4628      	mov	r0, r5
   b9e46:	a90d      	add	r1, sp, #52	; 0x34
   b9e48:	f7ff fe7c 	bl	b9b44 <_ZN5spark6VectorIN8particle10BleServiceENS_16DefaultAllocatorEE6appendES2_>
   b9e4c:	4605      	mov	r5, r0
   b9e4e:	a80e      	add	r0, sp, #56	; 0x38
   b9e50:	f7ff fac9 	bl	b93e6 <_ZNSt14__shared_countILN9__gnu_cxx12_Lock_policyE0EED1Ev>
   b9e54:	2d00      	cmp	r5, #0
   b9e56:	d0d8      	beq.n	b9e0a <_ZN8particle14BleLocalDevice17addCharacteristicERKNS_17BleCharacteristicE+0x18e>
   b9e58:	6832      	ldr	r2, [r6, #0]
    return data_[size_ - 1];
   b9e5a:	6853      	ldr	r3, [r2, #4]
   b9e5c:	6812      	ldr	r2, [r2, #0]
   b9e5e:	f103 5300 	add.w	r3, r3, #536870912	; 0x20000000
   b9e62:	3b01      	subs	r3, #1
   b9e64:	a80c      	add	r0, sp, #48	; 0x30
   b9e66:	eb02 09c3 	add.w	r9, r2, r3, lsl #3
   b9e6a:	f7ff fabc 	bl	b93e6 <_ZNSt14__shared_countILN9__gnu_cxx12_Lock_policyE0EED1Ev>
   b9e6e:	e76b      	b.n	b9d48 <_ZN8particle14BleLocalDevice17addCharacteristicERKNS_17BleCharacteristicE+0xcc>
   b9e70:	000be92e 	.word	0x000be92e
   b9e74:	000be84b 	.word	0x000be84b
   b9e78:	000be9f2 	.word	0x000be9f2
   b9e7c:	2003e6bc 	.word	0x2003e6bc
   b9e80:	002c0003 	.word	0x002c0003
   b9e84:	000b924d 	.word	0x000b924d
   b9e88:	000be959 	.word	0x000be959

000b9e8c <_GLOBAL__sub_I__ZN8particle3ble13WiringBleLock6mutex_E>:
    RecursiveMutex() : handle_(nullptr)
   b9e8c:	4802      	ldr	r0, [pc, #8]	; (b9e98 <_GLOBAL__sub_I__ZN8particle3ble13WiringBleLock6mutex_E+0xc>)
   b9e8e:	2300      	movs	r3, #0
   b9e90:	6003      	str	r3, [r0, #0]
        os_mutex_recursive_create(&handle_);
   b9e92:	f7fe bc07 	b.w	b86a4 <os_mutex_recursive_create>
   b9e96:	bf00      	nop
   b9e98:	2003e6c0 	.word	0x2003e6c0

000b9e9c <_ZN5spark13EthernetClass9listeningEv>:
    uint16_t getListenTimeout(void) {
        return network_get_listen_timeout(*this, 0, NULL);
    }

    bool listening(void) {
        return network_listening(*this, 0, NULL);
   b9e9c:	2200      	movs	r2, #0
   b9e9e:	6840      	ldr	r0, [r0, #4]
   b9ea0:	4611      	mov	r1, r2
   b9ea2:	f7fe bdc3 	b.w	b8a2c <network_listening>

000b9ea6 <_ZN5spark13EthernetClass16getListenTimeoutEv>:
        return network_get_listen_timeout(*this, 0, NULL);
   b9ea6:	2200      	movs	r2, #0
   b9ea8:	6840      	ldr	r0, [r0, #4]
   b9eaa:	4611      	mov	r1, r2
   b9eac:	f7fe bdde 	b.w	b8a6c <network_get_listen_timeout>

000b9eb0 <_ZN5spark13EthernetClass16setListenTimeoutEt>:
        network_set_listen_timeout(*this, timeout, NULL);
   b9eb0:	6840      	ldr	r0, [r0, #4]
   b9eb2:	2200      	movs	r2, #0
   b9eb4:	f7fe bdd2 	b.w	b8a5c <network_set_listen_timeout>

000b9eb8 <_ZN5spark13EthernetClass6listenEb>:
        network_listen(*this, begin ? 0 : 1, NULL);
   b9eb8:	6840      	ldr	r0, [r0, #4]
   b9eba:	2200      	movs	r2, #0
   b9ebc:	f081 0101 	eor.w	r1, r1, #1
   b9ec0:	f7fe bdac 	b.w	b8a1c <network_listen>

000b9ec4 <_ZN5spark13EthernetClass3offEv>:
        network_off(*this, 0, 0, NULL);
   b9ec4:	2300      	movs	r3, #0
   b9ec6:	6840      	ldr	r0, [r0, #4]
   b9ec8:	461a      	mov	r2, r3
   b9eca:	4619      	mov	r1, r3
   b9ecc:	f7fe bd9e 	b.w	b8a0c <network_off>

000b9ed0 <_ZN5spark13EthernetClass2onEv>:
        network_on(*this, 0, 0, NULL);
   b9ed0:	2300      	movs	r3, #0
   b9ed2:	6840      	ldr	r0, [r0, #4]
   b9ed4:	461a      	mov	r2, r3
   b9ed6:	4619      	mov	r1, r3
   b9ed8:	f7fe bd90 	b.w	b89fc <network_on>

000b9edc <_ZN5spark13EthernetClass5readyEv>:
    }

    bool ready() {
        return network_ready(*this, 0,  NULL);
   b9edc:	2200      	movs	r2, #0
   b9ede:	6840      	ldr	r0, [r0, #4]
   b9ee0:	4611      	mov	r1, r2
   b9ee2:	f7fe bd83 	b.w	b89ec <network_ready>

000b9ee6 <_ZN5spark13EthernetClass10connectingEv>:
        return network_connecting(*this, 0, NULL);
   b9ee6:	2200      	movs	r2, #0
   b9ee8:	6840      	ldr	r0, [r0, #4]
   b9eea:	4611      	mov	r1, r2
   b9eec:	f7fe bd6e 	b.w	b89cc <network_connecting>

000b9ef0 <_ZN5spark13EthernetClass10disconnectEv>:
        network_disconnect(*this, NETWORK_DISCONNECT_REASON_USER, NULL);
   b9ef0:	6840      	ldr	r0, [r0, #4]
   b9ef2:	2200      	movs	r2, #0
   b9ef4:	2102      	movs	r1, #2
   b9ef6:	f7fe bd71 	b.w	b89dc <network_disconnect>

000b9efa <_ZN5spark13EthernetClass7connectEj>:
        network_connect(*this, flags, 0, NULL);
   b9efa:	2300      	movs	r3, #0
   b9efc:	6840      	ldr	r0, [r0, #4]
   b9efe:	461a      	mov	r2, r3
   b9f00:	f7fe bd5c 	b.w	b89bc <network_connect>

000b9f04 <_GLOBAL__sub_I__ZN5spark8EthernetE>:
    static NetworkClass& from(network_interface_t nif);

    virtual IPAddress resolve(const char* name);

    explicit NetworkClass(network_interface_t iface)
            : iface_(iface) {
   b9f04:	4b02      	ldr	r3, [pc, #8]	; (b9f10 <_GLOBAL__sub_I__ZN5spark8EthernetE+0xc>)
   b9f06:	2203      	movs	r2, #3
   b9f08:	605a      	str	r2, [r3, #4]
            NetworkClass(NETWORK_INTERFACE_ETHERNET) {
   b9f0a:	4a02      	ldr	r2, [pc, #8]	; (b9f14 <_GLOBAL__sub_I__ZN5spark8EthernetE+0x10>)
   b9f0c:	601a      	str	r2, [r3, #0]

namespace spark {

EthernetClass Ethernet;

} // spark
   b9f0e:	4770      	bx	lr
   b9f10:	2003e6c8 	.word	0x2003e6c8
   b9f14:	000bea1c 	.word	0x000bea1c

000b9f18 <_ZN7TwoWireD1Ev>:
private:
  hal_i2c_interface_t _i2c;

public:
  TwoWire(hal_i2c_interface_t i2c, const hal_i2c_config_t& config);
  virtual ~TwoWire() {};
   b9f18:	4770      	bx	lr

000b9f1a <_ZN7TwoWire5writeEPKhj>:

// must be called in:
// slave tx event callback
// or after beginTransmission(address)
size_t TwoWire::write(const uint8_t *data, size_t quantity)
{
   b9f1a:	b5f8      	push	{r3, r4, r5, r6, r7, lr}
   b9f1c:	4606      	mov	r6, r0
   b9f1e:	4615      	mov	r5, r2
   b9f20:	460c      	mov	r4, r1
   b9f22:	188f      	adds	r7, r1, r2
  // in master/slave transmitter mode
  for(size_t i = 0; i < quantity; ++i)
   b9f24:	42bc      	cmp	r4, r7
   b9f26:	d006      	beq.n	b9f36 <_ZN7TwoWire5writeEPKhj+0x1c>
  {
    write(data[i]);
   b9f28:	6833      	ldr	r3, [r6, #0]
   b9f2a:	f814 1b01 	ldrb.w	r1, [r4], #1
   b9f2e:	689b      	ldr	r3, [r3, #8]
   b9f30:	4630      	mov	r0, r6
   b9f32:	4798      	blx	r3
  for(size_t i = 0; i < quantity; ++i)
   b9f34:	e7f6      	b.n	b9f24 <_ZN7TwoWire5writeEPKhj+0xa>
  }

  return quantity;
}
   b9f36:	4628      	mov	r0, r5
   b9f38:	bdf8      	pop	{r3, r4, r5, r6, r7, pc}

000b9f3a <_ZN7TwoWire5writeEh>:
  return hal_i2c_write(_i2c, data, NULL);
   b9f3a:	7c00      	ldrb	r0, [r0, #16]
   b9f3c:	2200      	movs	r2, #0
   b9f3e:	f7fe bbf9 	b.w	b8734 <hal_i2c_write>

000b9f42 <_ZN7TwoWire9availableEv>:
// must be called in:
// slave rx event callback
// or after requestFrom(address, numBytes)
int TwoWire::available(void)
{
  return hal_i2c_available(_i2c, NULL);
   b9f42:	7c00      	ldrb	r0, [r0, #16]
   b9f44:	2100      	movs	r1, #0
   b9f46:	f7fe bbfd 	b.w	b8744 <hal_i2c_available>

000b9f4a <_ZN7TwoWire4readEv>:
// must be called in:
// slave rx event callback
// or after requestFrom(address, numBytes)
int TwoWire::read(void)
{
  return hal_i2c_read(_i2c, NULL);
   b9f4a:	7c00      	ldrb	r0, [r0, #16]
   b9f4c:	2100      	movs	r1, #0
   b9f4e:	f7fe bc01 	b.w	b8754 <hal_i2c_read>

000b9f52 <_ZN7TwoWire4peekEv>:
// must be called in:
// slave rx event callback
// or after requestFrom(address, numBytes)
int TwoWire::peek(void)
{
  return hal_i2c_peek(_i2c, NULL);
   b9f52:	7c00      	ldrb	r0, [r0, #16]
   b9f54:	2100      	movs	r1, #0
   b9f56:	f7fe bc05 	b.w	b8764 <hal_i2c_peek>

000b9f5a <_ZN7TwoWire5flushEv>:
}

void TwoWire::flush(void)
{
  hal_i2c_flush(_i2c, NULL);
   b9f5a:	7c00      	ldrb	r0, [r0, #16]
   b9f5c:	2100      	movs	r1, #0
   b9f5e:	f7fe bc09 	b.w	b8774 <hal_i2c_flush>

000b9f62 <_ZN7TwoWireD0Ev>:
   b9f62:	b510      	push	{r4, lr}
   b9f64:	2114      	movs	r1, #20
   b9f66:	4604      	mov	r4, r0
   b9f68:	f7fa f89b 	bl	b40a2 <_ZdlPvj>
   b9f6c:	4620      	mov	r0, r4
   b9f6e:	bd10      	pop	{r4, pc}

000b9f70 <_ZN7TwoWireC1E19hal_i2c_interface_tRK16hal_i2c_config_t>:
TwoWire::TwoWire(hal_i2c_interface_t i2c, const hal_i2c_config_t& conf)
   b9f70:	b510      	push	{r4, lr}
    virtual int available() = 0;
    virtual int read() = 0;
    virtual int peek() = 0;
    virtual void flush() = 0;

    Stream() {_timeout=1000;}
   b9f72:	f44f 737a 	mov.w	r3, #1000	; 0x3e8
   b9f76:	4604      	mov	r4, r0
   b9f78:	4608      	mov	r0, r1
   b9f7a:	2100      	movs	r1, #0
   b9f7c:	e9c4 1301 	strd	r1, r3, [r4, #4]
   b9f80:	4b03      	ldr	r3, [pc, #12]	; (b9f90 <_ZN7TwoWireC1E19hal_i2c_interface_tRK16hal_i2c_config_t+0x20>)
   b9f82:	6023      	str	r3, [r4, #0]
  _i2c = i2c;
   b9f84:	7420      	strb	r0, [r4, #16]
  hal_i2c_init(_i2c, &conf);
   b9f86:	4611      	mov	r1, r2
   b9f88:	f7fe fbfc 	bl	b8784 <hal_i2c_init>
}
   b9f8c:	4620      	mov	r0, r4
   b9f8e:	bd10      	pop	{r4, pc}
   b9f90:	000bea58 	.word	0x000bea58

000b9f94 <_ZN7TwoWire5beginEv>:
	hal_i2c_begin(_i2c, I2C_MODE_MASTER, 0x00, NULL);
   b9f94:	2300      	movs	r3, #0
   b9f96:	7c00      	ldrb	r0, [r0, #16]
   b9f98:	461a      	mov	r2, r3
   b9f9a:	4619      	mov	r1, r3
   b9f9c:	f7fe bbb2 	b.w	b8704 <hal_i2c_begin>

000b9fa0 <_ZN7TwoWire11requestFromERK16WireTransmission>:
size_t TwoWire::requestFrom(const WireTransmission& transfer) {
   b9fa0:	b57f      	push	{r0, r1, r2, r3, r4, r5, r6, lr}
    hal_i2c_transmission_config_t conf = {
   b9fa2:	2200      	movs	r2, #0
   b9fa4:	2314      	movs	r3, #20
   b9fa6:	e9cd 2201 	strd	r2, r2, [sp, #4]
   b9faa:	f8ad 3004 	strh.w	r3, [sp, #4]
    };
   b9fae:	780b      	ldrb	r3, [r1, #0]
   b9fb0:	f88d 3008 	strb.w	r3, [sp, #8]
   b9fb4:	684b      	ldr	r3, [r1, #4]
   b9fb6:	9303      	str	r3, [sp, #12]
   b9fb8:	68cb      	ldr	r3, [r1, #12]
   b9fba:	9304      	str	r3, [sp, #16]
  return hal_i2c_request_ex(_i2c, &conf, nullptr);
   b9fbc:	7c00      	ldrb	r0, [r0, #16]
      .flags = (uint32_t)(stop_ ? HAL_I2C_TRANSMISSION_FLAG_STOP : 0)
   b9fbe:	7a0b      	ldrb	r3, [r1, #8]
   b9fc0:	9305      	str	r3, [sp, #20]
   b9fc2:	a901      	add	r1, sp, #4
   b9fc4:	f7fe fbe6 	bl	b8794 <hal_i2c_request_ex>
}
   b9fc8:	b007      	add	sp, #28
   b9fca:	f85d fb04 	ldr.w	pc, [sp], #4

000b9fce <_ZN7TwoWire11requestFromEhjh>:
{
   b9fce:	b51f      	push	{r0, r1, r2, r3, r4, lr}
  return requestFrom(WireTransmission(address).quantity(quantity).stop(sendStop));
   b9fd0:	3b00      	subs	r3, #0
        timeout_{HAL_I2C_DEFAULT_TIMEOUT_MS} {
   b9fd2:	f88d 1000 	strb.w	r1, [sp]
   b9fd6:	f04f 0164 	mov.w	r1, #100	; 0x64
   b9fda:	9103      	str	r1, [sp, #12]
   b9fdc:	bf18      	it	ne
   b9fde:	2301      	movne	r3, #1
   b9fe0:	4669      	mov	r1, sp
    size_ = size;
   b9fe2:	9201      	str	r2, [sp, #4]
   b9fe4:	f88d 3008 	strb.w	r3, [sp, #8]
   b9fe8:	f7ff ffda 	bl	b9fa0 <_ZN7TwoWire11requestFromERK16WireTransmission>
}
   b9fec:	b005      	add	sp, #20
   b9fee:	f85d fb04 	ldr.w	pc, [sp], #4

000b9ff2 <_ZN7TwoWire11requestFromEhj>:
  return requestFrom(address, quantity, (uint8_t)true);
   b9ff2:	2301      	movs	r3, #1
   b9ff4:	f7ff bfeb 	b.w	b9fce <_ZN7TwoWire11requestFromEhjh>

000b9ff8 <_ZN7TwoWire17beginTransmissionEh>:
	hal_i2c_begin_transmission(_i2c, address, NULL);
   b9ff8:	7c00      	ldrb	r0, [r0, #16]
   b9ffa:	2200      	movs	r2, #0
   b9ffc:	f7fe bb8a 	b.w	b8714 <hal_i2c_begin_transmission>

000ba000 <_ZN7TwoWire17beginTransmissionEi>:
  beginTransmission((uint8_t)address);
   ba000:	b2c9      	uxtb	r1, r1
   ba002:	f7ff bff9 	b.w	b9ff8 <_ZN7TwoWire17beginTransmissionEh>

000ba006 <_ZN7TwoWire15endTransmissionEh>:
	return hal_i2c_end_transmission(_i2c, sendStop, NULL);
   ba006:	7c00      	ldrb	r0, [r0, #16]
   ba008:	2200      	movs	r2, #0
   ba00a:	f7fe bb8b 	b.w	b8724 <hal_i2c_end_transmission>

000ba00e <_ZN7TwoWire15endTransmissionEv>:
  return endTransmission(true);
   ba00e:	2101      	movs	r1, #1
   ba010:	f7ff bff9 	b.w	ba006 <_ZN7TwoWire15endTransmissionEh>

000ba014 <_ZN9IPAddressD1Ev>:
    IPAddress(uint32_t address);
    // 4 bytes defining the IP address in network order
    IPAddress(const uint8_t* address);
    IPAddress(const HAL_IPAddress& address);

    virtual ~IPAddress() {}
   ba014:	4770      	bx	lr

000ba016 <_ZN9IPAddressD0Ev>:
   ba016:	b510      	push	{r4, lr}
   ba018:	2118      	movs	r1, #24
   ba01a:	4604      	mov	r4, r0
   ba01c:	f7fa f841 	bl	b40a2 <_ZdlPvj>
   ba020:	4620      	mov	r0, r4
   ba022:	bd10      	pop	{r4, pc}

000ba024 <_ZNK9IPAddress7printToER5Print>:
#endif // Wiring_IPv6
	return address.ipv4==that.address.ipv4;
}

size_t IPAddress::printTo(Print& p) const
{
   ba024:	b5f0      	push	{r4, r5, r6, r7, lr}
#if Wiring_IPv6
#if HAL_USE_INET_HAL_POSIX
	if (address.v==6) {
   ba026:	7d03      	ldrb	r3, [r0, #20]
   ba028:	2b06      	cmp	r3, #6
{
   ba02a:	b08d      	sub	sp, #52	; 0x34
   ba02c:	460e      	mov	r6, r1
		char buf[INET6_ADDRSTRLEN+1];
		buf[0] = 0;
		inet_inet_ntop(AF_INET6, address.ipv6, buf, sizeof(buf));
   ba02e:	f100 0704 	add.w	r7, r0, #4
   ba032:	f04f 0400 	mov.w	r4, #0
	if (address.v==6) {
   ba036:	d012      	beq.n	ba05e <_ZNK9IPAddress7printToER5Print+0x3a>
   ba038:	f100 0508 	add.w	r5, r0, #8
            val = n;
        }
#if __GNUC__ >= 9
#pragma GCC diagnostic pop
#endif // __GNUC__ >= 9
        return printNumber(val, base) + t;
   ba03c:	f815 1d01 	ldrb.w	r1, [r5, #-1]!
   ba040:	220a      	movs	r2, #10
   ba042:	4630      	mov	r0, r6
   ba044:	f000 f973 	bl	ba32e <_ZN5Print11printNumberEmh>
#else
#pragma message "HAL_USE_INET_HAL_POSIX is required for IPv6 support in IPAddress::printTo()"
#endif // HAL_USE_INET_HAL_POSIX
#endif // Wiring_IPv6
    size_t n = 0;
    for (int i = 0; i < 4; i++)
   ba048:	42af      	cmp	r7, r5
    {
        if (n)
            n += p.print('.');
        n += p.print((*this)[i], DEC);
   ba04a:	4404      	add	r4, r0
    for (int i = 0; i < 4; i++)
   ba04c:	d019      	beq.n	ba082 <_ZNK9IPAddress7printToER5Print+0x5e>
        if (n)
   ba04e:	2c00      	cmp	r4, #0
   ba050:	d0f4      	beq.n	ba03c <_ZNK9IPAddress7printToER5Print+0x18>
            n += p.print('.');
   ba052:	212e      	movs	r1, #46	; 0x2e
   ba054:	4630      	mov	r0, r6
   ba056:	f000 f951 	bl	ba2fc <_ZN5Print5printEc>
   ba05a:	4404      	add	r4, r0
   ba05c:	e7ee      	b.n	ba03c <_ZNK9IPAddress7printToER5Print+0x18>
		inet_inet_ntop(AF_INET6, address.ipv6, buf, sizeof(buf));
   ba05e:	232f      	movs	r3, #47	; 0x2f
   ba060:	466a      	mov	r2, sp
   ba062:	4639      	mov	r1, r7
   ba064:	200a      	movs	r0, #10
		buf[0] = 0;
   ba066:	f88d 4000 	strb.w	r4, [sp]
		inet_inet_ntop(AF_INET6, address.ipv6, buf, sizeof(buf));
   ba06a:	f7fe fba3 	bl	b87b4 <inet_inet_ntop>
      return write((const uint8_t *)str, strlen(str));
   ba06e:	4668      	mov	r0, sp
   ba070:	f002 f8ea 	bl	bc248 <strlen>
   ba074:	6833      	ldr	r3, [r6, #0]
   ba076:	4602      	mov	r2, r0
   ba078:	68db      	ldr	r3, [r3, #12]
   ba07a:	4669      	mov	r1, sp
   ba07c:	4630      	mov	r0, r6
   ba07e:	4798      	blx	r3
   ba080:	4604      	mov	r4, r0
    }
    return n;
}
   ba082:	4620      	mov	r0, r4
   ba084:	b00d      	add	sp, #52	; 0x34
   ba086:	bdf0      	pop	{r4, r5, r6, r7, pc}

000ba088 <_ZN9IPAddressC1Ev>:
IPAddress::IPAddress()
   ba088:	b510      	push	{r4, lr}
   ba08a:	4b05      	ldr	r3, [pc, #20]	; (ba0a0 <_ZN9IPAddressC1Ev+0x18>)
   ba08c:	4604      	mov	r4, r0
        return address;
    }

    virtual size_t printTo(Print& p) const;

    void clear() { memset(&address, 0, sizeof (address)); }
   ba08e:	2211      	movs	r2, #17
   ba090:	f840 3b04 	str.w	r3, [r0], #4
   ba094:	2100      	movs	r1, #0
   ba096:	f002 f88f 	bl	bc1b8 <memset>
}
   ba09a:	4620      	mov	r0, r4
   ba09c:	bd10      	pop	{r4, pc}
   ba09e:	bf00      	nop
   ba0a0:	000bea80 	.word	0x000bea80

000ba0a4 <_ZN9IPAddressC1ERK16_HAL_IPAddress_t>:
IPAddress::IPAddress(const HAL_IPAddress& address)
   ba0a4:	4603      	mov	r3, r0
   ba0a6:	4a07      	ldr	r2, [pc, #28]	; (ba0c4 <_ZN9IPAddressC1ERK16_HAL_IPAddress_t+0x20>)
   ba0a8:	b510      	push	{r4, lr}
   ba0aa:	f843 2b04 	str.w	r2, [r3], #4
    memcpy(&this->address, &address, sizeof(address));
   ba0ae:	f101 0210 	add.w	r2, r1, #16
   ba0b2:	f851 4b04 	ldr.w	r4, [r1], #4
   ba0b6:	f843 4b04 	str.w	r4, [r3], #4
   ba0ba:	4291      	cmp	r1, r2
   ba0bc:	d1f9      	bne.n	ba0b2 <_ZN9IPAddressC1ERK16_HAL_IPAddress_t+0xe>
   ba0be:	780a      	ldrb	r2, [r1, #0]
   ba0c0:	701a      	strb	r2, [r3, #0]
}
   ba0c2:	bd10      	pop	{r4, pc}
   ba0c4:	000bea80 	.word	0x000bea80

000ba0c8 <_ZNK9IPAddresscvbEv>:

    String toString() const { return String(*this); }

    uint8_t version() const {
#if HAL_IPv6
    		return address.v;
   ba0c8:	7d03      	ldrb	r3, [r0, #20]
    if (version() == 4) {
   ba0ca:	2b04      	cmp	r3, #4
   ba0cc:	d104      	bne.n	ba0d8 <_ZNK9IPAddresscvbEv+0x10>
        return address.ipv4 != 0;
   ba0ce:	6840      	ldr	r0, [r0, #4]
        return address.ipv6[0] != 0 || address.ipv6[1] != 0 || address.ipv6[2] != 0 || address.ipv6[3] != 0;
   ba0d0:	3800      	subs	r0, #0
   ba0d2:	bf18      	it	ne
   ba0d4:	2001      	movne	r0, #1
   ba0d6:	4770      	bx	lr
    } else if (version() == 6) {
   ba0d8:	2b06      	cmp	r3, #6
   ba0da:	d107      	bne.n	ba0ec <_ZNK9IPAddresscvbEv+0x24>
        return address.ipv6[0] != 0 || address.ipv6[1] != 0 || address.ipv6[2] != 0 || address.ipv6[3] != 0;
   ba0dc:	6843      	ldr	r3, [r0, #4]
   ba0de:	b93b      	cbnz	r3, ba0f0 <_ZNK9IPAddresscvbEv+0x28>
   ba0e0:	6883      	ldr	r3, [r0, #8]
   ba0e2:	b92b      	cbnz	r3, ba0f0 <_ZNK9IPAddresscvbEv+0x28>
   ba0e4:	68c3      	ldr	r3, [r0, #12]
   ba0e6:	b91b      	cbnz	r3, ba0f0 <_ZNK9IPAddresscvbEv+0x28>
   ba0e8:	6900      	ldr	r0, [r0, #16]
   ba0ea:	e7f1      	b.n	ba0d0 <_ZNK9IPAddresscvbEv+0x8>
        return false;
   ba0ec:	2000      	movs	r0, #0
   ba0ee:	4770      	bx	lr
        return address.ipv6[0] != 0 || address.ipv6[1] != 0 || address.ipv6[2] != 0 || address.ipv6[3] != 0;
   ba0f0:	2001      	movs	r0, #1
}
   ba0f2:	4770      	bx	lr

000ba0f4 <_ZN9IPAddress8set_ipv4Ehhhh>:
{
   ba0f4:	b510      	push	{r4, lr}
    address.ipv4 = b0<<24 | b1 << 16 | b2 << 8 | b3;
   ba0f6:	f89d 4008 	ldrb.w	r4, [sp, #8]
   ba0fa:	ea44 2303 	orr.w	r3, r4, r3, lsl #8
   ba0fe:	ea43 4202 	orr.w	r2, r3, r2, lsl #16
   ba102:	ea42 6101 	orr.w	r1, r2, r1, lsl #24
        address.v = version;
   ba106:	2304      	movs	r3, #4
   ba108:	6041      	str	r1, [r0, #4]
   ba10a:	7503      	strb	r3, [r0, #20]
}
   ba10c:	bd10      	pop	{r4, pc}
	...

000ba110 <_ZN9IPAddressC1EPKh>:
IPAddress::IPAddress(const uint8_t* addr)
   ba110:	b507      	push	{r0, r1, r2, lr}
   ba112:	4b06      	ldr	r3, [pc, #24]	; (ba12c <_ZN9IPAddressC1EPKh+0x1c>)
   ba114:	6003      	str	r3, [r0, #0]
    set_ipv4(addr[0], addr[1], addr[2], addr[3]);
   ba116:	78cb      	ldrb	r3, [r1, #3]
   ba118:	9300      	str	r3, [sp, #0]
   ba11a:	788b      	ldrb	r3, [r1, #2]
   ba11c:	784a      	ldrb	r2, [r1, #1]
   ba11e:	7809      	ldrb	r1, [r1, #0]
   ba120:	f7ff ffe8 	bl	ba0f4 <_ZN9IPAddress8set_ipv4Ehhhh>
}
   ba124:	b003      	add	sp, #12
   ba126:	f85d fb04 	ldr.w	pc, [sp], #4
   ba12a:	bf00      	nop
   ba12c:	000bea80 	.word	0x000bea80

000ba130 <_GLOBAL__sub_I__ZN5spark3LogE>:
    // This handler doesn't support direct logging
}

// spark::Logger
inline spark::Logger::Logger(const char *name) :
        name_(name) {
   ba130:	4b01      	ldr	r3, [pc, #4]	; (ba138 <_GLOBAL__sub_I__ZN5spark3LogE+0x8>)
   ba132:	4a02      	ldr	r2, [pc, #8]	; (ba13c <_GLOBAL__sub_I__ZN5spark3LogE+0xc>)
   ba134:	601a      	str	r2, [r3, #0]
#if Wiring_LogConfig

// spark::
void spark::logProcessControlRequest(ctrl_request* req) {
    JSONRequestHandler::process(req);
}
   ba136:	4770      	bx	lr
   ba138:	2003e6d0 	.word	0x2003e6d0
   ba13c:	000bea8c 	.word	0x000bea8c

000ba140 <_ZN5spark12NetworkClass7connectEj>:
        return Network;
    }
}

void NetworkClass::connect(unsigned flags) {
    network_connect(*this, flags, 0, nullptr);
   ba140:	2300      	movs	r3, #0
   ba142:	6840      	ldr	r0, [r0, #4]
   ba144:	461a      	mov	r2, r3
   ba146:	f7fe bc39 	b.w	b89bc <network_connect>

000ba14a <_ZN5spark12NetworkClass10disconnectEv>:
}

void NetworkClass::disconnect() {
    network_disconnect(*this, NETWORK_DISCONNECT_REASON_USER, nullptr);
   ba14a:	6840      	ldr	r0, [r0, #4]
   ba14c:	2200      	movs	r2, #0
   ba14e:	2102      	movs	r1, #2
   ba150:	f7fe bc44 	b.w	b89dc <network_disconnect>

000ba154 <_ZN5spark12NetworkClass10connectingEv>:
}

bool NetworkClass::connecting() {
    return network_connecting(*this, 0, nullptr);
   ba154:	2200      	movs	r2, #0
   ba156:	6840      	ldr	r0, [r0, #4]
   ba158:	4611      	mov	r1, r2
   ba15a:	f7fe bc37 	b.w	b89cc <network_connecting>

000ba15e <_ZN5spark12NetworkClass5readyEv>:
}

bool NetworkClass::ready() {
    return network_ready(*this, 0, nullptr);
   ba15e:	2200      	movs	r2, #0
   ba160:	6840      	ldr	r0, [r0, #4]
   ba162:	4611      	mov	r1, r2
   ba164:	f7fe bc42 	b.w	b89ec <network_ready>

000ba168 <_ZN5spark12NetworkClass2onEv>:
}

void NetworkClass::on() {
    network_on(*this, 0, 0, nullptr);
   ba168:	2300      	movs	r3, #0
   ba16a:	6840      	ldr	r0, [r0, #4]
   ba16c:	461a      	mov	r2, r3
   ba16e:	4619      	mov	r1, r3
   ba170:	f7fe bc44 	b.w	b89fc <network_on>

000ba174 <_ZN5spark12NetworkClass3offEv>:
}

void NetworkClass::off() {
    network_off(*this, 0, 0, nullptr);
   ba174:	2300      	movs	r3, #0
   ba176:	6840      	ldr	r0, [r0, #4]
   ba178:	461a      	mov	r2, r3
   ba17a:	4619      	mov	r1, r3
   ba17c:	f7fe bc46 	b.w	b8a0c <network_off>

000ba180 <_ZN5spark12NetworkClass4isOnEv>:
}

bool NetworkClass::isOn() {
    return network_is_on(*this, nullptr);
   ba180:	6840      	ldr	r0, [r0, #4]
   ba182:	2100      	movs	r1, #0
   ba184:	f7fe bc7a 	b.w	b8a7c <network_is_on>

000ba188 <_ZN5spark12NetworkClass5isOffEv>:
}

bool NetworkClass::isOff() {
    return network_is_off(*this, nullptr);
   ba188:	6840      	ldr	r0, [r0, #4]
   ba18a:	2100      	movs	r1, #0
   ba18c:	f7fe bc7e 	b.w	b8a8c <network_is_off>

000ba190 <_ZN5spark12NetworkClass6listenEb>:
}

void NetworkClass::listen(bool begin) {
    network_listen(*this, begin ? 0 : 1, nullptr);
   ba190:	6840      	ldr	r0, [r0, #4]
   ba192:	2200      	movs	r2, #0
   ba194:	f081 0101 	eor.w	r1, r1, #1
   ba198:	f7fe bc40 	b.w	b8a1c <network_listen>

000ba19c <_ZN5spark12NetworkClass16setListenTimeoutEt>:
}

void NetworkClass::setListenTimeout(uint16_t timeout) {
    network_set_listen_timeout(*this, timeout, nullptr);
   ba19c:	6840      	ldr	r0, [r0, #4]
   ba19e:	2200      	movs	r2, #0
   ba1a0:	f7fe bc5c 	b.w	b8a5c <network_set_listen_timeout>

000ba1a4 <_ZN5spark12NetworkClass16getListenTimeoutEv>:
}

uint16_t NetworkClass::getListenTimeout() {
    return network_get_listen_timeout(*this, 0, nullptr);
   ba1a4:	2200      	movs	r2, #0
   ba1a6:	6840      	ldr	r0, [r0, #4]
   ba1a8:	4611      	mov	r1, r2
   ba1aa:	f7fe bc5f 	b.w	b8a6c <network_get_listen_timeout>

000ba1ae <_ZN5spark12NetworkClass9listeningEv>:
}

bool NetworkClass::listening() {
    return network_listening(*this, 0, nullptr);
   ba1ae:	2200      	movs	r2, #0
   ba1b0:	6840      	ldr	r0, [r0, #4]
   ba1b2:	4611      	mov	r1, r2
   ba1b4:	f7fe bc3a 	b.w	b8a2c <network_listening>

000ba1b8 <_ZN5spark12NetworkClass7resolveEPKc>:
}

IPAddress NetworkClass::resolve(const char* name) {
   ba1b8:	e92d 43f0 	stmdb	sp!, {r4, r5, r6, r7, r8, r9, lr}
   ba1bc:	b095      	sub	sp, #84	; 0x54
   ba1be:	4614      	mov	r4, r2
   ba1c0:	460d      	mov	r5, r1
   ba1c2:	4607      	mov	r7, r0
    IPAddress addr;
   ba1c4:	f7ff ff60 	bl	ba088 <_ZN9IPAddressC1Ev>
#if HAL_USE_INET_HAL_POSIX
    struct addrinfo *ai = nullptr;
   ba1c8:	2100      	movs	r1, #0
    struct addrinfo hints = {};
   ba1ca:	221c      	movs	r2, #28
   ba1cc:	a80d      	add	r0, sp, #52	; 0x34
    struct addrinfo *ai = nullptr;
   ba1ce:	9100      	str	r1, [sp, #0]
    struct addrinfo hints = {};
   ba1d0:	f001 fff2 	bl	bc1b8 <memset>
    hints.ai_flags = AI_ADDRCONFIG;
   ba1d4:	2340      	movs	r3, #64	; 0x40
   ba1d6:	930c      	str	r3, [sp, #48]	; 0x30
    hints.ai_family = AF_UNSPEC;
    const int r = getaddrinfo(name, nullptr, &hints, &ai);
   ba1d8:	4620      	mov	r0, r4
   ba1da:	466b      	mov	r3, sp
   ba1dc:	aa0c      	add	r2, sp, #48	; 0x30
   ba1de:	2100      	movs	r1, #0
   ba1e0:	f7fe fb08 	bl	b87f4 <netdb_getaddrinfo>
    if (!r) {
   ba1e4:	4604      	mov	r4, r0
   ba1e6:	2800      	cmp	r0, #0
   ba1e8:	d14b      	bne.n	ba282 <_ZN5spark12NetworkClass7resolveEPKc+0xca>
        bool ok = false;
        // This is not really needed if AI_ADDRCONFIG is properly supported
        bool ipv4 = network_ready(*this, NETWORK_READY_TYPE_IPV4, nullptr);
   ba1ea:	4602      	mov	r2, r0
   ba1ec:	2101      	movs	r1, #1
   ba1ee:	6868      	ldr	r0, [r5, #4]
   ba1f0:	f7fe fbfc 	bl	b89ec <network_ready>
        bool ipv6 = network_ready(*this, NETWORK_READY_TYPE_IPV6, nullptr);
   ba1f4:	2102      	movs	r1, #2
        bool ipv4 = network_ready(*this, NETWORK_READY_TYPE_IPV4, nullptr);
   ba1f6:	4680      	mov	r8, r0
        bool ipv6 = network_ready(*this, NETWORK_READY_TYPE_IPV6, nullptr);
   ba1f8:	4622      	mov	r2, r4
   ba1fa:	6868      	ldr	r0, [r5, #4]
   ba1fc:	f7fe fbf6 	bl	b89ec <network_ready>
        for (auto cur = ai; cur != nullptr && !ok; cur = cur->ai_next) {
   ba200:	9e00      	ldr	r6, [sp, #0]
        bool ipv6 = network_ready(*this, NETWORK_READY_TYPE_IPV6, nullptr);
   ba202:	4681      	mov	r9, r0
        bool ok = false;
   ba204:	4621      	mov	r1, r4
        for (auto cur = ai; cur != nullptr && !ok; cur = cur->ai_next) {
   ba206:	2e00      	cmp	r6, #0
   ba208:	d03b      	beq.n	ba282 <_ZN5spark12NetworkClass7resolveEPKc+0xca>
   ba20a:	2900      	cmp	r1, #0
   ba20c:	d139      	bne.n	ba282 <_ZN5spark12NetworkClass7resolveEPKc+0xca>
            // NOTE: using only the first entry that matches the current state of IPv4/IPv6 connectivity
            switch (cur->ai_family) {
   ba20e:	6873      	ldr	r3, [r6, #4]
   ba210:	2b02      	cmp	r3, #2
   ba212:	d003      	beq.n	ba21c <_ZN5spark12NetworkClass7resolveEPKc+0x64>
   ba214:	2b0a      	cmp	r3, #10
   ba216:	d011      	beq.n	ba23c <_ZN5spark12NetworkClass7resolveEPKc+0x84>
        for (auto cur = ai; cur != nullptr && !ok; cur = cur->ai_next) {
   ba218:	69f6      	ldr	r6, [r6, #28]
   ba21a:	e7f4      	b.n	ba206 <_ZN5spark12NetworkClass7resolveEPKc+0x4e>
                case AF_INET: {
                    if (!ipv4) {
   ba21c:	f1b8 0f00 	cmp.w	r8, #0
   ba220:	d0fa      	beq.n	ba218 <_ZN5spark12NetworkClass7resolveEPKc+0x60>
                        continue;
                    }
                    // NOTE: HAL_IPAddress is little-endian
                    auto in = (struct sockaddr_in*)cur->ai_addr;
                    addr = (const uint8_t*)(&in->sin_addr.s_addr);
   ba222:	6971      	ldr	r1, [r6, #20]
        return *this = IPAddress(address);
   ba224:	a806      	add	r0, sp, #24
   ba226:	3104      	adds	r1, #4
class IPAddress : public Printable {
   ba228:	ad07      	add	r5, sp, #28
        return *this = IPAddress(address);
   ba22a:	f7ff ff71 	bl	ba110 <_ZN9IPAddressC1EPKh>
class IPAddress : public Printable {
   ba22e:	cd0f      	ldmia	r5!, {r0, r1, r2, r3}
   ba230:	1d3c      	adds	r4, r7, #4
   ba232:	c40f      	stmia	r4!, {r0, r1, r2, r3}
   ba234:	682b      	ldr	r3, [r5, #0]
   ba236:	7023      	strb	r3, [r4, #0]
                    ok = true;
   ba238:	4641      	mov	r1, r8
        return *this = IPAddress(address);
   ba23a:	e7ed      	b.n	ba218 <_ZN5spark12NetworkClass7resolveEPKc+0x60>
                    break;
                }
                case AF_INET6: {
                    if (!ipv6) {
   ba23c:	f1b9 0f00 	cmp.w	r9, #0
   ba240:	d0ea      	beq.n	ba218 <_ZN5spark12NetworkClass7resolveEPKc+0x60>
                        continue;
                    }
                    auto in6 = (struct sockaddr_in6*)cur->ai_addr;
   ba242:	6974      	ldr	r4, [r6, #20]
                    HAL_IPAddress a = {};
   ba244:	2210      	movs	r2, #16
   ba246:	a801      	add	r0, sp, #4
   ba248:	f001 ffb6 	bl	bc1b8 <memset>
                    a.v = 6;
   ba24c:	2306      	movs	r3, #6
   ba24e:	f88d 3014 	strb.w	r3, [sp, #20]
                    memcpy(a.ipv6, in6->sin6_addr.s6_addr, sizeof(a.ipv6));
   ba252:	ad01      	add	r5, sp, #4
   ba254:	f104 0308 	add.w	r3, r4, #8
   ba258:	3418      	adds	r4, #24
   ba25a:	6818      	ldr	r0, [r3, #0]
   ba25c:	6859      	ldr	r1, [r3, #4]
   ba25e:	462a      	mov	r2, r5
   ba260:	c203      	stmia	r2!, {r0, r1}
   ba262:	3308      	adds	r3, #8
   ba264:	42a3      	cmp	r3, r4
   ba266:	4615      	mov	r5, r2
   ba268:	d1f7      	bne.n	ba25a <_ZN5spark12NetworkClass7resolveEPKc+0xa2>
                    addr = IPAddress(a);
   ba26a:	a901      	add	r1, sp, #4
   ba26c:	a806      	add	r0, sp, #24
class IPAddress : public Printable {
   ba26e:	ad07      	add	r5, sp, #28
   ba270:	f7ff ff18 	bl	ba0a4 <_ZN9IPAddressC1ERK16_HAL_IPAddress_t>
   ba274:	cd0f      	ldmia	r5!, {r0, r1, r2, r3}
   ba276:	1d3c      	adds	r4, r7, #4
   ba278:	c40f      	stmia	r4!, {r0, r1, r2, r3}
   ba27a:	682b      	ldr	r3, [r5, #0]
   ba27c:	7023      	strb	r3, [r4, #0]
                    ok = true;
   ba27e:	4649      	mov	r1, r9
   ba280:	e7ca      	b.n	ba218 <_ZN5spark12NetworkClass7resolveEPKc+0x60>
                    break;
                }
            }
        }
    }
    freeaddrinfo(ai);
   ba282:	9800      	ldr	r0, [sp, #0]
   ba284:	f7fe faae 	bl	b87e4 <netdb_freeaddrinfo>
    return Cellular.resolve(name);
#endif // Wiring_Cellular

#endif // HAL_USE_INET_HAL_POSIX
    return addr;
}
   ba288:	4638      	mov	r0, r7
   ba28a:	b015      	add	sp, #84	; 0x54
   ba28c:	e8bd 83f0 	ldmia.w	sp!, {r4, r5, r6, r7, r8, r9, pc}

000ba290 <_GLOBAL__sub_I__ZN5spark7NetworkE>:
   ba290:	4b02      	ldr	r3, [pc, #8]	; (ba29c <_GLOBAL__sub_I__ZN5spark7NetworkE+0xc>)
   ba292:	4a03      	ldr	r2, [pc, #12]	; (ba2a0 <_GLOBAL__sub_I__ZN5spark7NetworkE+0x10>)
   ba294:	601a      	str	r2, [r3, #0]
   ba296:	2200      	movs	r2, #0
   ba298:	605a      	str	r2, [r3, #4]

} // spark
   ba29a:	4770      	bx	lr
   ba29c:	2003e6d4 	.word	0x2003e6d4
   ba2a0:	000bea98 	.word	0x000bea98

000ba2a4 <_ZN5Print5writeEPKhj>:

// Public Methods //////////////////////////////////////////////////////////////

/* default implementation: may be overridden */
size_t Print::write(const uint8_t *buffer, size_t size)
{
   ba2a4:	b5f8      	push	{r3, r4, r5, r6, r7, lr}
   ba2a6:	4606      	mov	r6, r0
   ba2a8:	460d      	mov	r5, r1
  size_t n = 0;
   ba2aa:	188f      	adds	r7, r1, r2
   ba2ac:	2400      	movs	r4, #0
  while (size--) {
   ba2ae:	42bd      	cmp	r5, r7
   ba2b0:	d00c      	beq.n	ba2cc <_ZN5Print5writeEPKhj+0x28>
     int chunk = write(*buffer++);
   ba2b2:	6833      	ldr	r3, [r6, #0]
   ba2b4:	f815 1b01 	ldrb.w	r1, [r5], #1
   ba2b8:	689b      	ldr	r3, [r3, #8]
   ba2ba:	4630      	mov	r0, r6
   ba2bc:	4798      	blx	r3
     if (chunk>=0)
   ba2be:	1e03      	subs	r3, r0, #0
   ba2c0:	db01      	blt.n	ba2c6 <_ZN5Print5writeEPKhj+0x22>
         n += chunk;
   ba2c2:	441c      	add	r4, r3
  while (size--) {
   ba2c4:	e7f3      	b.n	ba2ae <_ZN5Print5writeEPKhj+0xa>
     int chunk = write(*buffer++);
   ba2c6:	2c00      	cmp	r4, #0
   ba2c8:	bf08      	it	eq
   ba2ca:	461c      	moveq	r4, r3
             n = chunk;
         break;
     }
  }
  return n;
}
   ba2cc:	4620      	mov	r0, r4
   ba2ce:	bdf8      	pop	{r3, r4, r5, r6, r7, pc}

000ba2d0 <_ZN5Print5writeEPKc>:
    size_t write(const char *str) {
   ba2d0:	b513      	push	{r0, r1, r4, lr}
   ba2d2:	4604      	mov	r4, r0
    }
   ba2d4:	4608      	mov	r0, r1
      if (str == NULL) return 0;
   ba2d6:	b159      	cbz	r1, ba2f0 <_ZN5Print5writeEPKc+0x20>
      return write((const uint8_t *)str, strlen(str));
   ba2d8:	9101      	str	r1, [sp, #4]
   ba2da:	f001 ffb5 	bl	bc248 <strlen>
   ba2de:	6823      	ldr	r3, [r4, #0]
   ba2e0:	9901      	ldr	r1, [sp, #4]
   ba2e2:	68db      	ldr	r3, [r3, #12]
   ba2e4:	4602      	mov	r2, r0
   ba2e6:	4620      	mov	r0, r4
    }
   ba2e8:	b002      	add	sp, #8
   ba2ea:	e8bd 4010 	ldmia.w	sp!, {r4, lr}
      return write((const uint8_t *)str, strlen(str));
   ba2ee:	4718      	bx	r3
    }
   ba2f0:	b002      	add	sp, #8
   ba2f2:	bd10      	pop	{r4, pc}

000ba2f4 <_ZN5Print5printEPKc>:

size_t Print::print(const char str[])
{
   ba2f4:	b508      	push	{r3, lr}
  return write(str);
   ba2f6:	f7ff ffeb 	bl	ba2d0 <_ZN5Print5writeEPKc>
}
   ba2fa:	bd08      	pop	{r3, pc}

000ba2fc <_ZN5Print5printEc>:

size_t Print::print(char c)
{
  return write(c);
   ba2fc:	6803      	ldr	r3, [r0, #0]
   ba2fe:	689b      	ldr	r3, [r3, #8]
   ba300:	4718      	bx	r3

000ba302 <_ZN5Print7printlnEv>:
{
  return print(reinterpret_cast<const char*>(str));
}

size_t Print::println(void)
{
   ba302:	b538      	push	{r3, r4, r5, lr}
  size_t n = print('\r');
   ba304:	210d      	movs	r1, #13
{
   ba306:	4605      	mov	r5, r0
  size_t n = print('\r');
   ba308:	f7ff fff8 	bl	ba2fc <_ZN5Print5printEc>
  n += print('\n');
   ba30c:	210a      	movs	r1, #10
  size_t n = print('\r');
   ba30e:	4604      	mov	r4, r0
  n += print('\n');
   ba310:	4628      	mov	r0, r5
   ba312:	f7ff fff3 	bl	ba2fc <_ZN5Print5printEc>
  return n;
}
   ba316:	4420      	add	r0, r4
   ba318:	bd38      	pop	{r3, r4, r5, pc}

000ba31a <_ZN5Print7printlnEPKc>:

size_t Print::println(const char c[])
{
   ba31a:	b538      	push	{r3, r4, r5, lr}
   ba31c:	4605      	mov	r5, r0
  return write(str);
   ba31e:	f7ff ffd7 	bl	ba2d0 <_ZN5Print5writeEPKc>
   ba322:	4604      	mov	r4, r0
  size_t n = print(c);
  n += println();
   ba324:	4628      	mov	r0, r5
   ba326:	f7ff ffec 	bl	ba302 <_ZN5Print7printlnEv>
  return n;
}
   ba32a:	4420      	add	r0, r4
   ba32c:	bd38      	pop	{r3, r4, r5, pc}

000ba32e <_ZN5Print11printNumberEmh>:
  return println(reinterpret_cast<const char*>(str));
}

// Private Methods /////////////////////////////////////////////////////////////

size_t Print::printNumber(unsigned long n, uint8_t base) {
   ba32e:	b530      	push	{r4, r5, lr}
   ba330:	b08b      	sub	sp, #44	; 0x2c
  char buf[8 * sizeof(n) + 1]; // Assumes 8-bit chars plus zero byte.
  char *str = &buf[sizeof(buf) - 1];

  *str = '\0';
   ba332:	2300      	movs	r3, #0

  // prevent crash if called with base == 1
  if (base < 2) base = 10;
   ba334:	2a01      	cmp	r2, #1
  *str = '\0';
   ba336:	f88d 3024 	strb.w	r3, [sp, #36]	; 0x24
  if (base < 2) base = 10;
   ba33a:	bf98      	it	ls
   ba33c:	220a      	movls	r2, #10
   ba33e:	ac09      	add	r4, sp, #36	; 0x24

  do {
   decltype(n) m = n;
   n /= base;
   ba340:	460d      	mov	r5, r1
   ba342:	fbb1 f1f2 	udiv	r1, r1, r2
   char c = m - base * n;
   ba346:	fb01 5312 	mls	r3, r1, r2, r5
   ba34a:	f003 03ff 	and.w	r3, r3, #255	; 0xff
   *--str = c < 10 ? c + '0' : c + 'A' - 10;
   ba34e:	2b09      	cmp	r3, #9
   ba350:	bf94      	ite	ls
   ba352:	3330      	addls	r3, #48	; 0x30
   ba354:	3337      	addhi	r3, #55	; 0x37
   ba356:	b2db      	uxtb	r3, r3
  } while(n);
   ba358:	42aa      	cmp	r2, r5
   *--str = c < 10 ? c + '0' : c + 'A' - 10;
   ba35a:	f804 3d01 	strb.w	r3, [r4, #-1]!
  } while(n);
   ba35e:	d9ef      	bls.n	ba340 <_ZN5Print11printNumberEmh+0x12>

  return write(str);
   ba360:	4621      	mov	r1, r4
   ba362:	f7ff ffb5 	bl	ba2d0 <_ZN5Print5writeEPKc>
}
   ba366:	b00b      	add	sp, #44	; 0x2c
   ba368:	bd30      	pop	{r4, r5, pc}

000ba36a <_ZN5Print7vprintfEbPKcSt9__va_list>:

  return n;
}

size_t Print::vprintf(bool newline, const char* format, va_list args)
{
   ba36a:	e92d 41f0 	stmdb	sp!, {r4, r5, r6, r7, r8, lr}
   ba36e:	b086      	sub	sp, #24
   ba370:	af00      	add	r7, sp, #0
   ba372:	4605      	mov	r5, r0
   ba374:	460e      	mov	r6, r1
    const int bufsize = 20;
    char test[bufsize];
    va_list args2;
    va_copy(args2, args);
    size_t n = vsnprintf(test, bufsize, format, args);
   ba376:	1d38      	adds	r0, r7, #4
   ba378:	2114      	movs	r1, #20
{
   ba37a:	4614      	mov	r4, r2
    va_copy(args2, args);
   ba37c:	603b      	str	r3, [r7, #0]
    size_t n = vsnprintf(test, bufsize, format, args);
   ba37e:	f7fe fbad 	bl	b8adc <vsnprintf>

    if (n<bufsize)
   ba382:	2813      	cmp	r0, #19
   ba384:	d80e      	bhi.n	ba3a4 <_ZN5Print7vprintfEbPKcSt9__va_list+0x3a>
  return write(str);
   ba386:	1d39      	adds	r1, r7, #4
   ba388:	4628      	mov	r0, r5
   ba38a:	f7ff ffa1 	bl	ba2d0 <_ZN5Print5writeEPKc>
   ba38e:	4604      	mov	r4, r0
    {
        char bigger[n+1];
        n = vsnprintf(bigger, n+1, format, args2);
        n = print(bigger);
    }
    if (newline)
   ba390:	b11e      	cbz	r6, ba39a <_ZN5Print7vprintfEbPKcSt9__va_list+0x30>
        n += println();
   ba392:	4628      	mov	r0, r5
   ba394:	f7ff ffb5 	bl	ba302 <_ZN5Print7printlnEv>
   ba398:	4404      	add	r4, r0

    va_end(args2);
    return n;
}
   ba39a:	4620      	mov	r0, r4
   ba39c:	3718      	adds	r7, #24
   ba39e:	46bd      	mov	sp, r7
   ba3a0:	e8bd 81f0 	ldmia.w	sp!, {r4, r5, r6, r7, r8, pc}
        char bigger[n+1];
   ba3a4:	f100 0308 	add.w	r3, r0, #8
   ba3a8:	f023 0307 	bic.w	r3, r3, #7
        n = print(bigger);
   ba3ac:	46e8      	mov	r8, sp
        char bigger[n+1];
   ba3ae:	ebad 0d03 	sub.w	sp, sp, r3
        n = vsnprintf(bigger, n+1, format, args2);
   ba3b2:	4622      	mov	r2, r4
   ba3b4:	1c41      	adds	r1, r0, #1
   ba3b6:	683b      	ldr	r3, [r7, #0]
   ba3b8:	4668      	mov	r0, sp
   ba3ba:	f7fe fb8f 	bl	b8adc <vsnprintf>
  return write(str);
   ba3be:	4669      	mov	r1, sp
   ba3c0:	4628      	mov	r0, r5
   ba3c2:	f7ff ff85 	bl	ba2d0 <_ZN5Print5writeEPKc>
   ba3c6:	4604      	mov	r4, r0
   ba3c8:	46c5      	mov	sp, r8
   ba3ca:	e7e1      	b.n	ba390 <_ZN5Print7vprintfEbPKcSt9__va_list+0x26>

000ba3cc <_GLOBAL__sub_I_RGB>:
    _Function_base() : _M_manager(nullptr) { }
   ba3cc:	4b01      	ldr	r3, [pc, #4]	; (ba3d4 <_GLOBAL__sub_I_RGB+0x8>)
   ba3ce:	2200      	movs	r2, #0
   ba3d0:	609a      	str	r2, [r3, #8]
{
    RGBClass* const d = static_cast<RGBClass*>(data);
    if (d->changeHandler_) {
        d->changeHandler_(r, g, b);
    }
}
   ba3d2:	4770      	bx	lr
   ba3d4:	2003e6dc 	.word	0x2003e6dc

000ba3d8 <_ZN6StringD1Ev>:
	init();
	char buf[33];
	dtoa(value, decimalPlaces, buf);
        *this = buf;
}
String::~String()
   ba3d8:	b510      	push	{r4, lr}
   ba3da:	4604      	mov	r4, r0
{
	free(buffer);
   ba3dc:	6800      	ldr	r0, [r0, #0]
   ba3de:	f7fe fb65 	bl	b8aac <free>
}
   ba3e2:	4620      	mov	r0, r4
   ba3e4:	bd10      	pop	{r4, pc}

000ba3e6 <_ZN6String10invalidateEv>:
	len = 0;
	flags = 0;
}

void String::invalidate(void)
{
   ba3e6:	b510      	push	{r4, lr}
   ba3e8:	4604      	mov	r4, r0
	if (buffer) free(buffer);
   ba3ea:	6800      	ldr	r0, [r0, #0]
   ba3ec:	b108      	cbz	r0, ba3f2 <_ZN6String10invalidateEv+0xc>
   ba3ee:	f7fe fb5d 	bl	b8aac <free>
	buffer = NULL;
   ba3f2:	2300      	movs	r3, #0
	capacity = len = 0;
   ba3f4:	e9c4 3301 	strd	r3, r3, [r4, #4]
	buffer = NULL;
   ba3f8:	6023      	str	r3, [r4, #0]
}
   ba3fa:	bd10      	pop	{r4, pc}

000ba3fc <_ZN6String12changeBufferEj>:
	}
	return 0;
}

unsigned char String::changeBuffer(unsigned int maxStrLen)
{
   ba3fc:	b538      	push	{r3, r4, r5, lr}
   ba3fe:	4604      	mov	r4, r0
   ba400:	460d      	mov	r5, r1
	char *newbuffer = (char *)realloc(buffer, maxStrLen + 1);
   ba402:	6800      	ldr	r0, [r0, #0]
   ba404:	3101      	adds	r1, #1
   ba406:	f7fe fb59 	bl	b8abc <realloc>
	if (newbuffer) {
   ba40a:	b110      	cbz	r0, ba412 <_ZN6String12changeBufferEj+0x16>
		buffer = newbuffer;
		capacity = maxStrLen;
   ba40c:	e9c4 0500 	strd	r0, r5, [r4]
		return 1;
   ba410:	2001      	movs	r0, #1
	}
	return 0;
}
   ba412:	bd38      	pop	{r3, r4, r5, pc}

000ba414 <_ZN6String7reserveEj>:
{
   ba414:	b510      	push	{r4, lr}
	if (buffer && capacity >= size) return 1;
   ba416:	6803      	ldr	r3, [r0, #0]
{
   ba418:	4604      	mov	r4, r0
	if (buffer && capacity >= size) return 1;
   ba41a:	b123      	cbz	r3, ba426 <_ZN6String7reserveEj+0x12>
   ba41c:	6843      	ldr	r3, [r0, #4]
   ba41e:	428b      	cmp	r3, r1
   ba420:	d301      	bcc.n	ba426 <_ZN6String7reserveEj+0x12>
   ba422:	2001      	movs	r0, #1
}
   ba424:	bd10      	pop	{r4, pc}
	if (changeBuffer(size)) {
   ba426:	4620      	mov	r0, r4
   ba428:	f7ff ffe8 	bl	ba3fc <_ZN6String12changeBufferEj>
   ba42c:	2800      	cmp	r0, #0
   ba42e:	d0f9      	beq.n	ba424 <_ZN6String7reserveEj+0x10>
		if (len == 0) buffer[0] = 0;
   ba430:	68a3      	ldr	r3, [r4, #8]
   ba432:	2b00      	cmp	r3, #0
   ba434:	d1f5      	bne.n	ba422 <_ZN6String7reserveEj+0xe>
   ba436:	6822      	ldr	r2, [r4, #0]
   ba438:	7013      	strb	r3, [r2, #0]
   ba43a:	e7f2      	b.n	ba422 <_ZN6String7reserveEj+0xe>

000ba43c <_ZN6String4copyEPKcj>:
/*********************************************/
/*  Copy and Move                            */
/*********************************************/

String & String::copy(const char *cstr, unsigned int length)
{
   ba43c:	b537      	push	{r0, r1, r2, r4, r5, lr}
   ba43e:	460d      	mov	r5, r1
	if (!reserve(length)) {
   ba440:	4611      	mov	r1, r2
   ba442:	9201      	str	r2, [sp, #4]
{
   ba444:	4604      	mov	r4, r0
	if (!reserve(length)) {
   ba446:	f7ff ffe5 	bl	ba414 <_ZN6String7reserveEj>
   ba44a:	9a01      	ldr	r2, [sp, #4]
   ba44c:	b928      	cbnz	r0, ba45a <_ZN6String4copyEPKcj+0x1e>
		invalidate();
   ba44e:	4620      	mov	r0, r4
   ba450:	f7ff ffc9 	bl	ba3e6 <_ZN6String10invalidateEv>
	}
	len = length;
	memcpy(buffer, cstr, length);
	buffer[len] = 0;
	return *this;
}
   ba454:	4620      	mov	r0, r4
   ba456:	b003      	add	sp, #12
   ba458:	bd30      	pop	{r4, r5, pc}
	len = length;
   ba45a:	60a2      	str	r2, [r4, #8]
	memcpy(buffer, cstr, length);
   ba45c:	4629      	mov	r1, r5
   ba45e:	6820      	ldr	r0, [r4, #0]
   ba460:	f001 fe82 	bl	bc168 <memcpy>
	buffer[len] = 0;
   ba464:	6822      	ldr	r2, [r4, #0]
   ba466:	68a3      	ldr	r3, [r4, #8]
   ba468:	2100      	movs	r1, #0
   ba46a:	54d1      	strb	r1, [r2, r3]
	return *this;
   ba46c:	e7f2      	b.n	ba454 <_ZN6String4copyEPKcj+0x18>

000ba46e <_ZN6StringC1EPK19__FlashStringHelper>:
	buffer = NULL;
   ba46e:	2300      	movs	r3, #0
String::String(const __FlashStringHelper *pstr)
   ba470:	b513      	push	{r0, r1, r4, lr}
	capacity = 0;
   ba472:	e9c0 3300 	strd	r3, r3, [r0]
String::String(const __FlashStringHelper *pstr)
   ba476:	4604      	mov	r4, r0
	len = 0;
   ba478:	6083      	str	r3, [r0, #8]
	flags = 0;
   ba47a:	7303      	strb	r3, [r0, #12]
	if (cstr) copy(cstr, strlen(cstr));
   ba47c:	b141      	cbz	r1, ba490 <_ZN6StringC1EPK19__FlashStringHelper+0x22>
	if (cstr) copy(cstr, strlen(cstr));
   ba47e:	4608      	mov	r0, r1
   ba480:	9101      	str	r1, [sp, #4]
   ba482:	f001 fee1 	bl	bc248 <strlen>
   ba486:	9901      	ldr	r1, [sp, #4]
   ba488:	4602      	mov	r2, r0
   ba48a:	4620      	mov	r0, r4
   ba48c:	f7ff ffd6 	bl	ba43c <_ZN6String4copyEPKcj>
}
   ba490:	4620      	mov	r0, r4
   ba492:	b002      	add	sp, #8
   ba494:	bd10      	pop	{r4, pc}

000ba496 <_ZN6String4moveERS_>:
    return copy(reinterpret_cast<const char*>(pstr), length);
}

#ifdef __GXX_EXPERIMENTAL_CXX0X__
void String::move(String &rhs)
{
   ba496:	b538      	push	{r3, r4, r5, lr}
   ba498:	4605      	mov	r5, r0
	if (buffer) {
   ba49a:	6800      	ldr	r0, [r0, #0]
{
   ba49c:	460c      	mov	r4, r1
	if (buffer) {
   ba49e:	b168      	cbz	r0, ba4bc <_ZN6String4moveERS_+0x26>
		if (capacity >= rhs.len) {
   ba4a0:	686a      	ldr	r2, [r5, #4]
   ba4a2:	688b      	ldr	r3, [r1, #8]
   ba4a4:	429a      	cmp	r2, r3
   ba4a6:	d307      	bcc.n	ba4b8 <_ZN6String4moveERS_+0x22>
			strcpy(buffer, rhs.buffer);
   ba4a8:	6809      	ldr	r1, [r1, #0]
   ba4aa:	f001 fec5 	bl	bc238 <strcpy>
			len = rhs.len;
   ba4ae:	68a3      	ldr	r3, [r4, #8]
   ba4b0:	60ab      	str	r3, [r5, #8]
			rhs.len = 0;
   ba4b2:	2300      	movs	r3, #0
	buffer = rhs.buffer;
	capacity = rhs.capacity;
	len = rhs.len;
	rhs.buffer = NULL;
	rhs.capacity = 0;
	rhs.len = 0;
   ba4b4:	60a3      	str	r3, [r4, #8]
}
   ba4b6:	bd38      	pop	{r3, r4, r5, pc}
			free(buffer);
   ba4b8:	f7fe faf8 	bl	b8aac <free>
	buffer = rhs.buffer;
   ba4bc:	6823      	ldr	r3, [r4, #0]
   ba4be:	602b      	str	r3, [r5, #0]
	capacity = rhs.capacity;
   ba4c0:	6863      	ldr	r3, [r4, #4]
   ba4c2:	606b      	str	r3, [r5, #4]
	len = rhs.len;
   ba4c4:	68a3      	ldr	r3, [r4, #8]
   ba4c6:	60ab      	str	r3, [r5, #8]
	rhs.buffer = NULL;
   ba4c8:	2300      	movs	r3, #0
	rhs.capacity = 0;
   ba4ca:	e9c4 3300 	strd	r3, r3, [r4]
   ba4ce:	e7f1      	b.n	ba4b4 <_ZN6String4moveERS_+0x1e>

000ba4d0 <_ZN6StringaSERKS_>:
#endif

String & String::operator = (const String &rhs)
{
	if (this == &rhs) return *this;
   ba4d0:	4288      	cmp	r0, r1
{
   ba4d2:	b510      	push	{r4, lr}
   ba4d4:	4604      	mov	r4, r0
	if (this == &rhs) return *this;
   ba4d6:	d005      	beq.n	ba4e4 <_ZN6StringaSERKS_+0x14>

	if (rhs.buffer) copy(rhs.buffer, rhs.len);
   ba4d8:	680b      	ldr	r3, [r1, #0]
   ba4da:	b12b      	cbz	r3, ba4e8 <_ZN6StringaSERKS_+0x18>
   ba4dc:	688a      	ldr	r2, [r1, #8]
   ba4de:	4619      	mov	r1, r3
   ba4e0:	f7ff ffac 	bl	ba43c <_ZN6String4copyEPKcj>
	else invalidate();

	return *this;
}
   ba4e4:	4620      	mov	r0, r4
   ba4e6:	bd10      	pop	{r4, pc}
	else invalidate();
   ba4e8:	f7ff ff7d 	bl	ba3e6 <_ZN6String10invalidateEv>
   ba4ec:	e7fa      	b.n	ba4e4 <_ZN6StringaSERKS_+0x14>

000ba4ee <_ZN6StringaSEOS_>:
}

#ifdef __GXX_EXPERIMENTAL_CXX0X__
String & String::operator = (String &&rval)
{
	if (this != &rval) move(rval);
   ba4ee:	4288      	cmp	r0, r1
{
   ba4f0:	b510      	push	{r4, lr}
   ba4f2:	4604      	mov	r4, r0
	if (this != &rval) move(rval);
   ba4f4:	d001      	beq.n	ba4fa <_ZN6StringaSEOS_+0xc>
   ba4f6:	f7ff ffce 	bl	ba496 <_ZN6String4moveERS_>
	return *this;
}
   ba4fa:	4620      	mov	r0, r4
   ba4fc:	bd10      	pop	{r4, pc}

000ba4fe <_ZN6StringaSEPKc>:
	return *this;
}
#endif

String & String::operator = (const char *cstr)
{
   ba4fe:	b513      	push	{r0, r1, r4, lr}
   ba500:	4604      	mov	r4, r0
	if (cstr) copy(cstr, strlen(cstr));
   ba502:	b159      	cbz	r1, ba51c <_ZN6StringaSEPKc+0x1e>
   ba504:	4608      	mov	r0, r1
   ba506:	9101      	str	r1, [sp, #4]
   ba508:	f001 fe9e 	bl	bc248 <strlen>
   ba50c:	9901      	ldr	r1, [sp, #4]
   ba50e:	4602      	mov	r2, r0
   ba510:	4620      	mov	r0, r4
   ba512:	f7ff ff93 	bl	ba43c <_ZN6String4copyEPKcj>
	else invalidate();

	return *this;
}
   ba516:	4620      	mov	r0, r4
   ba518:	b002      	add	sp, #8
   ba51a:	bd10      	pop	{r4, pc}
	else invalidate();
   ba51c:	f7ff ff63 	bl	ba3e6 <_ZN6String10invalidateEv>
   ba520:	e7f9      	b.n	ba516 <_ZN6StringaSEPKc+0x18>

000ba522 <_ZN6StringC1Eih>:
String::String(int value, unsigned char base)
   ba522:	b510      	push	{r4, lr}
   ba524:	4604      	mov	r4, r0
   ba526:	b08a      	sub	sp, #40	; 0x28
	buffer = NULL;
   ba528:	2300      	movs	r3, #0
	capacity = 0;
   ba52a:	e9c4 3300 	strd	r3, r3, [r4]
	len = 0;
   ba52e:	60a3      	str	r3, [r4, #8]
	flags = 0;
   ba530:	7323      	strb	r3, [r4, #12]
String::String(int value, unsigned char base)
   ba532:	4608      	mov	r0, r1
	itoa(value, buf, base);
   ba534:	a901      	add	r1, sp, #4
   ba536:	f000 fd15 	bl	baf64 <itoa>
	*this = buf;
   ba53a:	a901      	add	r1, sp, #4
   ba53c:	4620      	mov	r0, r4
   ba53e:	f7ff ffde 	bl	ba4fe <_ZN6StringaSEPKc>
}
   ba542:	4620      	mov	r0, r4
   ba544:	b00a      	add	sp, #40	; 0x28
   ba546:	bd10      	pop	{r4, pc}

000ba548 <_ZN6String6concatEPKcj>:
{
	return concat(s.buffer, s.len);
}

unsigned char String::concat(const char *cstr, unsigned int length)
{
   ba548:	b570      	push	{r4, r5, r6, lr}
   ba54a:	4605      	mov	r5, r0
	unsigned int newlen = len + length;
	if (!cstr) return 0;
   ba54c:	460e      	mov	r6, r1
   ba54e:	b909      	cbnz	r1, ba554 <_ZN6String6concatEPKcj+0xc>
   ba550:	2000      	movs	r0, #0
	if (length == 0) return 1;
	if (!reserve(newlen)) return 0;
	strcpy(buffer + len, cstr);
	len = newlen;
	return 1;
}
   ba552:	bd70      	pop	{r4, r5, r6, pc}
	if (length == 0) return 1;
   ba554:	b16a      	cbz	r2, ba572 <_ZN6String6concatEPKcj+0x2a>
	unsigned int newlen = len + length;
   ba556:	6884      	ldr	r4, [r0, #8]
   ba558:	4414      	add	r4, r2
	if (!reserve(newlen)) return 0;
   ba55a:	4621      	mov	r1, r4
   ba55c:	f7ff ff5a 	bl	ba414 <_ZN6String7reserveEj>
   ba560:	2800      	cmp	r0, #0
   ba562:	d0f5      	beq.n	ba550 <_ZN6String6concatEPKcj+0x8>
	strcpy(buffer + len, cstr);
   ba564:	6828      	ldr	r0, [r5, #0]
   ba566:	68ab      	ldr	r3, [r5, #8]
   ba568:	4631      	mov	r1, r6
   ba56a:	4418      	add	r0, r3
   ba56c:	f001 fe64 	bl	bc238 <strcpy>
	len = newlen;
   ba570:	60ac      	str	r4, [r5, #8]
	if (length == 0) return 1;
   ba572:	2001      	movs	r0, #1
   ba574:	e7ed      	b.n	ba552 <_ZN6String6concatEPKcj+0xa>

000ba576 <_ZN6String6concatERKS_>:
	return concat(s.buffer, s.len);
   ba576:	688a      	ldr	r2, [r1, #8]
   ba578:	6809      	ldr	r1, [r1, #0]
   ba57a:	f7ff bfe5 	b.w	ba548 <_ZN6String6concatEPKcj>

000ba57e <_ZN6String6concatEc>:
unsigned char String::concat(const __FlashStringHelper * str) {
	return concat(reinterpret_cast<const char*>(str));
}

unsigned char String::concat(char c)
{
   ba57e:	b507      	push	{r0, r1, r2, lr}
	char buf[2];
	buf[0] = c;
	buf[1] = 0;
   ba580:	2300      	movs	r3, #0
	buf[0] = c;
   ba582:	f88d 1004 	strb.w	r1, [sp, #4]
	return concat(buf, 1);
   ba586:	2201      	movs	r2, #1
   ba588:	a901      	add	r1, sp, #4
	buf[1] = 0;
   ba58a:	f88d 3005 	strb.w	r3, [sp, #5]
	return concat(buf, 1);
   ba58e:	f7ff ffdb 	bl	ba548 <_ZN6String6concatEPKcj>
}
   ba592:	b003      	add	sp, #12
   ba594:	f85d fb04 	ldr.w	pc, [sp], #4

000ba598 <_ZplRK15StringSumHelperRK6String>:
/*********************************************/
/*  Concatenate                              */
/*********************************************/

StringSumHelper & operator + (const StringSumHelper &lhs, const String &rhs)
{
   ba598:	b510      	push	{r4, lr}
	StringSumHelper &a = const_cast<StringSumHelper&>(lhs);
	if (!a.concat(rhs.buffer, rhs.len)) a.invalidate();
   ba59a:	688a      	ldr	r2, [r1, #8]
   ba59c:	6809      	ldr	r1, [r1, #0]
{
   ba59e:	4604      	mov	r4, r0
	if (!a.concat(rhs.buffer, rhs.len)) a.invalidate();
   ba5a0:	f7ff ffd2 	bl	ba548 <_ZN6String6concatEPKcj>
   ba5a4:	b910      	cbnz	r0, ba5ac <_ZplRK15StringSumHelperRK6String+0x14>
   ba5a6:	4620      	mov	r0, r4
   ba5a8:	f7ff ff1d 	bl	ba3e6 <_ZN6String10invalidateEv>
	return a;
}
   ba5ac:	4620      	mov	r0, r4
   ba5ae:	bd10      	pop	{r4, pc}

000ba5b0 <_ZplRK15StringSumHelperPKc>:

StringSumHelper & operator + (const StringSumHelper &lhs, const char *cstr)
{
   ba5b0:	b513      	push	{r0, r1, r4, lr}
   ba5b2:	4604      	mov	r4, r0
	StringSumHelper &a = const_cast<StringSumHelper&>(lhs);
	if (!cstr || !a.concat(cstr, strlen(cstr))) a.invalidate();
   ba5b4:	b929      	cbnz	r1, ba5c2 <_ZplRK15StringSumHelperPKc+0x12>
   ba5b6:	4620      	mov	r0, r4
   ba5b8:	f7ff ff15 	bl	ba3e6 <_ZN6String10invalidateEv>
	return a;
}
   ba5bc:	4620      	mov	r0, r4
   ba5be:	b002      	add	sp, #8
   ba5c0:	bd10      	pop	{r4, pc}
	if (!cstr || !a.concat(cstr, strlen(cstr))) a.invalidate();
   ba5c2:	4608      	mov	r0, r1
   ba5c4:	9101      	str	r1, [sp, #4]
   ba5c6:	f001 fe3f 	bl	bc248 <strlen>
   ba5ca:	9901      	ldr	r1, [sp, #4]
   ba5cc:	4602      	mov	r2, r0
   ba5ce:	4620      	mov	r0, r4
   ba5d0:	f7ff ffba 	bl	ba548 <_ZN6String6concatEPKcj>
   ba5d4:	2800      	cmp	r0, #0
   ba5d6:	d0ee      	beq.n	ba5b6 <_ZplRK15StringSumHelperPKc+0x6>
   ba5d8:	e7f0      	b.n	ba5bc <_ZplRK15StringSumHelperPKc+0xc>

000ba5da <_ZNK6String9compareToERKS_>:
/*  Comparison                               */
/*********************************************/

int String::compareTo(const String &s) const
{
	if (!buffer || !s.buffer) {
   ba5da:	6802      	ldr	r2, [r0, #0]
{
   ba5dc:	460b      	mov	r3, r1
	if (!buffer || !s.buffer) {
   ba5de:	6809      	ldr	r1, [r1, #0]
   ba5e0:	b162      	cbz	r2, ba5fc <_ZNK6String9compareToERKS_+0x22>
   ba5e2:	b941      	cbnz	r1, ba5f6 <_ZNK6String9compareToERKS_+0x1c>
		if (s.buffer && s.len > 0) return 0 - *(unsigned char *)s.buffer;
		if (buffer && len > 0) return *(unsigned char *)buffer;
   ba5e4:	6880      	ldr	r0, [r0, #8]
   ba5e6:	b160      	cbz	r0, ba602 <_ZNK6String9compareToERKS_+0x28>
   ba5e8:	7810      	ldrb	r0, [r2, #0]
   ba5ea:	4770      	bx	lr
		if (s.buffer && s.len > 0) return 0 - *(unsigned char *)s.buffer;
   ba5ec:	6898      	ldr	r0, [r3, #8]
   ba5ee:	b140      	cbz	r0, ba602 <_ZNK6String9compareToERKS_+0x28>
   ba5f0:	7809      	ldrb	r1, [r1, #0]
   ba5f2:	4248      	negs	r0, r1
   ba5f4:	4770      	bx	lr
		return 0;
	}
	return strcmp(buffer, s.buffer);
   ba5f6:	4610      	mov	r0, r2
   ba5f8:	f001 be14 	b.w	bc224 <strcmp>
		if (s.buffer && s.len > 0) return 0 - *(unsigned char *)s.buffer;
   ba5fc:	2900      	cmp	r1, #0
   ba5fe:	d1f5      	bne.n	ba5ec <_ZNK6String9compareToERKS_+0x12>
		return 0;
   ba600:	4608      	mov	r0, r1
}
   ba602:	4770      	bx	lr

000ba604 <_ZNK6String6equalsERKS_>:

unsigned char String::equals(const String &s2) const
{
   ba604:	b508      	push	{r3, lr}
	return (len == s2.len && compareTo(s2) == 0);
   ba606:	6882      	ldr	r2, [r0, #8]
   ba608:	688b      	ldr	r3, [r1, #8]
   ba60a:	429a      	cmp	r2, r3
   ba60c:	d105      	bne.n	ba61a <_ZNK6String6equalsERKS_+0x16>
   ba60e:	f7ff ffe4 	bl	ba5da <_ZNK6String9compareToERKS_>
   ba612:	fab0 f080 	clz	r0, r0
   ba616:	0940      	lsrs	r0, r0, #5
}
   ba618:	bd08      	pop	{r3, pc}
	return (len == s2.len && compareTo(s2) == 0);
   ba61a:	2000      	movs	r0, #0
   ba61c:	e7fc      	b.n	ba618 <_ZNK6String6equalsERKS_+0x14>

000ba61e <_ZNK6String6equalsEPKc>:

unsigned char String::equals(const char *cstr) const
{
   ba61e:	b508      	push	{r3, lr}
	if (len == 0) return (cstr == NULL || *cstr == 0);
   ba620:	6882      	ldr	r2, [r0, #8]
   ba622:	b93a      	cbnz	r2, ba634 <_ZNK6String6equalsEPKc+0x16>
   ba624:	b121      	cbz	r1, ba630 <_ZNK6String6equalsEPKc+0x12>
   ba626:	7808      	ldrb	r0, [r1, #0]
	if (cstr == NULL) return buffer[0] == 0;
	return strcmp(buffer, cstr) == 0;
   ba628:	fab0 f080 	clz	r0, r0
   ba62c:	0940      	lsrs	r0, r0, #5
   ba62e:	e000      	b.n	ba632 <_ZNK6String6equalsEPKc+0x14>
	if (len == 0) return (cstr == NULL || *cstr == 0);
   ba630:	2001      	movs	r0, #1
}
   ba632:	bd08      	pop	{r3, pc}
	if (cstr == NULL) return buffer[0] == 0;
   ba634:	6800      	ldr	r0, [r0, #0]
   ba636:	b909      	cbnz	r1, ba63c <_ZNK6String6equalsEPKc+0x1e>
   ba638:	7800      	ldrb	r0, [r0, #0]
   ba63a:	e7f5      	b.n	ba628 <_ZNK6String6equalsEPKc+0xa>
	return strcmp(buffer, cstr) == 0;
   ba63c:	f001 fdf2 	bl	bc224 <strcmp>
   ba640:	e7f2      	b.n	ba628 <_ZNK6String6equalsEPKc+0xa>

000ba642 <_ZNK6String7indexOfERKS_j>:
{
	return indexOf(s2, 0);
}

int String::indexOf(const String &s2, unsigned int fromIndex) const
{
   ba642:	b510      	push	{r4, lr}
	if (fromIndex >= len) return -1;
   ba644:	6883      	ldr	r3, [r0, #8]
   ba646:	4293      	cmp	r3, r2
   ba648:	d907      	bls.n	ba65a <_ZNK6String7indexOfERKS_j+0x18>
	const char *found = strstr(buffer + fromIndex, s2.buffer);
   ba64a:	6804      	ldr	r4, [r0, #0]
   ba64c:	6809      	ldr	r1, [r1, #0]
   ba64e:	18a0      	adds	r0, r4, r2
   ba650:	f001 fe22 	bl	bc298 <strstr>
	if (found == NULL) return -1;
   ba654:	b108      	cbz	r0, ba65a <_ZNK6String7indexOfERKS_j+0x18>
	return found - buffer;
   ba656:	1b00      	subs	r0, r0, r4
}
   ba658:	bd10      	pop	{r4, pc}
	if (fromIndex >= len) return -1;
   ba65a:	f04f 30ff 	mov.w	r0, #4294967295	; 0xffffffff
   ba65e:	e7fb      	b.n	ba658 <_ZNK6String7indexOfERKS_j+0x16>

000ba660 <_ZNK6String7indexOfERKS_>:
	return indexOf(s2, 0);
   ba660:	2200      	movs	r2, #0
   ba662:	f7ff bfee 	b.w	ba642 <_ZNK6String7indexOfERKS_j>
	...

000ba668 <_ZNK6String9substringEjj>:
{
	return substring(left, len);
}

String String::substring(unsigned int left, unsigned int right) const
{
   ba668:	b5f8      	push	{r3, r4, r5, r6, r7, lr}
	if (left > right) {
   ba66a:	429a      	cmp	r2, r3
{
   ba66c:	460f      	mov	r7, r1
   ba66e:	461d      	mov	r5, r3
		unsigned int temp = right;
		right = left;
		left = temp;
	}
	String out;
   ba670:	490c      	ldr	r1, [pc, #48]	; (ba6a4 <_ZNK6String9substringEjj+0x3c>)
	if (left > right) {
   ba672:	bf88      	it	hi
   ba674:	4613      	movhi	r3, r2
{
   ba676:	4614      	mov	r4, r2
   ba678:	4606      	mov	r6, r0
	if (left > right) {
   ba67a:	bf84      	itt	hi
   ba67c:	462c      	movhi	r4, r5
   ba67e:	461d      	movhi	r5, r3
	String out;
   ba680:	f7ff fef5 	bl	ba46e <_ZN6StringC1EPK19__FlashStringHelper>
	if (left > len) return out;
   ba684:	68bb      	ldr	r3, [r7, #8]
   ba686:	42a3      	cmp	r3, r4
   ba688:	d30a      	bcc.n	ba6a0 <_ZNK6String9substringEjj+0x38>
	if (right > len) right = len;
	out.copy(&buffer[left], right - left);
   ba68a:	6839      	ldr	r1, [r7, #0]
   ba68c:	42ab      	cmp	r3, r5
   ba68e:	bf94      	ite	ls
   ba690:	ebc4 0203 	rsbls	r2, r4, r3
   ba694:	ebc4 0205 	rsbhi	r2, r4, r5
   ba698:	4421      	add	r1, r4
   ba69a:	4630      	mov	r0, r6
   ba69c:	f7ff fece 	bl	ba43c <_ZN6String4copyEPKcj>
	return out;
}
   ba6a0:	4630      	mov	r0, r6
   ba6a2:	bdf8      	pop	{r3, r4, r5, r6, r7, pc}
   ba6a4:	000be7fe 	.word	0x000be7fe

000ba6a8 <_ZNK6String9substringEj>:
{
   ba6a8:	b510      	push	{r4, lr}
   ba6aa:	4604      	mov	r4, r0
	return substring(left, len);
   ba6ac:	688b      	ldr	r3, [r1, #8]
   ba6ae:	f7ff ffdb 	bl	ba668 <_ZNK6String9substringEjj>
}
   ba6b2:	4620      	mov	r0, r4
   ba6b4:	bd10      	pop	{r4, pc}
	...

000ba6b8 <_GLOBAL__sub_I_System>:
} // namespace particle

// particle::Flag<TagT, ValueT>
template<typename TagT, typename ValueT>
inline particle::Flag<TagT, ValueT>::Flag(ValueT val) :
        val_(val) {
   ba6b8:	4b05      	ldr	r3, [pc, #20]	; (ba6d0 <_GLOBAL__sub_I_System+0x18>)
   ba6ba:	2202      	movs	r2, #2
   ba6bc:	601a      	str	r2, [r3, #0]

class SystemSleepResult {
public:
    SystemSleepResult()
            : wakeupSource_(nullptr),
              error_(SYSTEM_ERROR_NONE) {
   ba6be:	4b05      	ldr	r3, [pc, #20]	; (ba6d4 <_GLOBAL__sub_I_System+0x1c>)
    SleepResult() {}
   ba6c0:	4a05      	ldr	r2, [pc, #20]	; (ba6d8 <_GLOBAL__sub_I_System+0x20>)
   ba6c2:	609a      	str	r2, [r3, #8]
              error_(SYSTEM_ERROR_NONE) {
   ba6c4:	2000      	movs	r0, #0
   ba6c6:	e9c3 0000 	strd	r0, r0, [r3]

class SystemClass {
public:

    SystemClass(System_Mode_TypeDef mode = DEFAULT) {
        set_system_mode(mode);
   ba6ca:	f7fe b94b 	b.w	b8964 <set_system_mode>
   ba6ce:	bf00      	nop
   ba6d0:	2003e6f8 	.word	0x2003e6f8
   ba6d4:	2003e6ec 	.word	0x2003e6ec
   ba6d8:	ffff0000 	.word	0xffff0000

000ba6dc <_ZN9TCPClient5writeEh>:
    done.dismiss();

    return 1; // success
}

size_t TCPClient::write(uint8_t b) {
   ba6dc:	b513      	push	{r0, r1, r4, lr}
    return write(&b, 1, SOCKET_WAIT_FOREVER);
   ba6de:	6803      	ldr	r3, [r0, #0]
size_t TCPClient::write(uint8_t b) {
   ba6e0:	f88d 1007 	strb.w	r1, [sp, #7]
    return write(&b, 1, SOCKET_WAIT_FOREVER);
   ba6e4:	6bdc      	ldr	r4, [r3, #60]	; 0x3c
   ba6e6:	2201      	movs	r2, #1
   ba6e8:	f04f 33ff 	mov.w	r3, #4294967295	; 0xffffffff
   ba6ec:	f10d 0107 	add.w	r1, sp, #7
   ba6f0:	47a0      	blx	r4
}
   ba6f2:	b002      	add	sp, #8
   ba6f4:	bd10      	pop	{r4, pc}

000ba6f6 <_ZN9TCPClient5writeEPKhj>:

size_t TCPClient::write(const uint8_t *buffer, size_t size) {
   ba6f6:	b410      	push	{r4}
    return write(buffer, size, SOCKET_WAIT_FOREVER);
   ba6f8:	6803      	ldr	r3, [r0, #0]
   ba6fa:	6bdc      	ldr	r4, [r3, #60]	; 0x3c
   ba6fc:	f04f 33ff 	mov.w	r3, #4294967295	; 0xffffffff
   ba700:	46a4      	mov	ip, r4
}
   ba702:	f85d 4b04 	ldr.w	r4, [sp], #4
    return write(buffer, size, SOCKET_WAIT_FOREVER);
   ba706:	4760      	bx	ip

000ba708 <_ZN9TCPClient5writeEhm>:

size_t TCPClient::write(uint8_t b, system_tick_t timeout) {
   ba708:	b513      	push	{r0, r1, r4, lr}
   ba70a:	4613      	mov	r3, r2
    return write(&b, 1, timeout);
   ba70c:	6802      	ldr	r2, [r0, #0]
size_t TCPClient::write(uint8_t b, system_tick_t timeout) {
   ba70e:	f88d 1007 	strb.w	r1, [sp, #7]
    return write(&b, 1, timeout);
   ba712:	6bd4      	ldr	r4, [r2, #60]	; 0x3c
   ba714:	f10d 0107 	add.w	r1, sp, #7
   ba718:	2201      	movs	r2, #1
   ba71a:	47a0      	blx	r4
}
   ba71c:	b002      	add	sp, #8
   ba71e:	bd10      	pop	{r4, pc}

000ba720 <_ZN9TCPClient4readEv>:
    } // isOpen(d_->sock)
    avail = bufferCount();
    return avail;
}

int TCPClient::read() {
   ba720:	b510      	push	{r4, lr}
      { return _M_ptr; }
   ba722:	6943      	ldr	r3, [r0, #20]
    return (bufferCount() || available()) ? d_->buffer[d_->offset++] : -1;
   ba724:	f8b3 2086 	ldrh.w	r2, [r3, #134]	; 0x86
   ba728:	f8b3 3084 	ldrh.w	r3, [r3, #132]	; 0x84
   ba72c:	429a      	cmp	r2, r3
int TCPClient::read() {
   ba72e:	4604      	mov	r4, r0
    return (bufferCount() || available()) ? d_->buffer[d_->offset++] : -1;
   ba730:	d008      	beq.n	ba744 <_ZN9TCPClient4readEv+0x24>
   ba732:	6963      	ldr	r3, [r4, #20]
   ba734:	f8b3 2084 	ldrh.w	r2, [r3, #132]	; 0x84
   ba738:	1c51      	adds	r1, r2, #1
   ba73a:	f8a3 1084 	strh.w	r1, [r3, #132]	; 0x84
   ba73e:	4413      	add	r3, r2
   ba740:	7918      	ldrb	r0, [r3, #4]
}
   ba742:	bd10      	pop	{r4, pc}
    return (bufferCount() || available()) ? d_->buffer[d_->offset++] : -1;
   ba744:	6803      	ldr	r3, [r0, #0]
   ba746:	691b      	ldr	r3, [r3, #16]
   ba748:	4798      	blx	r3
   ba74a:	2800      	cmp	r0, #0
   ba74c:	d1f1      	bne.n	ba732 <_ZN9TCPClient4readEv+0x12>
   ba74e:	f04f 30ff 	mov.w	r0, #4294967295	; 0xffffffff
   ba752:	e7f6      	b.n	ba742 <_ZN9TCPClient4readEv+0x22>

000ba754 <_ZN9TCPClient5flushEv>:
    d_->offset = 0;
    d_->total = 0;
}

void TCPClient::flush() {
}
   ba754:	4770      	bx	lr

000ba756 <_ZN9TCPClientcvbEv>:
    }
    return rv;
}

uint8_t TCPClient::status() {
    return (isOpen(d_->sock));
   ba756:	6943      	ldr	r3, [r0, #20]
    return socket_handle_valid(sd);
   ba758:	6818      	ldr	r0, [r3, #0]
}

TCPClient::operator bool() {
   return (status() != 0);
}
   ba75a:	43c0      	mvns	r0, r0
   ba75c:	0fc0      	lsrs	r0, r0, #31
   ba75e:	4770      	bx	lr

000ba760 <_ZNSt23_Sp_counted_ptr_inplaceIN9TCPClient4DataESaIS1_ELN9__gnu_cxx12_Lock_policyE0EED1Ev>:
      ~_Sp_counted_ptr_inplace() noexcept { }
   ba760:	4770      	bx	lr
	...

000ba764 <_ZNSt23_Sp_counted_ptr_inplaceIN9TCPClient4DataESaIS1_ELN9__gnu_cxx12_Lock_policyE0EE14_M_get_deleterERKSt9type_info>:
	    ||
   ba764:	4b06      	ldr	r3, [pc, #24]	; (ba780 <_ZNSt23_Sp_counted_ptr_inplaceIN9TCPClient4DataESaIS1_ELN9__gnu_cxx12_Lock_policyE0EE14_M_get_deleterERKSt9type_info+0x1c>)
   ba766:	4299      	cmp	r1, r3
      _M_get_deleter(const std::type_info& __ti) noexcept override
   ba768:	b510      	push	{r4, lr}
   ba76a:	f100 040c 	add.w	r4, r0, #12
	    ||
   ba76e:	d005      	beq.n	ba77c <_ZNSt23_Sp_counted_ptr_inplaceIN9TCPClient4DataESaIS1_ELN9__gnu_cxx12_Lock_policyE0EE14_M_get_deleterERKSt9type_info+0x18>
	    _Sp_make_shared_tag::_S_eq(__ti)
   ba770:	4608      	mov	r0, r1
   ba772:	f000 fd1d 	bl	bb1b0 <_ZNSt19_Sp_make_shared_tag5_S_eqERKSt9type_info>
	return nullptr;
   ba776:	2800      	cmp	r0, #0
   ba778:	bf08      	it	eq
   ba77a:	2400      	moveq	r4, #0
      }
   ba77c:	4620      	mov	r0, r4
   ba77e:	bd10      	pop	{r4, pc}
   ba780:	000be9d4 	.word	0x000be9d4

000ba784 <_ZNSt23_Sp_counted_ptr_inplaceIN9TCPClient4DataESaIS1_ELN9__gnu_cxx12_Lock_policyE0EED0Ev>:
      ~_Sp_counted_ptr_inplace() noexcept { }
   ba784:	b510      	push	{r4, lr}
   ba786:	21ac      	movs	r1, #172	; 0xac
   ba788:	4604      	mov	r4, r0
   ba78a:	f7f9 fc8a 	bl	b40a2 <_ZdlPvj>
   ba78e:	4620      	mov	r0, r4
   ba790:	bd10      	pop	{r4, pc}

000ba792 <_ZNSt23_Sp_counted_ptr_inplaceIN9TCPClient4DataESaIS1_ELN9__gnu_cxx12_Lock_policyE0EE10_M_destroyEv>:
	::operator delete(__p
   ba792:	21ac      	movs	r1, #172	; 0xac
   ba794:	f7f9 bc85 	b.w	b40a2 <_ZdlPvj>

000ba798 <_ZN9TCPClient5writeEPKhjm>:
size_t TCPClient::write(const uint8_t *buffer, size_t size, system_tick_t timeout) {
   ba798:	e92d 41f0 	stmdb	sp!, {r4, r5, r6, r7, r8, lr}
    void setWriteError(int err = 1) { write_error = err; }
   ba79c:	f04f 0800 	mov.w	r8, #0
   ba7a0:	b086      	sub	sp, #24
   ba7a2:	461c      	mov	r4, r3
   ba7a4:	f8c0 8004 	str.w	r8, [r0, #4]
   ba7a8:	4605      	mov	r5, r0
   ba7aa:	460e      	mov	r6, r1
   ba7ac:	4617      	mov	r7, r2
    struct timeval tv = {};
   ba7ae:	4641      	mov	r1, r8
   ba7b0:	2210      	movs	r2, #16
   ba7b2:	a802      	add	r0, sp, #8
   ba7b4:	f001 fd00 	bl	bc1b8 <memset>
    if (timeout != SOCKET_WAIT_FOREVER) {
   ba7b8:	1c63      	adds	r3, r4, #1
   ba7ba:	d009      	beq.n	ba7d0 <_ZN9TCPClient5writeEPKhjm+0x38>
        tv.tv_sec = timeout / 1000;
   ba7bc:	f44f 737a 	mov.w	r3, #1000	; 0x3e8
   ba7c0:	fbb4 f2f3 	udiv	r2, r4, r3
        tv.tv_usec = (timeout % 1000) * 1000;
   ba7c4:	fb03 4412 	mls	r4, r3, r2, r4
        tv.tv_sec = timeout / 1000;
   ba7c8:	e9cd 2802 	strd	r2, r8, [sp, #8]
        tv.tv_usec = (timeout % 1000) * 1000;
   ba7cc:	435c      	muls	r4, r3
   ba7ce:	9404      	str	r4, [sp, #16]
    int ret = sock_setsockopt(d_->sock, SOL_SOCKET, SO_SNDTIMEO, &tv, sizeof(tv));
   ba7d0:	6968      	ldr	r0, [r5, #20]
   ba7d2:	2310      	movs	r3, #16
   ba7d4:	9300      	str	r3, [sp, #0]
   ba7d6:	6800      	ldr	r0, [r0, #0]
   ba7d8:	ab02      	add	r3, sp, #8
   ba7da:	f241 0205 	movw	r2, #4101	; 0x1005
   ba7de:	f640 71ff 	movw	r1, #4095	; 0xfff
   ba7e2:	f7fe f80f 	bl	b8804 <sock_setsockopt>
    if (ret < 0) {
   ba7e6:	2800      	cmp	r0, #0
   ba7e8:	da07      	bge.n	ba7fa <_ZN9TCPClient5writeEPKhjm+0x62>
        setWriteError(errno);
   ba7ea:	f7fe f98f 	bl	b8b0c <__errno>
   ba7ee:	6803      	ldr	r3, [r0, #0]
   ba7f0:	606b      	str	r3, [r5, #4]
        return 0;
   ba7f2:	2000      	movs	r0, #0
}
   ba7f4:	b006      	add	sp, #24
   ba7f6:	e8bd 81f0 	ldmia.w	sp!, {r4, r5, r6, r7, r8, pc}
    ret = sock_send(d_->sock, buffer, size, 0);
   ba7fa:	6968      	ldr	r0, [r5, #20]
   ba7fc:	2300      	movs	r3, #0
   ba7fe:	6800      	ldr	r0, [r0, #0]
   ba800:	463a      	mov	r2, r7
   ba802:	4631      	mov	r1, r6
   ba804:	f7fe f81e 	bl	b8844 <sock_send>
    if (ret < 0) {
   ba808:	1e03      	subs	r3, r0, #0
   ba80a:	dbee      	blt.n	ba7ea <_ZN9TCPClient5writeEPKhjm+0x52>
    return ret;
   ba80c:	4618      	mov	r0, r3
   ba80e:	e7f1      	b.n	ba7f4 <_ZN9TCPClient5writeEPKhjm+0x5c>

000ba810 <_ZN9TCPClientD1Ev>:
class TCPClient : public Client {

public:
    TCPClient();
    TCPClient(sock_handle_t sock);
    virtual ~TCPClient() {};
   ba810:	b538      	push	{r3, r4, r5, lr}
	if (_M_pi != nullptr)
   ba812:	6984      	ldr	r4, [r0, #24]
   ba814:	4b0a      	ldr	r3, [pc, #40]	; (ba840 <_ZN9TCPClientD1Ev+0x30>)
   ba816:	6003      	str	r3, [r0, #0]
   ba818:	4605      	mov	r5, r0
   ba81a:	b17c      	cbz	r4, ba83c <_ZN9TCPClientD1Ev+0x2c>
      if (--_M_use_count == 0)
   ba81c:	6863      	ldr	r3, [r4, #4]
   ba81e:	3b01      	subs	r3, #1
   ba820:	6063      	str	r3, [r4, #4]
   ba822:	b95b      	cbnz	r3, ba83c <_ZN9TCPClientD1Ev+0x2c>
          _M_dispose();
   ba824:	6823      	ldr	r3, [r4, #0]
   ba826:	4620      	mov	r0, r4
   ba828:	689b      	ldr	r3, [r3, #8]
   ba82a:	4798      	blx	r3
          if (--_M_weak_count == 0)
   ba82c:	68a3      	ldr	r3, [r4, #8]
   ba82e:	3b01      	subs	r3, #1
   ba830:	60a3      	str	r3, [r4, #8]
   ba832:	b91b      	cbnz	r3, ba83c <_ZN9TCPClientD1Ev+0x2c>
            _M_destroy();
   ba834:	6823      	ldr	r3, [r4, #0]
   ba836:	4620      	mov	r0, r4
   ba838:	68db      	ldr	r3, [r3, #12]
   ba83a:	4798      	blx	r3
   ba83c:	4628      	mov	r0, r5
   ba83e:	bd38      	pop	{r3, r4, r5, pc}
   ba840:	000beb08 	.word	0x000beb08

000ba844 <_ZN9TCPClientD0Ev>:
   ba844:	b510      	push	{r4, lr}
   ba846:	4604      	mov	r4, r0
   ba848:	f7ff ffe2 	bl	ba810 <_ZN9TCPClientD1Ev>
   ba84c:	4620      	mov	r0, r4
   ba84e:	211c      	movs	r1, #28
   ba850:	f7f9 fc27 	bl	b40a2 <_ZdlPvj>
   ba854:	4620      	mov	r0, r4
   ba856:	bd10      	pop	{r4, pc}

000ba858 <_ZN9IPAddressaSIPKhEERS_T_.isra.0>:
    IPAddress& operator=(T address) {
   ba858:	b530      	push	{r4, r5, lr}
   ba85a:	b087      	sub	sp, #28
   ba85c:	4604      	mov	r4, r0
class IPAddress : public Printable {
   ba85e:	ad01      	add	r5, sp, #4
        return *this = IPAddress(address);
   ba860:	4668      	mov	r0, sp
   ba862:	f7ff fc55 	bl	ba110 <_ZN9IPAddressC1EPKh>
class IPAddress : public Printable {
   ba866:	cd0f      	ldmia	r5!, {r0, r1, r2, r3}
   ba868:	3404      	adds	r4, #4
   ba86a:	c40f      	stmia	r4!, {r0, r1, r2, r3}
   ba86c:	682b      	ldr	r3, [r5, #0]
   ba86e:	7023      	strb	r3, [r4, #0]
    }
   ba870:	b007      	add	sp, #28
   ba872:	bd30      	pop	{r4, r5, pc}

000ba874 <_ZN9TCPClient8remoteIPEv>:

IPAddress TCPClient::remoteIP() {
   ba874:	b570      	push	{r4, r5, r6, lr}
      { return _M_ptr; }
   ba876:	694d      	ldr	r5, [r1, #20]
class IPAddress : public Printable {
   ba878:	4b05      	ldr	r3, [pc, #20]	; (ba890 <_ZN9TCPClient8remoteIPEv+0x1c>)
   ba87a:	4604      	mov	r4, r0
   ba87c:	358c      	adds	r5, #140	; 0x8c
   ba87e:	f844 3b04 	str.w	r3, [r4], #4
   ba882:	4606      	mov	r6, r0
   ba884:	cd0f      	ldmia	r5!, {r0, r1, r2, r3}
   ba886:	c40f      	stmia	r4!, {r0, r1, r2, r3}
   ba888:	682b      	ldr	r3, [r5, #0]
   ba88a:	7023      	strb	r3, [r4, #0]
    return d_->remoteIP;
}
   ba88c:	4630      	mov	r0, r6
   ba88e:	bd70      	pop	{r4, r5, r6, pc}
   ba890:	000bea80 	.word	0x000bea80

000ba894 <_ZN9TCPClient7connectEPKctm>:
int TCPClient::connect(const char* host, uint16_t port, network_interface_t nif) {
   ba894:	e92d 43f0 	stmdb	sp!, {r4, r5, r6, r7, r8, r9, lr}
   ba898:	4698      	mov	r8, r3
    stop();
   ba89a:	6803      	ldr	r3, [r0, #0]
int TCPClient::connect(const char* host, uint16_t port, network_interface_t nif) {
   ba89c:	b093      	sub	sp, #76	; 0x4c
   ba89e:	460d      	mov	r5, r1
    struct addrinfo* ais = nullptr;
   ba8a0:	2400      	movs	r4, #0
    stop();
   ba8a2:	6adb      	ldr	r3, [r3, #44]	; 0x2c
int TCPClient::connect(const char* host, uint16_t port, network_interface_t nif) {
   ba8a4:	4606      	mov	r6, r0
   ba8a6:	4617      	mov	r7, r2
    stop();
   ba8a8:	4798      	blx	r3
    CHECK_TRUE(netdb_getaddrinfo(host, nullptr, nullptr, &ais) == 0, 0); // return 0
   ba8aa:	4628      	mov	r0, r5
   ba8ac:	466b      	mov	r3, sp
   ba8ae:	4622      	mov	r2, r4
   ba8b0:	4621      	mov	r1, r4
    struct addrinfo* ais = nullptr;
   ba8b2:	9400      	str	r4, [sp, #0]
    CHECK_TRUE(netdb_getaddrinfo(host, nullptr, nullptr, &ais) == 0, 0); // return 0
   ba8b4:	f7fd ff9e 	bl	b87f4 <netdb_getaddrinfo>
   ba8b8:	4605      	mov	r5, r0
   ba8ba:	2800      	cmp	r0, #0
   ba8bc:	d163      	bne.n	ba986 <_ZN9TCPClient7connectEPKctm+0xf2>
    if (ais && ais->ai_addr) {
   ba8be:	9b00      	ldr	r3, [sp, #0]
   ba8c0:	2b00      	cmp	r3, #0
   ba8c2:	d04b      	beq.n	ba95c <_ZN9TCPClient7connectEPKctm+0xc8>
   ba8c4:	695b      	ldr	r3, [r3, #20]
   ba8c6:	2b00      	cmp	r3, #0
   ba8c8:	d048      	beq.n	ba95c <_ZN9TCPClient7connectEPKctm+0xc8>
        IPAddress addr;
   ba8ca:	a806      	add	r0, sp, #24
   ba8cc:	f7ff fbdc 	bl	ba088 <_ZN9IPAddressC1Ev>
        detail::sockaddrToIpAddressPort(ais->ai_addr, addr, nullptr);
   ba8d0:	9b00      	ldr	r3, [sp, #0]
   ba8d2:	695c      	ldr	r4, [r3, #20]
namespace spark {

namespace detail {

inline void sockaddrToIpAddressPort(const struct sockaddr* saddr, IPAddress& addr, uint16_t* port) {
    if (saddr->sa_family == AF_INET) {
   ba8d4:	7863      	ldrb	r3, [r4, #1]
   ba8d6:	2b02      	cmp	r3, #2
   ba8d8:	d104      	bne.n	ba8e4 <_ZN9TCPClient7connectEPKctm+0x50>
        const struct sockaddr_in* inaddr = (const struct sockaddr_in*)saddr;
        addr = (const uint8_t*)(&inaddr->sin_addr.s_addr);
   ba8da:	1d21      	adds	r1, r4, #4
            memcpy(a.ipv6, in6addr->sin6_addr.s6_addr, sizeof(a.ipv6));
            a.v = 6;
            addr = IPAddress(a);
        } else {
            auto ptr = (const uint32_t*)(in6addr->sin6_addr.s6_addr);
            addr = (const uint8_t*)(&ptr[3]);
   ba8dc:	a806      	add	r0, sp, #24
   ba8de:	f7ff ffbb 	bl	ba858 <_ZN9IPAddressaSIPKhEERS_T_.isra.0>
        }
        if (port) {
   ba8e2:	e026      	b.n	ba932 <_ZN9TCPClient7connectEPKctm+0x9e>
    else if (saddr->sa_family == AF_INET6) {
   ba8e4:	2b0a      	cmp	r3, #10
   ba8e6:	d124      	bne.n	ba932 <_ZN9TCPClient7connectEPKctm+0x9e>
        HAL_IPAddress a = {};
   ba8e8:	2211      	movs	r2, #17
   ba8ea:	4629      	mov	r1, r5
   ba8ec:	a801      	add	r0, sp, #4
   ba8ee:	f001 fc63 	bl	bc1b8 <memset>
        if (!IN6_IS_ADDR_V4MAPPED(&in6addr->sin6_addr)) {
   ba8f2:	68a3      	ldr	r3, [r4, #8]
   ba8f4:	2b00      	cmp	r3, #0
   ba8f6:	d038      	beq.n	ba96a <_ZN9TCPClient7connectEPKctm+0xd6>
            memcpy(a.ipv6, in6addr->sin6_addr.s6_addr, sizeof(a.ipv6));
   ba8f8:	f104 0308 	add.w	r3, r4, #8
   ba8fc:	f10d 0c04 	add.w	ip, sp, #4
   ba900:	3418      	adds	r4, #24
   ba902:	6818      	ldr	r0, [r3, #0]
   ba904:	6859      	ldr	r1, [r3, #4]
   ba906:	4662      	mov	r2, ip
   ba908:	c203      	stmia	r2!, {r0, r1}
   ba90a:	3308      	adds	r3, #8
   ba90c:	42a3      	cmp	r3, r4
   ba90e:	4694      	mov	ip, r2
   ba910:	d1f7      	bne.n	ba902 <_ZN9TCPClient7connectEPKctm+0x6e>
            a.v = 6;
   ba912:	2306      	movs	r3, #6
            addr = IPAddress(a);
   ba914:	a901      	add	r1, sp, #4
   ba916:	a80c      	add	r0, sp, #48	; 0x30
            a.v = 6;
   ba918:	f88d 3014 	strb.w	r3, [sp, #20]
            addr = IPAddress(a);
   ba91c:	f7ff fbc2 	bl	ba0a4 <_ZN9IPAddressC1ERK16_HAL_IPAddress_t>
   ba920:	f10d 0c34 	add.w	ip, sp, #52	; 0x34
   ba924:	e8bc 000f 	ldmia.w	ip!, {r0, r1, r2, r3}
   ba928:	ac07      	add	r4, sp, #28
   ba92a:	c40f      	stmia	r4!, {r0, r1, r2, r3}
   ba92c:	f8dc 3000 	ldr.w	r3, [ip]
   ba930:	7023      	strb	r3, [r4, #0]
        return static_cast<const IPAddress*>(this)->operator bool();
   ba932:	a806      	add	r0, sp, #24
   ba934:	f7ff fbc8 	bl	ba0c8 <_ZNK9IPAddresscvbEv>
        if (addr) {
   ba938:	b180      	cbz	r0, ba95c <_ZN9TCPClient7connectEPKctm+0xc8>
            return connect(addr, port, nif);
   ba93a:	6833      	ldr	r3, [r6, #0]
class IPAddress : public Printable {
   ba93c:	ad07      	add	r5, sp, #28
   ba93e:	f8d3 9020 	ldr.w	r9, [r3, #32]
   ba942:	4b12      	ldr	r3, [pc, #72]	; (ba98c <_ZN9TCPClient7connectEPKctm+0xf8>)
   ba944:	930c      	str	r3, [sp, #48]	; 0x30
   ba946:	cd0f      	ldmia	r5!, {r0, r1, r2, r3}
   ba948:	ac0d      	add	r4, sp, #52	; 0x34
   ba94a:	c40f      	stmia	r4!, {r0, r1, r2, r3}
   ba94c:	682b      	ldr	r3, [r5, #0]
   ba94e:	7023      	strb	r3, [r4, #0]
   ba950:	463a      	mov	r2, r7
   ba952:	4643      	mov	r3, r8
   ba954:	a90c      	add	r1, sp, #48	; 0x30
   ba956:	4630      	mov	r0, r6
   ba958:	47c8      	blx	r9
   ba95a:	4605      	mov	r5, r0
    SCOPE_GUARD({
   ba95c:	9800      	ldr	r0, [sp, #0]
   ba95e:	f7fd ff41 	bl	b87e4 <netdb_freeaddrinfo>
}
   ba962:	4628      	mov	r0, r5
   ba964:	b013      	add	sp, #76	; 0x4c
   ba966:	e8bd 83f0 	ldmia.w	sp!, {r4, r5, r6, r7, r8, r9, pc}
        if (!IN6_IS_ADDR_V4MAPPED(&in6addr->sin6_addr)) {
   ba96a:	68e3      	ldr	r3, [r4, #12]
   ba96c:	2b00      	cmp	r3, #0
   ba96e:	d1c3      	bne.n	ba8f8 <_ZN9TCPClient7connectEPKctm+0x64>
   ba970:	f64f 70ff 	movw	r0, #65535	; 0xffff
   ba974:	f8d4 9010 	ldr.w	r9, [r4, #16]
   ba978:	f7fd ff24 	bl	b87c4 <inet_htonl>
   ba97c:	4581      	cmp	r9, r0
   ba97e:	d1bb      	bne.n	ba8f8 <_ZN9TCPClient7connectEPKctm+0x64>
            addr = (const uint8_t*)(&ptr[3]);
   ba980:	f104 0114 	add.w	r1, r4, #20
   ba984:	e7aa      	b.n	ba8dc <_ZN9TCPClient7connectEPKctm+0x48>
    CHECK_TRUE(netdb_getaddrinfo(host, nullptr, nullptr, &ais) == 0, 0); // return 0
   ba986:	4625      	mov	r5, r4
   ba988:	e7e8      	b.n	ba95c <_ZN9TCPClient7connectEPKctm+0xc8>
   ba98a:	bf00      	nop
   ba98c:	000bea80 	.word	0x000bea80

000ba990 <_ZN9TCPClient9connectedEv>:
uint8_t TCPClient::connected() {
   ba990:	b538      	push	{r3, r4, r5, lr}
   ba992:	6943      	ldr	r3, [r0, #20]
    bool rv = (status() || bufferCount());
   ba994:	681a      	ldr	r2, [r3, #0]
   ba996:	2a00      	cmp	r2, #0
uint8_t TCPClient::connected() {
   ba998:	4605      	mov	r5, r0
    bool rv = (status() || bufferCount());
   ba99a:	da10      	bge.n	ba9be <_ZN9TCPClient9connectedEv+0x2e>
   ba99c:	f8b3 2086 	ldrh.w	r2, [r3, #134]	; 0x86
   ba9a0:	f8b3 3084 	ldrh.w	r3, [r3, #132]	; 0x84
   ba9a4:	429a      	cmp	r2, r3
   ba9a6:	d10a      	bne.n	ba9be <_ZN9TCPClient9connectedEv+0x2e>
        rv = available();
   ba9a8:	6803      	ldr	r3, [r0, #0]
   ba9aa:	691b      	ldr	r3, [r3, #16]
   ba9ac:	4798      	blx	r3
        if (!rv) {
   ba9ae:	4604      	mov	r4, r0
   ba9b0:	b928      	cbnz	r0, ba9be <_ZN9TCPClient9connectedEv+0x2e>
            stop();
   ba9b2:	682b      	ldr	r3, [r5, #0]
   ba9b4:	4628      	mov	r0, r5
   ba9b6:	6adb      	ldr	r3, [r3, #44]	; 0x2c
   ba9b8:	4798      	blx	r3
        rv = available();
   ba9ba:	4620      	mov	r0, r4
}
   ba9bc:	bd38      	pop	{r3, r4, r5, pc}
        rv = available();
   ba9be:	2001      	movs	r0, #1
   ba9c0:	e7fc      	b.n	ba9bc <_ZN9TCPClient9connectedEv+0x2c>

000ba9c2 <_ZN9TCPClient4peekEv>:
int TCPClient::peek() {
   ba9c2:	b510      	push	{r4, lr}
   ba9c4:	6943      	ldr	r3, [r0, #20]
    return (bufferCount() || available()) ? d_->buffer[d_->offset] : -1;
   ba9c6:	f8b3 2086 	ldrh.w	r2, [r3, #134]	; 0x86
   ba9ca:	f8b3 3084 	ldrh.w	r3, [r3, #132]	; 0x84
   ba9ce:	429a      	cmp	r2, r3
int TCPClient::peek() {
   ba9d0:	4604      	mov	r4, r0
    return (bufferCount() || available()) ? d_->buffer[d_->offset] : -1;
   ba9d2:	d005      	beq.n	ba9e0 <_ZN9TCPClient4peekEv+0x1e>
   ba9d4:	6963      	ldr	r3, [r4, #20]
   ba9d6:	f8b3 2084 	ldrh.w	r2, [r3, #132]	; 0x84
   ba9da:	4413      	add	r3, r2
   ba9dc:	7918      	ldrb	r0, [r3, #4]
}
   ba9de:	bd10      	pop	{r4, pc}
    return (bufferCount() || available()) ? d_->buffer[d_->offset] : -1;
   ba9e0:	6803      	ldr	r3, [r0, #0]
   ba9e2:	691b      	ldr	r3, [r3, #16]
   ba9e4:	4798      	blx	r3
   ba9e6:	2800      	cmp	r0, #0
   ba9e8:	d1f4      	bne.n	ba9d4 <_ZN9TCPClient4peekEv+0x12>
   ba9ea:	f04f 30ff 	mov.w	r0, #4294967295	; 0xffffffff
   ba9ee:	e7f6      	b.n	ba9de <_ZN9TCPClient4peekEv+0x1c>

000ba9f0 <_ZN9TCPClient4readEPhj>:
int TCPClient::read(uint8_t *buffer, size_t size) {
   ba9f0:	b5f8      	push	{r3, r4, r5, r6, r7, lr}
   ba9f2:	6943      	ldr	r3, [r0, #20]
   ba9f4:	4617      	mov	r7, r2
    if (bufferCount() || available()) {
   ba9f6:	f8b3 2086 	ldrh.w	r2, [r3, #134]	; 0x86
   ba9fa:	f8b3 3084 	ldrh.w	r3, [r3, #132]	; 0x84
   ba9fe:	429a      	cmp	r2, r3
int TCPClient::read(uint8_t *buffer, size_t size) {
   baa00:	4605      	mov	r5, r0
   baa02:	460e      	mov	r6, r1
    if (bufferCount() || available()) {
   baa04:	d016      	beq.n	baa34 <_ZN9TCPClient4readEPhj+0x44>
   baa06:	6969      	ldr	r1, [r5, #20]
    return d_->total - d_->offset;
   baa08:	f8b1 3084 	ldrh.w	r3, [r1, #132]	; 0x84
   baa0c:	f8b1 4086 	ldrh.w	r4, [r1, #134]	; 0x86
   baa10:	1ae4      	subs	r4, r4, r3
        read = (size > (size_t) bufferCount()) ? bufferCount() : size;
   baa12:	42bc      	cmp	r4, r7
   baa14:	bf28      	it	cs
   baa16:	463c      	movcs	r4, r7
        memcpy(buffer, &d_->buffer[d_->offset], read);
   baa18:	3304      	adds	r3, #4
   baa1a:	4622      	mov	r2, r4
   baa1c:	4419      	add	r1, r3
   baa1e:	4630      	mov	r0, r6
   baa20:	f001 fba2 	bl	bc168 <memcpy>
   baa24:	696a      	ldr	r2, [r5, #20]
        d_->offset += read;
   baa26:	f8b2 3084 	ldrh.w	r3, [r2, #132]	; 0x84
   baa2a:	4423      	add	r3, r4
   baa2c:	f8a2 3084 	strh.w	r3, [r2, #132]	; 0x84
}
   baa30:	4620      	mov	r0, r4
   baa32:	bdf8      	pop	{r3, r4, r5, r6, r7, pc}
    if (bufferCount() || available()) {
   baa34:	6803      	ldr	r3, [r0, #0]
   baa36:	691b      	ldr	r3, [r3, #16]
   baa38:	4798      	blx	r3
   baa3a:	2800      	cmp	r0, #0
   baa3c:	d1e3      	bne.n	baa06 <_ZN9TCPClient4readEPhj+0x16>
    int read = -1;
   baa3e:	f04f 34ff 	mov.w	r4, #4294967295	; 0xffffffff
   baa42:	e7f5      	b.n	baa30 <_ZN9TCPClient4readEPhj+0x40>

000baa44 <_ZN9TCPClient12flush_bufferEv>:
   baa44:	6942      	ldr	r2, [r0, #20]
    d_->offset = 0;
   baa46:	2300      	movs	r3, #0
   baa48:	f8a2 3084 	strh.w	r3, [r2, #132]	; 0x84
   baa4c:	6942      	ldr	r2, [r0, #20]
    d_->total = 0;
   baa4e:	f8a2 3086 	strh.w	r3, [r2, #134]	; 0x86
}
   baa52:	4770      	bx	lr

000baa54 <_ZN9TCPClient7connectE9IPAddresstm>:
int TCPClient::connect(IPAddress ip, uint16_t port, network_interface_t nif) {
   baa54:	e92d 41f0 	stmdb	sp!, {r4, r5, r6, r7, r8, lr}
   baa58:	461f      	mov	r7, r3
    stop();
   baa5a:	6803      	ldr	r3, [r0, #0]
int TCPClient::connect(IPAddress ip, uint16_t port, network_interface_t nif) {
   baa5c:	460c      	mov	r4, r1
    stop();
   baa5e:	6adb      	ldr	r3, [r3, #44]	; 0x2c
int TCPClient::connect(IPAddress ip, uint16_t port, network_interface_t nif) {
   baa60:	b08a      	sub	sp, #40	; 0x28
   baa62:	4605      	mov	r5, r0
   baa64:	4616      	mov	r6, r2
    stop();
   baa66:	4798      	blx	r3
    d_->sock = sock_socket(ip.version() == 4 ? AF_INET : AF_INET6, SOCK_STREAM, IPPROTO_TCP);
   baa68:	7d23      	ldrb	r3, [r4, #20]
   baa6a:	f8d5 8014 	ldr.w	r8, [r5, #20]
   baa6e:	2b04      	cmp	r3, #4
   baa70:	bf0c      	ite	eq
   baa72:	2002      	moveq	r0, #2
   baa74:	200a      	movne	r0, #10
   baa76:	2206      	movs	r2, #6
   baa78:	2101      	movs	r1, #1
   baa7a:	f7fd feeb 	bl	b8854 <sock_socket>
   baa7e:	f8c8 0000 	str.w	r0, [r8]
    CHECK_TRUE(d_->sock >= 0, 0); // return 0
   baa82:	696b      	ldr	r3, [r5, #20]
   baa84:	681b      	ldr	r3, [r3, #0]
   baa86:	2b00      	cmp	r3, #0
   baa88:	da08      	bge.n	baa9c <_ZN9TCPClient7connectE9IPAddresstm+0x48>
    NAMED_SCOPE_GUARD(done, {
   baa8a:	682b      	ldr	r3, [r5, #0]
   baa8c:	4628      	mov	r0, r5
   baa8e:	6adb      	ldr	r3, [r3, #44]	; 0x2c
        CHECK_TRUE(if_index_to_name(nif, ifr.ifr_name) == 0, 0); // return 0
   baa90:	2400      	movs	r4, #0
    NAMED_SCOPE_GUARD(done, {
   baa92:	4798      	blx	r3
}
   baa94:	4620      	mov	r0, r4
   baa96:	b00a      	add	sp, #40	; 0x28
   baa98:	e8bd 81f0 	ldmia.w	sp!, {r4, r5, r6, r7, r8, pc}
    flush_buffer();
   baa9c:	4628      	mov	r0, r5
   baa9e:	f7ff ffd1 	bl	baa44 <_ZN9TCPClient12flush_bufferEv>
    if (nif != 0) {
   baaa2:	b1b7      	cbz	r7, baad2 <_ZN9TCPClient7connectE9IPAddresstm+0x7e>
        struct ifreq ifr = {};
   baaa4:	2300      	movs	r3, #0
        CHECK_TRUE(if_index_to_name(nif, ifr.ifr_name) == 0, 0); // return 0
   baaa6:	a903      	add	r1, sp, #12
   baaa8:	b2f8      	uxtb	r0, r7
        struct ifreq ifr = {};
   baaaa:	9303      	str	r3, [sp, #12]
   baaac:	f8ad 3010 	strh.w	r3, [sp, #16]
        CHECK_TRUE(if_index_to_name(nif, ifr.ifr_name) == 0, 0); // return 0
   baab0:	f7fd fe78 	bl	b87a4 <if_index_to_name>
   baab4:	2800      	cmp	r0, #0
   baab6:	d1e8      	bne.n	baa8a <_ZN9TCPClient7connectE9IPAddresstm+0x36>
        CHECK_TRUE(sock_setsockopt(d_->sock, SOL_SOCKET, SO_BINDTODEVICE, &ifr, sizeof(ifr)) == 0, 0); // return 0
   baab8:	6968      	ldr	r0, [r5, #20]
   baaba:	2306      	movs	r3, #6
   baabc:	9300      	str	r3, [sp, #0]
   baabe:	6800      	ldr	r0, [r0, #0]
   baac0:	ab03      	add	r3, sp, #12
   baac2:	f241 020b 	movw	r2, #4107	; 0x100b
   baac6:	f640 71ff 	movw	r1, #4095	; 0xfff
   baaca:	f7fd fe9b 	bl	b8804 <sock_setsockopt>
   baace:	2800      	cmp	r0, #0
   baad0:	d1db      	bne.n	baa8a <_ZN9TCPClient7connectE9IPAddresstm+0x36>
    sockaddr_storage saddr = {};
   baad2:	221c      	movs	r2, #28
   baad4:	2100      	movs	r1, #0
   baad6:	a803      	add	r0, sp, #12
   baad8:	f001 fb6e 	bl	bc1b8 <memset>
    if (ip.version() == 4) {
   baadc:	7d23      	ldrb	r3, [r4, #20]
   baade:	2b04      	cmp	r3, #4
   baae0:	d11d      	bne.n	bab1e <_ZN9TCPClient7connectE9IPAddresstm+0xca>
        s->sin_len = sizeof(saddr);
   baae2:	f44f 7307 	mov.w	r3, #540	; 0x21c
        s->sin_port = htons(port);
   baae6:	4630      	mov	r0, r6
        s->sin_len = sizeof(saddr);
   baae8:	f8ad 300c 	strh.w	r3, [sp, #12]
        s->sin_port = htons(port);
   baaec:	f7fd fe72 	bl	b87d4 <inet_htons>
   baaf0:	f8ad 000e 	strh.w	r0, [sp, #14]
        s->sin_addr.s_addr = htonl(ip.raw().ipv4);
   baaf4:	6860      	ldr	r0, [r4, #4]
   baaf6:	f7fd fe65 	bl	b87c4 <inet_htonl>
   baafa:	9004      	str	r0, [sp, #16]
    CHECK_TRUE(sock_connect(d_->sock, (const sockaddr*)&saddr, sizeof(saddr)) == 0, 0); // return 0
   baafc:	696b      	ldr	r3, [r5, #20]
   baafe:	221c      	movs	r2, #28
   bab00:	6818      	ldr	r0, [r3, #0]
   bab02:	a903      	add	r1, sp, #12
   bab04:	f7fd fe8e 	bl	b8824 <sock_connect>
   bab08:	2800      	cmp	r0, #0
   bab0a:	d1be      	bne.n	baa8a <_ZN9TCPClient7connectE9IPAddresstm+0x36>
   bab0c:	3404      	adds	r4, #4
   bab0e:	cc0f      	ldmia	r4!, {r0, r1, r2, r3}
   bab10:	696d      	ldr	r5, [r5, #20]
   bab12:	358c      	adds	r5, #140	; 0x8c
   bab14:	c50f      	stmia	r5!, {r0, r1, r2, r3}
   bab16:	6823      	ldr	r3, [r4, #0]
   bab18:	702b      	strb	r3, [r5, #0]
    return 1; // success
   bab1a:	2401      	movs	r4, #1
   bab1c:	e7ba      	b.n	baa94 <_ZN9TCPClient7connectE9IPAddresstm+0x40>
        s->sin6_len = sizeof(saddr);
   bab1e:	f640 231c 	movw	r3, #2588	; 0xa1c
        s->sin6_port = htons(port);
   bab22:	4630      	mov	r0, r6
        s->sin6_len = sizeof(saddr);
   bab24:	f8ad 300c 	strh.w	r3, [sp, #12]
        s->sin6_port = htons(port);
   bab28:	f7fd fe54 	bl	b87d4 <inet_htons>
        memcpy(s->sin6_addr.s6_addr, ip.raw().ipv6, sizeof(s->sin6_addr.s6_addr));
   bab2c:	ae05      	add	r6, sp, #20
        s->sin6_port = htons(port);
   bab2e:	f8ad 000e 	strh.w	r0, [sp, #14]
        memcpy(s->sin6_addr.s6_addr, ip.raw().ipv6, sizeof(s->sin6_addr.s6_addr));
   bab32:	1d23      	adds	r3, r4, #4
   bab34:	f104 0714 	add.w	r7, r4, #20
   bab38:	6818      	ldr	r0, [r3, #0]
   bab3a:	6859      	ldr	r1, [r3, #4]
   bab3c:	4632      	mov	r2, r6
   bab3e:	c203      	stmia	r2!, {r0, r1}
   bab40:	3308      	adds	r3, #8
   bab42:	42bb      	cmp	r3, r7
   bab44:	4616      	mov	r6, r2
   bab46:	d1f7      	bne.n	bab38 <_ZN9TCPClient7connectE9IPAddresstm+0xe4>
   bab48:	e7d8      	b.n	baafc <_ZN9TCPClient7connectE9IPAddresstm+0xa8>
	...

000bab4c <_ZN9TCPClient9availableEv>:
{
   bab4c:	b530      	push	{r4, r5, lr}
   bab4e:	6942      	ldr	r2, [r0, #20]
    if (d_->total && (d_->offset == d_->total)) {
   bab50:	f8b2 3086 	ldrh.w	r3, [r2, #134]	; 0x86
{
   bab54:	b08b      	sub	sp, #44	; 0x2c
   bab56:	4604      	mov	r4, r0
    if (d_->total && (d_->offset == d_->total)) {
   bab58:	b12b      	cbz	r3, bab66 <_ZN9TCPClient9availableEv+0x1a>
   bab5a:	f8b2 2084 	ldrh.w	r2, [r2, #132]	; 0x84
   bab5e:	429a      	cmp	r2, r3
   bab60:	d101      	bne.n	bab66 <_ZN9TCPClient9availableEv+0x1a>
        flush_buffer();
   bab62:	f7ff ff6f 	bl	baa44 <_ZN9TCPClient12flush_bufferEv>
   bab66:	6961      	ldr	r1, [r4, #20]
    if (isOpen(d_->sock)) {
   bab68:	6808      	ldr	r0, [r1, #0]
   bab6a:	2800      	cmp	r0, #0
   bab6c:	db18      	blt.n	baba0 <_ZN9TCPClient9availableEv+0x54>
        if (d_->total < arraySize(d_->buffer)) {
   bab6e:	f8b1 5086 	ldrh.w	r5, [r1, #134]	; 0x86
   bab72:	2d7f      	cmp	r5, #127	; 0x7f
   bab74:	d814      	bhi.n	baba0 <_ZN9TCPClient9availableEv+0x54>
            int ret = sock_recv(d_->sock, d_->buffer + d_->total, arraySize(d_->buffer) - d_->total, MSG_DONTWAIT);
   bab76:	3104      	adds	r1, #4
   bab78:	2308      	movs	r3, #8
   bab7a:	f1c5 0280 	rsb	r2, r5, #128	; 0x80
   bab7e:	4429      	add	r1, r5
   bab80:	f7fd fe58 	bl	b8834 <sock_recv>
            if (ret > 0) {
   bab84:	2800      	cmp	r0, #0
   bab86:	dd13      	ble.n	babb0 <_ZN9TCPClient9availableEv+0x64>
   bab88:	6963      	ldr	r3, [r4, #20]
                if (d_->total == 0) {
   bab8a:	f8b3 2086 	ldrh.w	r2, [r3, #134]	; 0x86
   bab8e:	b90a      	cbnz	r2, bab94 <_ZN9TCPClient9availableEv+0x48>
                    d_->offset = 0;
   bab90:	f8a3 2084 	strh.w	r2, [r3, #132]	; 0x84
   bab94:	6963      	ldr	r3, [r4, #20]
                d_->total += ret;
   bab96:	f8b3 2086 	ldrh.w	r2, [r3, #134]	; 0x86
   bab9a:	4410      	add	r0, r2
   bab9c:	f8a3 0086 	strh.w	r0, [r3, #134]	; 0x86
   baba0:	6963      	ldr	r3, [r4, #20]
    return d_->total - d_->offset;
   baba2:	f8b3 0086 	ldrh.w	r0, [r3, #134]	; 0x86
   baba6:	f8b3 3084 	ldrh.w	r3, [r3, #132]	; 0x84
}
   babaa:	1ac0      	subs	r0, r0, r3
   babac:	b00b      	add	sp, #44	; 0x2c
   babae:	bd30      	pop	{r4, r5, pc}
                if (errno != EAGAIN && errno != EWOULDBLOCK) {
   babb0:	f7fd ffac 	bl	b8b0c <__errno>
   babb4:	6803      	ldr	r3, [r0, #0]
   babb6:	2b0b      	cmp	r3, #11
   babb8:	d0f2      	beq.n	baba0 <_ZN9TCPClient9availableEv+0x54>
   babba:	f7fd ffa7 	bl	b8b0c <__errno>
   babbe:	6803      	ldr	r3, [r0, #0]
   babc0:	2b0b      	cmp	r3, #11
   babc2:	d0ed      	beq.n	baba0 <_ZN9TCPClient9availableEv+0x54>
                    LOG(ERROR, "recv error = %d", errno);
   babc4:	2320      	movs	r3, #32
   babc6:	2500      	movs	r5, #0
   babc8:	e9cd 3502 	strd	r3, r5, [sp, #8]
   babcc:	f7fd ff9e 	bl	b8b0c <__errno>
   babd0:	6803      	ldr	r3, [r0, #0]
   babd2:	9301      	str	r3, [sp, #4]
   babd4:	4b08      	ldr	r3, [pc, #32]	; (babf8 <_ZN9TCPClient9availableEv+0xac>)
   babd6:	4909      	ldr	r1, [pc, #36]	; (babfc <_ZN9TCPClient9availableEv+0xb0>)
   babd8:	9300      	str	r3, [sp, #0]
   babda:	aa02      	add	r2, sp, #8
   babdc:	462b      	mov	r3, r5
   babde:	2032      	movs	r0, #50	; 0x32
   babe0:	f7fd feb8 	bl	b8954 <log_message>
                    sock_close(d_->sock);
   babe4:	6963      	ldr	r3, [r4, #20]
   babe6:	6818      	ldr	r0, [r3, #0]
   babe8:	f7fd fe14 	bl	b8814 <sock_close>
   babec:	6963      	ldr	r3, [r4, #20]
                    d_->sock = -1;
   babee:	f04f 32ff 	mov.w	r2, #4294967295	; 0xffffffff
   babf2:	601a      	str	r2, [r3, #0]
   babf4:	e7d4      	b.n	baba0 <_ZN9TCPClient9availableEv+0x54>
   babf6:	bf00      	nop
   babf8:	000bead3 	.word	0x000bead3
   babfc:	000beacc 	.word	0x000beacc

000bac00 <_ZN9TCPClient4stopEv>:
void TCPClient::stop() {
   bac00:	b510      	push	{r4, lr}
    if (isOpen(d_->sock)) {
   bac02:	6943      	ldr	r3, [r0, #20]
void TCPClient::stop() {
   bac04:	4604      	mov	r4, r0
    if (isOpen(d_->sock)) {
   bac06:	6818      	ldr	r0, [r3, #0]
   bac08:	2800      	cmp	r0, #0
   bac0a:	db01      	blt.n	bac10 <_ZN9TCPClient4stopEv+0x10>
        sock_close(d_->sock);
   bac0c:	f7fd fe02 	bl	b8814 <sock_close>
   bac10:	6963      	ldr	r3, [r4, #20]
    d_->sock = -1;
   bac12:	f04f 32ff 	mov.w	r2, #4294967295	; 0xffffffff
   bac16:	601a      	str	r2, [r3, #0]
    void clear() { memset(&address, 0, sizeof (address)); }
   bac18:	6960      	ldr	r0, [r4, #20]
   bac1a:	2211      	movs	r2, #17
   bac1c:	2100      	movs	r1, #0
   bac1e:	308c      	adds	r0, #140	; 0x8c
   bac20:	f001 faca 	bl	bc1b8 <memset>
    flush_buffer();
   bac24:	4620      	mov	r0, r4
}
   bac26:	e8bd 4010 	ldmia.w	sp!, {r4, lr}
    flush_buffer();
   bac2a:	f7ff bf0b 	b.w	baa44 <_ZN9TCPClient12flush_bufferEv>

000bac2e <_ZN9TCPClient4DataC1Ei>:

TCPClient::Data::Data(sock_handle_t sock)
   bac2e:	b510      	push	{r4, lr}
        : sock(sock),
          offset(0),
          total(0) {
   bac30:	2300      	movs	r3, #0
TCPClient::Data::Data(sock_handle_t sock)
   bac32:	4604      	mov	r4, r0
          total(0) {
   bac34:	6001      	str	r1, [r0, #0]
   bac36:	f8c0 3084 	str.w	r3, [r0, #132]	; 0x84
   bac3a:	3088      	adds	r0, #136	; 0x88
   bac3c:	f7ff fa24 	bl	ba088 <_ZN9IPAddressC1Ev>
}
   bac40:	4620      	mov	r0, r4
   bac42:	bd10      	pop	{r4, pc}

000bac44 <_ZN9TCPClientC1Ei>:
TCPClient::TCPClient(sock_handle_t sock)
   bac44:	b573      	push	{r0, r1, r4, r5, r6, lr}
   bac46:	2300      	movs	r3, #0
   bac48:	f44f 727a 	mov.w	r2, #1000	; 0x3e8
   bac4c:	e9c0 3201 	strd	r3, r2, [r0, #4]
        : d_(std::make_shared<Data>(sock)) {
   bac50:	4a0e      	ldr	r2, [pc, #56]	; (bac8c <_ZN9TCPClientC1Ei+0x48>)
#include "system_network.h"
#include "spark_wiring_print.h"
#include "spark_wiring_stream.h"
#include "spark_wiring_ipaddress.h"

class Client : public Stream {
   bac52:	6103      	str	r3, [r0, #16]
   bac54:	6002      	str	r2, [r0, #0]
	: _M_ptr(), _M_refcount(_M_ptr, __tag, std::forward<_Args>(__args)...)
   bac56:	6143      	str	r3, [r0, #20]
TCPClient::TCPClient(sock_handle_t sock)
   bac58:	4604      	mov	r4, r0
	return static_cast<_Tp*>(::operator new(__n * sizeof(_Tp)));
   bac5a:	20ac      	movs	r0, #172	; 0xac
   bac5c:	9101      	str	r1, [sp, #4]
   bac5e:	f7f9 fa1a 	bl	b4096 <_Znwj>
	  auto __pi = ::new (__mem)
   bac62:	1e05      	subs	r5, r0, #0
   bac64:	f105 060c 	add.w	r6, r5, #12
   bac68:	d008      	beq.n	bac7c <_ZN9TCPClientC1Ei+0x38>
      : _M_use_count(1), _M_weak_count(1) { }
   bac6a:	2301      	movs	r3, #1
   bac6c:	e9c5 3301 	strd	r3, r3, [r5, #4]
	: _M_impl(__a)
   bac70:	4b07      	ldr	r3, [pc, #28]	; (bac90 <_ZN9TCPClientC1Ei+0x4c>)
#if __cplusplus >= 201103L
      template<typename _Up, typename... _Args>
	void
	construct(_Up* __p, _Args&&... __args)
	noexcept(std::is_nothrow_constructible<_Up, _Args...>::value)
	{ ::new((void *)__p) _Up(std::forward<_Args>(__args)...); }
   bac72:	9901      	ldr	r1, [sp, #4]
   bac74:	602b      	str	r3, [r5, #0]
   bac76:	4630      	mov	r0, r6
   bac78:	f7ff ffd9 	bl	bac2e <_ZN9TCPClient4DataC1Ei>
    flush_buffer();
   bac7c:	4620      	mov	r0, r4
	  __p = __pi->_M_ptr();
   bac7e:	e9c4 6505 	strd	r6, r5, [r4, #20]
   bac82:	f7ff fedf 	bl	baa44 <_ZN9TCPClient12flush_bufferEv>
}
   bac86:	b002      	add	sp, #8
   bac88:	bd70      	pop	{r4, r5, r6, pc}
   bac8a:	bf00      	nop
   bac8c:	000beb08 	.word	0x000beb08
   bac90:	000beaec 	.word	0x000beaec

000bac94 <_ZN9TCPClientC1Ev>:
TCPClient::TCPClient()
   bac94:	b510      	push	{r4, lr}
        : TCPClient(-1) {
   bac96:	f04f 31ff 	mov.w	r1, #4294967295	; 0xffffffff
TCPClient::TCPClient()
   bac9a:	4604      	mov	r4, r0
        : TCPClient(-1) {
   bac9c:	f7ff ffd2 	bl	bac44 <_ZN9TCPClientC1Ei>
}
   baca0:	4620      	mov	r0, r4
   baca2:	bd10      	pop	{r4, pc}

000baca4 <_ZN9TCPClient4DataD1Ev>:

TCPClient::Data::~Data() {
   baca4:	b510      	push	{r4, lr}
   baca6:	4604      	mov	r4, r0
    if (socket_handle_valid(sock)) {
   baca8:	6800      	ldr	r0, [r0, #0]
   bacaa:	2800      	cmp	r0, #0
   bacac:	db01      	blt.n	bacb2 <_ZN9TCPClient4DataD1Ev+0xe>
        sock_close(sock);
   bacae:	f7fd fdb1 	bl	b8814 <sock_close>
    }
}
   bacb2:	4620      	mov	r0, r4
   bacb4:	bd10      	pop	{r4, pc}

000bacb6 <_ZNSt23_Sp_counted_ptr_inplaceIN9TCPClient4DataESaIS1_ELN9__gnu_cxx12_Lock_policyE0EE10_M_disposeEv>:

      template<typename _Up>
	void
	destroy(_Up* __p)
	noexcept(std::is_nothrow_destructible<_Up>::value)
	{ __p->~_Up(); }
   bacb6:	300c      	adds	r0, #12
   bacb8:	f7ff bff4 	b.w	baca4 <_ZN9TCPClient4DataD1Ev>

000bacbc <_GLOBAL__sub_I_TIME_FORMAT_DEFAULT>:
            calendar_time_cache = Convert_UnixTime_To_CalendarTime(unix_time);
            unix_time_cache = unix_time;
    }
}

const char* TimeClass::format_spec = TIME_FORMAT_DEFAULT;
   bacbc:	4b02      	ldr	r3, [pc, #8]	; (bacc8 <_GLOBAL__sub_I_TIME_FORMAT_DEFAULT+0xc>)
   bacbe:	681a      	ldr	r2, [r3, #0]
   bacc0:	4b02      	ldr	r3, [pc, #8]	; (baccc <_GLOBAL__sub_I_TIME_FORMAT_DEFAULT+0x10>)
   bacc2:	601a      	str	r2, [r3, #0]
{
  return isValid();
}


TimeClass Time;
   bacc4:	4770      	bx	lr
   bacc6:	bf00      	nop
   bacc8:	200350c0 	.word	0x200350c0
   baccc:	2003e6fc 	.word	0x2003e6fc

000bacd0 <_ZN11USARTSerialD1Ev>:
private:
  hal_usart_interface_t _serial;
  bool _blocking;
public:
  USARTSerial(hal_usart_interface_t serial, const hal_usart_buffer_config_t& config);
  virtual ~USARTSerial() {};
   bacd0:	4770      	bx	lr

000bacd2 <_ZN11USARTSerial14blockOnOverrunEb>:
    hal_usart_half_duplex(_serial, Enable);
}

void USARTSerial::blockOnOverrun(bool block)
{
  _blocking = block;
   bacd2:	7441      	strb	r1, [r0, #17]
}
   bacd4:	4770      	bx	lr

000bacd6 <_ZN11USARTSerial17availableForWriteEv>:


int USARTSerial::availableForWrite(void)
{
   bacd6:	b508      	push	{r3, lr}
  return std::max(0, (int)hal_usart_available_data_for_write(_serial));
   bacd8:	7c00      	ldrb	r0, [r0, #16]
   bacda:	f7fd fdeb 	bl	b88b4 <hal_usart_available_data_for_write>
}
   bacde:	ea20 70e0 	bic.w	r0, r0, r0, asr #31
   bace2:	bd08      	pop	{r3, pc}

000bace4 <_ZN11USARTSerial9availableEv>:

int USARTSerial::available(void)
{
   bace4:	b508      	push	{r3, lr}
  return std::max(0, (int)hal_usart_available(_serial));
   bace6:	7c00      	ldrb	r0, [r0, #16]
   bace8:	f7fd fdc4 	bl	b8874 <hal_usart_available>
}
   bacec:	ea20 70e0 	bic.w	r0, r0, r0, asr #31
   bacf0:	bd08      	pop	{r3, pc}

000bacf2 <_ZN11USARTSerial4peekEv>:

int USARTSerial::peek(void)
{
   bacf2:	b508      	push	{r3, lr}
  return std::max(-1, (int)hal_usart_peek(_serial));
   bacf4:	7c00      	ldrb	r0, [r0, #16]
   bacf6:	f7fd fdcd 	bl	b8894 <hal_usart_peek>
}
   bacfa:	ea40 70e0 	orr.w	r0, r0, r0, asr #31
   bacfe:	bd08      	pop	{r3, pc}

000bad00 <_ZN11USARTSerial4readEv>:

int USARTSerial::read(void)
{
   bad00:	b508      	push	{r3, lr}
  return std::max(-1, (int)hal_usart_read(_serial));
   bad02:	7c00      	ldrb	r0, [r0, #16]
   bad04:	f7fd fdbe 	bl	b8884 <hal_usart_read>
}
   bad08:	ea40 70e0 	orr.w	r0, r0, r0, asr #31
   bad0c:	bd08      	pop	{r3, pc}

000bad0e <_ZN11USARTSerial5flushEv>:

void USARTSerial::flush()
{
  hal_usart_flush(_serial);
   bad0e:	7c00      	ldrb	r0, [r0, #16]
   bad10:	f7fd bdc8 	b.w	b88a4 <hal_usart_flush>

000bad14 <_ZN11USARTSerial5writeEh>:
}

size_t USARTSerial::write(uint8_t c)
{
   bad14:	b537      	push	{r0, r1, r2, r4, r5, lr}
  // attempt a write if blocking, or for non-blocking if there is room.
  if (_blocking || hal_usart_available_data_for_write(_serial) > 0) {
   bad16:	7c45      	ldrb	r5, [r0, #17]
{
   bad18:	4604      	mov	r4, r0
  if (_blocking || hal_usart_available_data_for_write(_serial) > 0) {
   bad1a:	b12d      	cbz	r5, bad28 <_ZN11USARTSerial5writeEh+0x14>
    // the HAL always blocks.
	  return hal_usart_write(_serial, c);
   bad1c:	7c20      	ldrb	r0, [r4, #16]
  }
  return 0;
}
   bad1e:	b003      	add	sp, #12
   bad20:	e8bd 4030 	ldmia.w	sp!, {r4, r5, lr}
	  return hal_usart_write(_serial, c);
   bad24:	f7fd bd9e 	b.w	b8864 <hal_usart_write>
  if (_blocking || hal_usart_available_data_for_write(_serial) > 0) {
   bad28:	7c00      	ldrb	r0, [r0, #16]
   bad2a:	9101      	str	r1, [sp, #4]
   bad2c:	f7fd fdc2 	bl	b88b4 <hal_usart_available_data_for_write>
   bad30:	2800      	cmp	r0, #0
   bad32:	9901      	ldr	r1, [sp, #4]
   bad34:	dcf2      	bgt.n	bad1c <_ZN11USARTSerial5writeEh+0x8>
}
   bad36:	4628      	mov	r0, r5
   bad38:	b003      	add	sp, #12
   bad3a:	bd30      	pop	{r4, r5, pc}

000bad3c <_ZN11USARTSerialD0Ev>:
   bad3c:	b510      	push	{r4, lr}
   bad3e:	2114      	movs	r1, #20
   bad40:	4604      	mov	r4, r0
   bad42:	f7f9 f9ae 	bl	b40a2 <_ZdlPvj>
   bad46:	4620      	mov	r0, r4
   bad48:	bd10      	pop	{r4, pc}
	...

000bad4c <_ZN11USARTSerialC1E21hal_usart_interface_tRK25hal_usart_buffer_config_t>:
USARTSerial::USARTSerial(hal_usart_interface_t serial, const hal_usart_buffer_config_t& config)
   bad4c:	b510      	push	{r4, lr}
   bad4e:	f44f 737a 	mov.w	r3, #1000	; 0x3e8
   bad52:	4604      	mov	r4, r0
   bad54:	4608      	mov	r0, r1
   bad56:	4611      	mov	r1, r2
   bad58:	2200      	movs	r2, #0
   bad5a:	e9c4 2301 	strd	r2, r3, [r4, #4]
   bad5e:	4b04      	ldr	r3, [pc, #16]	; (bad70 <_ZN11USARTSerialC1E21hal_usart_interface_tRK25hal_usart_buffer_config_t+0x24>)
   bad60:	6023      	str	r3, [r4, #0]
  _blocking = true;
   bad62:	2301      	movs	r3, #1
  _serial = serial;
   bad64:	7420      	strb	r0, [r4, #16]
  _blocking = true;
   bad66:	7463      	strb	r3, [r4, #17]
  hal_usart_init_ex(serial, &config, nullptr);
   bad68:	f7fd fdac 	bl	b88c4 <hal_usart_init_ex>
}
   bad6c:	4620      	mov	r0, r4
   bad6e:	bd10      	pop	{r4, pc}
   bad70:	000beb70 	.word	0x000beb70

000bad74 <_ZN9USBSerial14blockOnOverrunEb>:
  HAL_USB_USART_Flush_Data(_serial);
}

void USBSerial::blockOnOverrun(bool block)
{
  _blocking = block;
   bad74:	7441      	strb	r1, [r0, #17]
}
   bad76:	4770      	bx	lr

000bad78 <__tcf_0>:
}

USBSerial& _fetch_usbserial()
{
  HAL_USB_USART_Config conf = acquireSerialBuffer();
	static USBSerial _usbserial(HAL_USB_USART_SERIAL, conf);
   bad78:	4770      	bx	lr

000bad7a <_ZN9USBSerialD1Ev>:
#include "usb_hal.h"
#include "system_task.h"
#include "spark_wiring_startup.h"
#include "concurrent_hal.h"

class USBSerial : public Stream
   bad7a:	4770      	bx	lr

000bad7c <_ZN9USBSerial4readEv>:
{
   bad7c:	b508      	push	{r3, lr}
	return std::max(-1, (int)HAL_USB_USART_Receive_Data(_serial, false));
   bad7e:	2100      	movs	r1, #0
   bad80:	7c00      	ldrb	r0, [r0, #16]
   bad82:	f7fd fdc7 	bl	b8914 <HAL_USB_USART_Receive_Data>
}
   bad86:	ea40 70e0 	orr.w	r0, r0, r0, asr #31
   bad8a:	bd08      	pop	{r3, pc}

000bad8c <_ZN9USBSerial4peekEv>:
{
   bad8c:	b508      	push	{r3, lr}
	return std::max(-1, (int)HAL_USB_USART_Receive_Data(_serial, true));
   bad8e:	2101      	movs	r1, #1
   bad90:	7c00      	ldrb	r0, [r0, #16]
   bad92:	f7fd fdbf 	bl	b8914 <HAL_USB_USART_Receive_Data>
}
   bad96:	ea40 70e0 	orr.w	r0, r0, r0, asr #31
   bad9a:	bd08      	pop	{r3, pc}

000bad9c <_ZN9USBSerial17availableForWriteEv>:
{
   bad9c:	b508      	push	{r3, lr}
  return std::max(0, (int)HAL_USB_USART_Available_Data_For_Write(_serial));
   bad9e:	7c00      	ldrb	r0, [r0, #16]
   bada0:	f7fd fdb0 	bl	b8904 <HAL_USB_USART_Available_Data_For_Write>
}
   bada4:	ea20 70e0 	bic.w	r0, r0, r0, asr #31
   bada8:	bd08      	pop	{r3, pc}

000badaa <_ZN9USBSerial9availableEv>:
{
   badaa:	b508      	push	{r3, lr}
	return std::max(0, (int)HAL_USB_USART_Available_Data(_serial));
   badac:	7c00      	ldrb	r0, [r0, #16]
   badae:	f7fd fda1 	bl	b88f4 <HAL_USB_USART_Available_Data>
}
   badb2:	ea20 70e0 	bic.w	r0, r0, r0, asr #31
   badb6:	bd08      	pop	{r3, pc}

000badb8 <_ZN9USBSerial5writeEh>:
{
   badb8:	b513      	push	{r0, r1, r4, lr}
   badba:	4604      	mov	r4, r0
  if (HAL_USB_USART_Available_Data_For_Write(_serial) > 0 || _blocking) {
   badbc:	7c00      	ldrb	r0, [r0, #16]
{
   badbe:	9101      	str	r1, [sp, #4]
  if (HAL_USB_USART_Available_Data_For_Write(_serial) > 0 || _blocking) {
   badc0:	f7fd fda0 	bl	b8904 <HAL_USB_USART_Available_Data_For_Write>
   badc4:	2800      	cmp	r0, #0
   badc6:	9901      	ldr	r1, [sp, #4]
   badc8:	dc01      	bgt.n	badce <_ZN9USBSerial5writeEh+0x16>
   badca:	7c60      	ldrb	r0, [r4, #17]
   badcc:	b120      	cbz	r0, badd8 <_ZN9USBSerial5writeEh+0x20>
    return std::max(0, (int)HAL_USB_USART_Send_Data(_serial, byte));
   badce:	7c20      	ldrb	r0, [r4, #16]
   badd0:	f7fd fda8 	bl	b8924 <HAL_USB_USART_Send_Data>
   badd4:	ea20 70e0 	bic.w	r0, r0, r0, asr #31
}
   badd8:	b002      	add	sp, #8
   badda:	bd10      	pop	{r4, pc}

000baddc <_ZN9USBSerial5flushEv>:
  HAL_USB_USART_Flush_Data(_serial);
   baddc:	7c00      	ldrb	r0, [r0, #16]
   badde:	f7fd bda9 	b.w	b8934 <HAL_USB_USART_Flush_Data>

000bade2 <_ZN9USBSerialD0Ev>:
   bade2:	b510      	push	{r4, lr}
   bade4:	2114      	movs	r1, #20
   bade6:	4604      	mov	r4, r0
   bade8:	f7f9 f95b 	bl	b40a2 <_ZdlPvj>
   badec:	4620      	mov	r0, r4
   badee:	bd10      	pop	{r4, pc}

000badf0 <_ZN9USBSerialC1E20HAL_USB_USART_SerialRK20HAL_USB_USART_Config>:
USBSerial::USBSerial(HAL_USB_USART_Serial serial, const HAL_USB_USART_Config& conf)
   badf0:	b510      	push	{r4, lr}
   badf2:	f44f 737a 	mov.w	r3, #1000	; 0x3e8
   badf6:	4604      	mov	r4, r0
   badf8:	4608      	mov	r0, r1
   badfa:	2100      	movs	r1, #0
   badfc:	e9c4 1301 	strd	r1, r3, [r4, #4]
   bae00:	4b04      	ldr	r3, [pc, #16]	; (bae14 <_ZN9USBSerialC1E20HAL_USB_USART_SerialRK20HAL_USB_USART_Config+0x24>)
   bae02:	6023      	str	r3, [r4, #0]
  _blocking = true;
   bae04:	2301      	movs	r3, #1
  _serial = serial;
   bae06:	7420      	strb	r0, [r4, #16]
  _blocking = true;
   bae08:	7463      	strb	r3, [r4, #17]
  HAL_USB_USART_Init(_serial, &conf);
   bae0a:	4611      	mov	r1, r2
   bae0c:	f7fd fd62 	bl	b88d4 <HAL_USB_USART_Init>
}
   bae10:	4620      	mov	r0, r4
   bae12:	bd10      	pop	{r4, pc}
   bae14:	000beba0 	.word	0x000beba0

000bae18 <_ZN9USBSerial5beginEl>:
    HAL_USB_USART_Begin(_serial, speed, NULL);
   bae18:	7c00      	ldrb	r0, [r0, #16]
   bae1a:	2200      	movs	r2, #0
   bae1c:	f7fd bd62 	b.w	b88e4 <HAL_USB_USART_Begin>

000bae20 <_Z19acquireSerialBufferv>:
{
   bae20:	b510      	push	{r4, lr}
  HAL_USB_USART_Config conf = {};
   bae22:	2214      	movs	r2, #20
{
   bae24:	4604      	mov	r4, r0
  HAL_USB_USART_Config conf = {};
   bae26:	2100      	movs	r1, #0
   bae28:	f001 f9c6 	bl	bc1b8 <memset>
}
   bae2c:	4620      	mov	r0, r4
   bae2e:	bd10      	pop	{r4, pc}

000bae30 <_Z16_fetch_usbserialv>:
{
   bae30:	b510      	push	{r4, lr}
	static USBSerial _usbserial(HAL_USB_USART_SERIAL, conf);
   bae32:	4c0f      	ldr	r4, [pc, #60]	; (bae70 <_Z16_fetch_usbserialv+0x40>)
{
   bae34:	b088      	sub	sp, #32
  HAL_USB_USART_Config conf = acquireSerialBuffer();
   bae36:	a803      	add	r0, sp, #12
   bae38:	f7ff fff2 	bl	bae20 <_Z19acquireSerialBufferv>
	static USBSerial _usbserial(HAL_USB_USART_SERIAL, conf);
   bae3c:	7821      	ldrb	r1, [r4, #0]
   bae3e:	f3bf 8f5b 	dmb	ish
   bae42:	f011 0101 	ands.w	r1, r1, #1
   bae46:	d10f      	bne.n	bae68 <_Z16_fetch_usbserialv+0x38>
   bae48:	4620      	mov	r0, r4
   bae4a:	9101      	str	r1, [sp, #4]
   bae4c:	f7f9 f92b 	bl	b40a6 <__cxa_guard_acquire>
   bae50:	9901      	ldr	r1, [sp, #4]
   bae52:	b148      	cbz	r0, bae68 <_Z16_fetch_usbserialv+0x38>
   bae54:	aa03      	add	r2, sp, #12
   bae56:	4807      	ldr	r0, [pc, #28]	; (bae74 <_Z16_fetch_usbserialv+0x44>)
   bae58:	f7ff ffca 	bl	badf0 <_ZN9USBSerialC1E20HAL_USB_USART_SerialRK20HAL_USB_USART_Config>
   bae5c:	4620      	mov	r0, r4
   bae5e:	f7f9 f927 	bl	b40b0 <__cxa_guard_release>
   bae62:	4805      	ldr	r0, [pc, #20]	; (bae78 <_Z16_fetch_usbserialv+0x48>)
   bae64:	f001 f966 	bl	bc134 <atexit>
	return _usbserial;
}
   bae68:	4802      	ldr	r0, [pc, #8]	; (bae74 <_Z16_fetch_usbserialv+0x44>)
   bae6a:	b008      	add	sp, #32
   bae6c:	bd10      	pop	{r4, pc}
   bae6e:	bf00      	nop
   bae70:	2003e700 	.word	0x2003e700
   bae74:	2003e704 	.word	0x2003e704
   bae78:	000bad79 	.word	0x000bad79

000bae7c <_ZN5spark9WiFiClass5readyEv>:
    bool connecting(void) {
        return network_connecting(*this, 0, NULL);
    }

    bool ready(void) {
        return network_ready(*this, 0, NULL);
   bae7c:	2200      	movs	r2, #0
   bae7e:	6840      	ldr	r0, [r0, #4]
   bae80:	4611      	mov	r1, r2
   bae82:	f7fd bdb3 	b.w	b89ec <network_ready>

000bae86 <_ZN5spark9WiFiClass9listeningEv>:
    uint16_t getListenTimeout(void) {
        return network_get_listen_timeout(*this, 0, NULL);
    }

    bool listening(void) {
        return network_listening(*this, 0, NULL);
   bae86:	2200      	movs	r2, #0
   bae88:	6840      	ldr	r0, [r0, #4]
   bae8a:	4611      	mov	r1, r2
   bae8c:	f7fd bdce 	b.w	b8a2c <network_listening>

000bae90 <_ZN5spark9WiFiClass16getListenTimeoutEv>:
        return network_get_listen_timeout(*this, 0, NULL);
   bae90:	2200      	movs	r2, #0
   bae92:	6840      	ldr	r0, [r0, #4]
   bae94:	4611      	mov	r1, r2
   bae96:	f7fd bde9 	b.w	b8a6c <network_get_listen_timeout>

000bae9a <_ZN5spark9WiFiClass16setListenTimeoutEt>:
        network_set_listen_timeout(*this, timeout, NULL);
   bae9a:	6840      	ldr	r0, [r0, #4]
   bae9c:	2200      	movs	r2, #0
   bae9e:	f7fd bddd 	b.w	b8a5c <network_set_listen_timeout>

000baea2 <_ZN5spark9WiFiClass6listenEb>:
        network_listen(*this, begin ? 0 : 1, NULL);
   baea2:	6840      	ldr	r0, [r0, #4]
   baea4:	2200      	movs	r2, #0
   baea6:	f081 0101 	eor.w	r1, r1, #1
   baeaa:	f7fd bdb7 	b.w	b8a1c <network_listen>

000baeae <_ZN5spark9WiFiClass3offEv>:
        network_off(*this, 0, 0, NULL);
   baeae:	2300      	movs	r3, #0
   baeb0:	6840      	ldr	r0, [r0, #4]
   baeb2:	461a      	mov	r2, r3
   baeb4:	4619      	mov	r1, r3
   baeb6:	f7fd bda9 	b.w	b8a0c <network_off>

000baeba <_ZN5spark9WiFiClass2onEv>:
        network_on(*this, 0, 0, NULL);
   baeba:	2300      	movs	r3, #0
   baebc:	6840      	ldr	r0, [r0, #4]
   baebe:	461a      	mov	r2, r3
   baec0:	4619      	mov	r1, r3
   baec2:	f7fd bd9b 	b.w	b89fc <network_on>

000baec6 <_ZN5spark9WiFiClass10connectingEv>:
        return network_connecting(*this, 0, NULL);
   baec6:	2200      	movs	r2, #0
   baec8:	6840      	ldr	r0, [r0, #4]
   baeca:	4611      	mov	r1, r2
   baecc:	f7fd bd7e 	b.w	b89cc <network_connecting>

000baed0 <_ZN5spark9WiFiClass10disconnectEv>:
        network_disconnect(*this, NETWORK_DISCONNECT_REASON_USER, NULL);
   baed0:	6840      	ldr	r0, [r0, #4]
   baed2:	2200      	movs	r2, #0
   baed4:	2102      	movs	r1, #2
   baed6:	f7fd bd81 	b.w	b89dc <network_disconnect>

000baeda <_ZN5spark9WiFiClass7connectEj>:
        network_connect(*this, flags, 0, NULL);
   baeda:	2300      	movs	r3, #0
   baedc:	6840      	ldr	r0, [r0, #4]
   baede:	461a      	mov	r2, r3
   baee0:	f7fd bd6c 	b.w	b89bc <network_connect>

000baee4 <_GLOBAL__sub_I__ZN10WiFiSignalC2ERK21wlan_connected_info_t>:
   baee4:	4b02      	ldr	r3, [pc, #8]	; (baef0 <_GLOBAL__sub_I__ZN10WiFiSignalC2ERK21wlan_connected_info_t+0xc>)
   baee6:	2204      	movs	r2, #4
   baee8:	605a      	str	r2, [r3, #4]
            NetworkClass(NETWORK_INTERFACE_WIFI_STA) {
   baeea:	4a02      	ldr	r2, [pc, #8]	; (baef4 <_GLOBAL__sub_I__ZN10WiFiSignalC2ERK21wlan_connected_info_t+0x10>)
   baeec:	601a      	str	r2, [r3, #0]
the same way.
*****************************************************************************/

    WiFiClass WiFi;
    // NetworkClass& Network = WiFi;
}
   baeee:	4770      	bx	lr
   baef0:	2003e718 	.word	0x2003e718
   baef4:	000bebd0 	.word	0x000bebd0

000baef8 <_Z11str_reversePc>:

//------------------------------------------------------------------------------------------
#define BUFSIZE (sizeof(long) * 8 + 1)

//utility function used by ultoa()
__attribute__((weak)) void str_reverse(char* buffer){
   baef8:	b510      	push	{r4, lr}
   baefa:	4604      	mov	r4, r0
	char *i, *j;
	char c;
	i=buffer;
	j=buffer + strlen(buffer)-1;
   baefc:	f001 f9a4 	bl	bc248 <strlen>
   baf00:	3801      	subs	r0, #1
   baf02:	1823      	adds	r3, r4, r0
   baf04:	4620      	mov	r0, r4
	while(i<j){
   baf06:	4283      	cmp	r3, r0
   baf08:	d906      	bls.n	baf18 <_Z11str_reversePc+0x20>
		c = *i;
   baf0a:	7802      	ldrb	r2, [r0, #0]
		*i = *j;
   baf0c:	7819      	ldrb	r1, [r3, #0]
   baf0e:	f800 1b01 	strb.w	r1, [r0], #1
		*j = c;
   baf12:	f803 2901 	strb.w	r2, [r3], #-1
	while(i<j){
   baf16:	e7f6      	b.n	baf06 <_Z11str_reversePc+0xe>
		++i;
		--j;
	}
}
   baf18:	bd10      	pop	{r4, pc}

000baf1a <ultoa>:
      memcpy(head, ++tail, i);
      return str;
}

//convert unsigned long to string
__attribute__((weak)) char* ultoa(unsigned long a, char* buffer, int radix, char pad){
   baf1a:	b570      	push	{r4, r5, r6, lr}
   baf1c:	460c      	mov	r4, r1
	if(radix<2 || radix>36){
   baf1e:	1e91      	subs	r1, r2, #2
   baf20:	2922      	cmp	r1, #34	; 0x22
   baf22:	d81d      	bhi.n	baf60 <ultoa+0x46>
		return NULL;
	}
	char* ptr=buffer;
   baf24:	4625      	mov	r5, r4

	div_t result;
	while(a){
   baf26:	b930      	cbnz	r0, baf36 <ultoa+0x1c>
                *ptr += 'a'-10;
            }
            ++ptr;
            a = result.quot;
	}
        while (ptr < buffer+pad)
   baf28:	4423      	add	r3, r4
            *ptr++ = '0';
   baf2a:	2230      	movs	r2, #48	; 0x30
        while (ptr < buffer+pad)
   baf2c:	429d      	cmp	r5, r3
   baf2e:	d210      	bcs.n	baf52 <ultoa+0x38>
            *ptr++ = '0';
   baf30:	f805 2b01 	strb.w	r2, [r5], #1
        while (ptr < buffer+pad)
   baf34:	e7fa      	b.n	baf2c <ultoa+0x12>
            result.quot = a/radix;
   baf36:	fbb0 f6f2 	udiv	r6, r0, r2
            result.rem = a%radix;
   baf3a:	fb02 0016 	mls	r0, r2, r6, r0
            *ptr = result.rem;
   baf3e:	b2c1      	uxtb	r1, r0
            if(result.rem<10){
   baf40:	2809      	cmp	r0, #9
                *ptr += '0';
   baf42:	bf94      	ite	ls
   baf44:	3130      	addls	r1, #48	; 0x30
                *ptr += 'a'-10;
   baf46:	3157      	addhi	r1, #87	; 0x57
   baf48:	b2c9      	uxtb	r1, r1
   baf4a:	f805 1b01 	strb.w	r1, [r5], #1
            a = result.quot;
   baf4e:	4630      	mov	r0, r6
	while(a){
   baf50:	e7e9      	b.n	baf26 <ultoa+0xc>

	*ptr = '\0';
   baf52:	2300      	movs	r3, #0
	str_reverse(buffer);
   baf54:	4620      	mov	r0, r4
	*ptr = '\0';
   baf56:	702b      	strb	r3, [r5, #0]
	str_reverse(buffer);
   baf58:	f7ff ffce 	bl	baef8 <_Z11str_reversePc>
	return buffer;
   baf5c:	4620      	mov	r0, r4
}
   baf5e:	bd70      	pop	{r4, r5, r6, pc}
		return NULL;
   baf60:	2000      	movs	r0, #0
   baf62:	e7fc      	b.n	baf5e <ultoa+0x44>

000baf64 <itoa>:

__attribute__((weak)) char* itoa(int a, char* buffer, int radix){
   baf64:	b538      	push	{r3, r4, r5, lr}
	if(a<0){
   baf66:	1e03      	subs	r3, r0, #0
__attribute__((weak)) char* itoa(int a, char* buffer, int radix){
   baf68:	460c      	mov	r4, r1
   baf6a:	4615      	mov	r5, r2
	if(a<0){
   baf6c:	da0e      	bge.n	baf8c <itoa+0x28>
		*buffer = '-';
		unsigned v = a==INT_MIN ? ((unsigned)INT_MAX+1) : -a;
   baf6e:	f1b3 4f00 	cmp.w	r3, #2147483648	; 0x80000000
		*buffer = '-';
   baf72:	f04f 022d 	mov.w	r2, #45	; 0x2d
		unsigned v = a==INT_MIN ? ((unsigned)INT_MAX+1) : -a;
   baf76:	bf14      	ite	ne
   baf78:	4258      	negne	r0, r3
   baf7a:	4618      	moveq	r0, r3
		ultoa((unsigned)v, buffer + 1, radix);
   baf7c:	2301      	movs	r3, #1
		*buffer = '-';
   baf7e:	700a      	strb	r2, [r1, #0]
		ultoa((unsigned)v, buffer + 1, radix);
   baf80:	462a      	mov	r2, r5
   baf82:	4419      	add	r1, r3
	}else{
		ultoa(a, buffer, radix);
   baf84:	f7ff ffc9 	bl	baf1a <ultoa>
	}
	return buffer;
}
   baf88:	4620      	mov	r0, r4
   baf8a:	bd38      	pop	{r3, r4, r5, pc}
		ultoa(a, buffer, radix);
   baf8c:	2301      	movs	r3, #1
   baf8e:	e7f9      	b.n	baf84 <itoa+0x20>

000baf90 <_ZZ21module_user_init_hookENUlP6_reentjmPvE_4_FUNES0_jmS1_>:

void module_user_init_hook()
{
#if HAL_PLATFORM_NEWLIB
    newlib_impure_ptr_callback([](struct _reent* r, size_t size, uint32_t version, void* ctx) -> void {
        _impure_ptr = r;
   baf90:	4b01      	ldr	r3, [pc, #4]	; (baf98 <_ZZ21module_user_init_hookENUlP6_reentjmPvE_4_FUNES0_jmS1_+0x8>)
   baf92:	6018      	str	r0, [r3, #0]
    }, nullptr);
   baf94:	4770      	bx	lr
   baf96:	bf00      	nop
   baf98:	200350c8 	.word	0x200350c8

000baf9c <serialEventRun>:
{
   baf9c:	b508      	push	{r3, lr}
    if (serialEvent && Serial.available()>0)
   baf9e:	4b0b      	ldr	r3, [pc, #44]	; (bafcc <serialEventRun+0x30>)
   bafa0:	b143      	cbz	r3, bafb4 <serialEventRun+0x18>
   bafa2:	f7ff ff45 	bl	bae30 <_Z16_fetch_usbserialv>
   bafa6:	6803      	ldr	r3, [r0, #0]
   bafa8:	691b      	ldr	r3, [r3, #16]
   bafaa:	4798      	blx	r3
   bafac:	2800      	cmp	r0, #0
   bafae:	dd01      	ble.n	bafb4 <serialEventRun+0x18>
        serialEvent();
   bafb0:	f3af 8000 	nop.w
    if (serialEvent1 && Serial1.available()>0)
   bafb4:	4b06      	ldr	r3, [pc, #24]	; (bafd0 <serialEventRun+0x34>)
   bafb6:	b143      	cbz	r3, bafca <serialEventRun+0x2e>
   bafb8:	f000 f8c8 	bl	bb14c <_Z22__fetch_global_Serial1v>
   bafbc:	6803      	ldr	r3, [r0, #0]
   bafbe:	691b      	ldr	r3, [r3, #16]
   bafc0:	4798      	blx	r3
   bafc2:	2800      	cmp	r0, #0
   bafc4:	dd01      	ble.n	bafca <serialEventRun+0x2e>
        serialEvent1();
   bafc6:	f3af 8000 	nop.w
}
   bafca:	bd08      	pop	{r3, pc}
	...

000bafd4 <_post_loop>:
{
   bafd4:	b508      	push	{r3, lr}
	serialEventRun();
   bafd6:	f7ff ffe1 	bl	baf9c <serialEventRun>
		return !timeout_fn;
	}

	static inline system_tick_t current_time()
	{
		return HAL_Timer_Get_Milli_Seconds();
   bafda:	f7fd fb8b 	bl	b86f4 <HAL_Timer_Get_Milli_Seconds>
	/**
	 * Lifesign that the application is still working normally.
	 */
	static void checkin()
	{
		last_checkin = current_time();
   bafde:	4b01      	ldr	r3, [pc, #4]	; (bafe4 <_post_loop+0x10>)
   bafe0:	6018      	str	r0, [r3, #0]
}
   bafe2:	bd08      	pop	{r3, pc}
   bafe4:	2003e728 	.word	0x2003e728

000bafe8 <_Z33system_initialize_user_backup_ramv>:
    memcpy(&link_global_retained_start, &link_global_retained_initial_values, len);
   bafe8:	4805      	ldr	r0, [pc, #20]	; (bb000 <_Z33system_initialize_user_backup_ramv+0x18>)
   bafea:	4a06      	ldr	r2, [pc, #24]	; (bb004 <_Z33system_initialize_user_backup_ramv+0x1c>)
   bafec:	4906      	ldr	r1, [pc, #24]	; (bb008 <_Z33system_initialize_user_backup_ramv+0x20>)
{
   bafee:	b508      	push	{r3, lr}
    memcpy(&link_global_retained_start, &link_global_retained_initial_values, len);
   baff0:	1a12      	subs	r2, r2, r0
   baff2:	f001 f8b9 	bl	bc168 <memcpy>
    __backup_sram_signature = signature;
   baff6:	4b05      	ldr	r3, [pc, #20]	; (bb00c <_Z33system_initialize_user_backup_ramv+0x24>)
   baff8:	4a05      	ldr	r2, [pc, #20]	; (bb010 <_Z33system_initialize_user_backup_ramv+0x28>)
   baffa:	601a      	str	r2, [r3, #0]
}
   baffc:	bd08      	pop	{r3, pc}
   baffe:	bf00      	nop
   bb000:	2003f400 	.word	0x2003f400
   bb004:	2003f404 	.word	0x2003f404
   bb008:	000bf114 	.word	0x000bf114
   bb00c:	2003f400 	.word	0x2003f400
   bb010:	9a271c1e 	.word	0x9a271c1e

000bb014 <_Z27ctrl_request_custom_handlerP12ctrl_request>:
void __attribute((weak)) ctrl_request_custom_handler(ctrl_request* req) {
   bb014:	b507      	push	{r0, r1, r2, lr}
    system_ctrl_set_result(req, SYSTEM_ERROR_NOT_SUPPORTED, nullptr, nullptr, nullptr);
   bb016:	2300      	movs	r3, #0
   bb018:	9300      	str	r3, [sp, #0]
   bb01a:	461a      	mov	r2, r3
   bb01c:	f06f 0177 	mvn.w	r1, #119	; 0x77
   bb020:	f7fd fcba 	bl	b8998 <system_ctrl_set_result>
}
   bb024:	b003      	add	sp, #12
   bb026:	f85d fb04 	ldr.w	pc, [sp], #4
	...

000bb02c <_ZL20ctrl_request_handlerP12ctrl_request>:
static void ctrl_request_handler(ctrl_request* req) {
   bb02c:	b507      	push	{r0, r1, r2, lr}
    switch (req->type) {
   bb02e:	8843      	ldrh	r3, [r0, #2]
   bb030:	2b0a      	cmp	r3, #10
   bb032:	d008      	beq.n	bb046 <_ZL20ctrl_request_handlerP12ctrl_request+0x1a>
   bb034:	2b50      	cmp	r3, #80	; 0x50
   bb036:	d10b      	bne.n	bb050 <_ZL20ctrl_request_handlerP12ctrl_request+0x24>
        if (log_process_ctrl_request_callback) {
   bb038:	4b09      	ldr	r3, [pc, #36]	; (bb060 <_ZL20ctrl_request_handlerP12ctrl_request+0x34>)
   bb03a:	681b      	ldr	r3, [r3, #0]
   bb03c:	b14b      	cbz	r3, bb052 <_ZL20ctrl_request_handlerP12ctrl_request+0x26>
}
   bb03e:	b003      	add	sp, #12
   bb040:	f85d eb04 	ldr.w	lr, [sp], #4
            log_process_ctrl_request_callback(req);
   bb044:	4718      	bx	r3
        ctrl_request_custom_handler(req);
   bb046:	f7ff ffe5 	bl	bb014 <_Z27ctrl_request_custom_handlerP12ctrl_request>
}
   bb04a:	b003      	add	sp, #12
   bb04c:	f85d fb04 	ldr.w	pc, [sp], #4
        system_ctrl_set_result(req, SYSTEM_ERROR_NOT_SUPPORTED, nullptr, nullptr, nullptr);
   bb050:	2300      	movs	r3, #0
   bb052:	9300      	str	r3, [sp, #0]
   bb054:	461a      	mov	r2, r3
   bb056:	f06f 0177 	mvn.w	r1, #119	; 0x77
   bb05a:	f7fd fc9d 	bl	b8998 <system_ctrl_set_result>
}
   bb05e:	e7f4      	b.n	bb04a <_ZL20ctrl_request_handlerP12ctrl_request+0x1e>
   bb060:	2003e724 	.word	0x2003e724

000bb064 <module_user_init_hook>:
{
   bb064:	b510      	push	{r4, lr}
    newlib_impure_ptr_callback([](struct _reent* r, size_t size, uint32_t version, void* ctx) -> void {
   bb066:	4812      	ldr	r0, [pc, #72]	; (bb0b0 <module_user_init_hook+0x4c>)
   bb068:	2100      	movs	r1, #0
   bb06a:	f7fd fd5f 	bl	b8b2c <newlib_impure_ptr_callback>
#endif // HAL_PLATFORM_NEWLIB

#if HAL_PLATFORM_BACKUP_RAM
    backup_ram_was_valid_ = __backup_sram_signature == signature;
   bb06e:	4b11      	ldr	r3, [pc, #68]	; (bb0b4 <module_user_init_hook+0x50>)
   bb070:	681a      	ldr	r2, [r3, #0]
   bb072:	4b11      	ldr	r3, [pc, #68]	; (bb0b8 <module_user_init_hook+0x54>)
   bb074:	429a      	cmp	r2, r3
   bb076:	4b11      	ldr	r3, [pc, #68]	; (bb0bc <module_user_init_hook+0x58>)
   bb078:	bf0c      	ite	eq
   bb07a:	2201      	moveq	r2, #1
   bb07c:	2200      	movne	r2, #0
   bb07e:	701a      	strb	r2, [r3, #0]
    if (!backup_ram_was_valid_) {
   bb080:	d001      	beq.n	bb086 <module_user_init_hook+0x22>
        system_initialize_user_backup_ram();
   bb082:	f7ff ffb1 	bl	bafe8 <_Z33system_initialize_user_backup_ramv>
    }
#endif

#if HAL_PLATFORM_RNG
    // Initialize the default stdlib PRNG using hardware RNG as a seed
    const uint32_t seed = HAL_RNG_GetRandomNumber();
   bb086:	f7fd fb25 	bl	b86d4 <HAL_RNG_GetRandomNumber>
   bb08a:	4604      	mov	r4, r0
    srand(seed);
   bb08c:	f001 f89c 	bl	bc1c8 <srand>

    // If the user defines random_seed_from_cloud, call it with a seed value
    // generated by a hardware RNG as well.
    if (random_seed_from_cloud) {
   bb090:	4b0b      	ldr	r3, [pc, #44]	; (bb0c0 <module_user_init_hook+0x5c>)
   bb092:	b113      	cbz	r3, bb09a <module_user_init_hook+0x36>
        random_seed_from_cloud(seed);
   bb094:	4620      	mov	r0, r4
   bb096:	f3af 8000 	nop.w
    }
#endif
    // Register the random_seed_from_cloud handler
    spark_set_random_seed_from_cloud_handler(&random_seed_from_cloud, nullptr);
   bb09a:	2100      	movs	r1, #0
   bb09c:	4808      	ldr	r0, [pc, #32]	; (bb0c0 <module_user_init_hook+0x5c>)
   bb09e:	f7fd fc85 	bl	b89ac <spark_set_random_seed_from_cloud_handler>

    // Register application handler for the control requests
    system_ctrl_set_app_request_handler(ctrl_request_handler, nullptr);
}
   bb0a2:	e8bd 4010 	ldmia.w	sp!, {r4, lr}
    system_ctrl_set_app_request_handler(ctrl_request_handler, nullptr);
   bb0a6:	4807      	ldr	r0, [pc, #28]	; (bb0c4 <module_user_init_hook+0x60>)
   bb0a8:	2100      	movs	r1, #0
   bb0aa:	f7fd bc6b 	b.w	b8984 <system_ctrl_set_app_request_handler>
   bb0ae:	bf00      	nop
   bb0b0:	000baf91 	.word	0x000baf91
   bb0b4:	2003f400 	.word	0x2003f400
   bb0b8:	9a271c1e 	.word	0x9a271c1e
   bb0bc:	2003e720 	.word	0x2003e720
   bb0c0:	00000000 	.word	0x00000000
   bb0c4:	000bb02d 	.word	0x000bb02d

000bb0c8 <__tcf_0>:
}
#endif

TwoWire& __fetch_global_Wire()
{
	static TwoWire wire(HAL_I2C_INTERFACE1, acquireWireBuffer());
   bb0c8:	4770      	bx	lr
	...

000bb0cc <_Z19__fetch_global_Wirev>:
{
   bb0cc:	b530      	push	{r4, r5, lr}
	static TwoWire wire(HAL_I2C_INTERFACE1, acquireWireBuffer());
   bb0ce:	4d0e      	ldr	r5, [pc, #56]	; (bb108 <_Z19__fetch_global_Wirev+0x3c>)
   bb0d0:	7829      	ldrb	r1, [r5, #0]
   bb0d2:	f3bf 8f5b 	dmb	ish
   bb0d6:	f011 0401 	ands.w	r4, r1, #1
{
   bb0da:	b087      	sub	sp, #28
	static TwoWire wire(HAL_I2C_INTERFACE1, acquireWireBuffer());
   bb0dc:	d111      	bne.n	bb102 <_Z19__fetch_global_Wirev+0x36>
   bb0de:	4628      	mov	r0, r5
   bb0e0:	f7f8 ffe1 	bl	b40a6 <__cxa_guard_acquire>
   bb0e4:	b168      	cbz	r0, bb102 <_Z19__fetch_global_Wirev+0x36>
   bb0e6:	a801      	add	r0, sp, #4
   bb0e8:	f7f9 fb02 	bl	b46f0 <_Z17acquireWireBufferv>
   bb0ec:	aa01      	add	r2, sp, #4
   bb0ee:	4621      	mov	r1, r4
   bb0f0:	4806      	ldr	r0, [pc, #24]	; (bb10c <_Z19__fetch_global_Wirev+0x40>)
   bb0f2:	f7fe ff3d 	bl	b9f70 <_ZN7TwoWireC1E19hal_i2c_interface_tRK16hal_i2c_config_t>
   bb0f6:	4628      	mov	r0, r5
   bb0f8:	f7f8 ffda 	bl	b40b0 <__cxa_guard_release>
   bb0fc:	4804      	ldr	r0, [pc, #16]	; (bb110 <_Z19__fetch_global_Wirev+0x44>)
   bb0fe:	f001 f819 	bl	bc134 <atexit>
	return wire;
}
   bb102:	4802      	ldr	r0, [pc, #8]	; (bb10c <_Z19__fetch_global_Wirev+0x40>)
   bb104:	b007      	add	sp, #28
   bb106:	bd30      	pop	{r4, r5, pc}
   bb108:	2003e72c 	.word	0x2003e72c
   bb10c:	2003e730 	.word	0x2003e730
   bb110:	000bb0c9 	.word	0x000bb0c9

000bb114 <__tcf_0>:
}
#endif

USARTSerial& __fetch_global_Serial1()
{
    static USARTSerial serial1(HAL_USART_SERIAL1, acquireSerial1Buffer());
   bb114:	4770      	bx	lr
	...

000bb118 <_Z20acquireSerial1Bufferv>:
{
   bb118:	b538      	push	{r3, r4, r5, lr}
   bb11a:	4604      	mov	r4, r0
    hal_usart_buffer_config_t config = {
   bb11c:	2514      	movs	r5, #20
   bb11e:	462a      	mov	r2, r5
   bb120:	2100      	movs	r1, #0
   bb122:	f001 f849 	bl	bc1b8 <memset>
   bb126:	8025      	strh	r5, [r4, #0]
   bb128:	2540      	movs	r5, #64	; 0x40
        .rx_buffer = new (std::nothrow) uint8_t[bufferSize],
   bb12a:	4907      	ldr	r1, [pc, #28]	; (bb148 <_Z20acquireSerial1Bufferv+0x30>)
    hal_usart_buffer_config_t config = {
   bb12c:	8125      	strh	r5, [r4, #8]
        .rx_buffer = new (std::nothrow) uint8_t[bufferSize],
   bb12e:	4628      	mov	r0, r5
    hal_usart_buffer_config_t config = {
   bb130:	8225      	strh	r5, [r4, #16]
        .rx_buffer = new (std::nothrow) uint8_t[bufferSize],
   bb132:	f000 f82f 	bl	bb194 <_ZnajRKSt9nothrow_t>
        .tx_buffer = new (std::nothrow) uint8_t[bufferSize],
   bb136:	4904      	ldr	r1, [pc, #16]	; (bb148 <_Z20acquireSerial1Bufferv+0x30>)
    };
   bb138:	6060      	str	r0, [r4, #4]
        .tx_buffer = new (std::nothrow) uint8_t[bufferSize],
   bb13a:	4628      	mov	r0, r5
   bb13c:	f000 f82a 	bl	bb194 <_ZnajRKSt9nothrow_t>
    };
   bb140:	60e0      	str	r0, [r4, #12]
}
   bb142:	4620      	mov	r0, r4
   bb144:	bd38      	pop	{r3, r4, r5, pc}
   bb146:	bf00      	nop
   bb148:	000bec04 	.word	0x000bec04

000bb14c <_Z22__fetch_global_Serial1v>:
{
   bb14c:	b530      	push	{r4, r5, lr}
    static USARTSerial serial1(HAL_USART_SERIAL1, acquireSerial1Buffer());
   bb14e:	4d0e      	ldr	r5, [pc, #56]	; (bb188 <_Z22__fetch_global_Serial1v+0x3c>)
   bb150:	7829      	ldrb	r1, [r5, #0]
   bb152:	f3bf 8f5b 	dmb	ish
   bb156:	f011 0401 	ands.w	r4, r1, #1
{
   bb15a:	b087      	sub	sp, #28
    static USARTSerial serial1(HAL_USART_SERIAL1, acquireSerial1Buffer());
   bb15c:	d111      	bne.n	bb182 <_Z22__fetch_global_Serial1v+0x36>
   bb15e:	4628      	mov	r0, r5
   bb160:	f7f8 ffa1 	bl	b40a6 <__cxa_guard_acquire>
   bb164:	b168      	cbz	r0, bb182 <_Z22__fetch_global_Serial1v+0x36>
   bb166:	a801      	add	r0, sp, #4
   bb168:	f7ff ffd6 	bl	bb118 <_Z20acquireSerial1Bufferv>
   bb16c:	aa01      	add	r2, sp, #4
   bb16e:	4621      	mov	r1, r4
   bb170:	4806      	ldr	r0, [pc, #24]	; (bb18c <_Z22__fetch_global_Serial1v+0x40>)
   bb172:	f7ff fdeb 	bl	bad4c <_ZN11USARTSerialC1E21hal_usart_interface_tRK25hal_usart_buffer_config_t>
   bb176:	4628      	mov	r0, r5
   bb178:	f7f8 ff9a 	bl	b40b0 <__cxa_guard_release>
   bb17c:	4804      	ldr	r0, [pc, #16]	; (bb190 <_Z22__fetch_global_Serial1v+0x44>)
   bb17e:	f000 ffd9 	bl	bc134 <atexit>
    return serial1;
}
   bb182:	4802      	ldr	r0, [pc, #8]	; (bb18c <_Z22__fetch_global_Serial1v+0x40>)
   bb184:	b007      	add	sp, #28
   bb186:	bd30      	pop	{r4, r5, pc}
   bb188:	2003e744 	.word	0x2003e744
   bb18c:	2003e748 	.word	0x2003e748
   bb190:	000bb115 	.word	0x000bb115

000bb194 <_ZnajRKSt9nothrow_t>:
   bb194:	f7f8 bf81 	b.w	b409a <_Znaj>

000bb198 <_ZSt17__throw_bad_allocv>:
   bb198:	b508      	push	{r3, lr}
   bb19a:	f7fd fca7 	bl	b8aec <abort>

000bb19e <_ZSt19__throw_logic_errorPKc>:
   bb19e:	b508      	push	{r3, lr}
   bb1a0:	f7fd fca4 	bl	b8aec <abort>

000bb1a4 <_ZSt20__throw_length_errorPKc>:
   bb1a4:	b508      	push	{r3, lr}
   bb1a6:	f7fd fca1 	bl	b8aec <abort>

000bb1aa <_ZSt25__throw_bad_function_callv>:
   bb1aa:	b508      	push	{r3, lr}
   bb1ac:	f7fd fc9e 	bl	b8aec <abort>

000bb1b0 <_ZNSt19_Sp_make_shared_tag5_S_eqERKSt9type_info>:
   bb1b0:	4901      	ldr	r1, [pc, #4]	; (bb1b8 <_ZNSt19_Sp_make_shared_tag5_S_eqERKSt9type_info+0x8>)
   bb1b2:	f000 b963 	b.w	bb47c <_ZNKSt9type_infoeqERKS_>
   bb1b6:	bf00      	nop
   bb1b8:	000bec20 	.word	0x000bec20

000bb1bc <_ZNSt11char_traitsIcE4copyEPcPKcj.isra.0>:
   bb1bc:	b10a      	cbz	r2, bb1c2 <_ZNSt11char_traitsIcE4copyEPcPKcj.isra.0+0x6>
   bb1be:	f000 bfd3 	b.w	bc168 <memcpy>
   bb1c2:	4770      	bx	lr

000bb1c4 <_ZNSt7__cxx1112basic_stringIcSt11char_traitsIcESaIcEE9_M_createERjj>:
   bb1c4:	b508      	push	{r3, lr}
   bb1c6:	680b      	ldr	r3, [r1, #0]
   bb1c8:	f1b3 4f80 	cmp.w	r3, #1073741824	; 0x40000000
   bb1cc:	d302      	bcc.n	bb1d4 <_ZNSt7__cxx1112basic_stringIcSt11char_traitsIcESaIcEE9_M_createERjj+0x10>
   bb1ce:	480d      	ldr	r0, [pc, #52]	; (bb204 <_ZNSt7__cxx1112basic_stringIcSt11char_traitsIcESaIcEE9_M_createERjj+0x40>)
   bb1d0:	f7ff ffe8 	bl	bb1a4 <_ZSt20__throw_length_errorPKc>
   bb1d4:	4293      	cmp	r3, r2
   bb1d6:	d90b      	bls.n	bb1f0 <_ZNSt7__cxx1112basic_stringIcSt11char_traitsIcESaIcEE9_M_createERjj+0x2c>
   bb1d8:	ebb3 0f42 	cmp.w	r3, r2, lsl #1
   bb1dc:	ea4f 0042 	mov.w	r0, r2, lsl #1
   bb1e0:	d206      	bcs.n	bb1f0 <_ZNSt7__cxx1112basic_stringIcSt11char_traitsIcESaIcEE9_M_createERjj+0x2c>
   bb1e2:	f1b0 4f80 	cmp.w	r0, #1073741824	; 0x40000000
   bb1e6:	bf2a      	itet	cs
   bb1e8:	f06f 4340 	mvncs.w	r3, #3221225472	; 0xc0000000
   bb1ec:	6008      	strcc	r0, [r1, #0]
   bb1ee:	600b      	strcs	r3, [r1, #0]
   bb1f0:	6808      	ldr	r0, [r1, #0]
   bb1f2:	3001      	adds	r0, #1
   bb1f4:	d501      	bpl.n	bb1fa <_ZNSt7__cxx1112basic_stringIcSt11char_traitsIcESaIcEE9_M_createERjj+0x36>
   bb1f6:	f7ff ffcf 	bl	bb198 <_ZSt17__throw_bad_allocv>
   bb1fa:	e8bd 4008 	ldmia.w	sp!, {r3, lr}
   bb1fe:	f7f8 bf4a 	b.w	b4096 <_Znwj>
   bb202:	bf00      	nop
   bb204:	000bec28 	.word	0x000bec28

000bb208 <_ZNSt7__cxx1112basic_stringIcSt11char_traitsIcESaIcEE10_M_disposeEv>:
   bb208:	f850 3b08 	ldr.w	r3, [r0], #8
   bb20c:	4283      	cmp	r3, r0
   bb20e:	d002      	beq.n	bb216 <_ZNSt7__cxx1112basic_stringIcSt11char_traitsIcESaIcEE10_M_disposeEv+0xe>
   bb210:	4618      	mov	r0, r3
   bb212:	f7f8 bf44 	b.w	b409e <_ZdlPv>
   bb216:	4770      	bx	lr

000bb218 <_ZNSt7__cxx1112basic_stringIcSt11char_traitsIcESaIcEE7_S_copyEPcPKcj>:
   bb218:	2a01      	cmp	r2, #1
   bb21a:	b410      	push	{r4}
   bb21c:	d104      	bne.n	bb228 <_ZNSt7__cxx1112basic_stringIcSt11char_traitsIcESaIcEE7_S_copyEPcPKcj+0x10>
   bb21e:	780a      	ldrb	r2, [r1, #0]
   bb220:	f85d 4b04 	ldr.w	r4, [sp], #4
   bb224:	7002      	strb	r2, [r0, #0]
   bb226:	4770      	bx	lr
   bb228:	f85d 4b04 	ldr.w	r4, [sp], #4
   bb22c:	f7ff bfc6 	b.w	bb1bc <_ZNSt11char_traitsIcE4copyEPcPKcj.isra.0>

000bb230 <_ZNSt7__cxx1112basic_stringIcSt11char_traitsIcESaIcEE13_S_copy_charsEPcS5_S5_>:
   bb230:	b508      	push	{r3, lr}
   bb232:	1a52      	subs	r2, r2, r1
   bb234:	f7ff fff0 	bl	bb218 <_ZNSt7__cxx1112basic_stringIcSt11char_traitsIcESaIcEE7_S_copyEPcPKcj>
   bb238:	bd08      	pop	{r3, pc}

000bb23a <_ZNSt7__cxx1112basic_stringIcSt11char_traitsIcESaIcEE13_S_copy_charsEPcPKcS7_>:
   bb23a:	b508      	push	{r3, lr}
   bb23c:	1a52      	subs	r2, r2, r1
   bb23e:	f7ff ffeb 	bl	bb218 <_ZNSt7__cxx1112basic_stringIcSt11char_traitsIcESaIcEE7_S_copyEPcPKcj>
   bb242:	bd08      	pop	{r3, pc}

000bb244 <_ZNSt7__cxx1112basic_stringIcSt11char_traitsIcESaIcEE9_M_assignERKS4_>:
   bb244:	4288      	cmp	r0, r1
   bb246:	b5f7      	push	{r0, r1, r2, r4, r5, r6, r7, lr}
   bb248:	4604      	mov	r4, r0
   bb24a:	460e      	mov	r6, r1
   bb24c:	d01e      	beq.n	bb28c <_ZNSt7__cxx1112basic_stringIcSt11char_traitsIcESaIcEE9_M_assignERKS4_+0x48>
   bb24e:	4603      	mov	r3, r0
   bb250:	684d      	ldr	r5, [r1, #4]
   bb252:	f853 2b08 	ldr.w	r2, [r3], #8
   bb256:	429a      	cmp	r2, r3
   bb258:	bf14      	ite	ne
   bb25a:	6882      	ldrne	r2, [r0, #8]
   bb25c:	220f      	moveq	r2, #15
   bb25e:	42aa      	cmp	r2, r5
   bb260:	d20a      	bcs.n	bb278 <_ZNSt7__cxx1112basic_stringIcSt11char_traitsIcESaIcEE9_M_assignERKS4_+0x34>
   bb262:	a901      	add	r1, sp, #4
   bb264:	9501      	str	r5, [sp, #4]
   bb266:	f7ff ffad 	bl	bb1c4 <_ZNSt7__cxx1112basic_stringIcSt11char_traitsIcESaIcEE9_M_createERjj>
   bb26a:	4607      	mov	r7, r0
   bb26c:	4620      	mov	r0, r4
   bb26e:	f7ff ffcb 	bl	bb208 <_ZNSt7__cxx1112basic_stringIcSt11char_traitsIcESaIcEE10_M_disposeEv>
   bb272:	9b01      	ldr	r3, [sp, #4]
   bb274:	6027      	str	r7, [r4, #0]
   bb276:	60a3      	str	r3, [r4, #8]
   bb278:	b125      	cbz	r5, bb284 <_ZNSt7__cxx1112basic_stringIcSt11char_traitsIcESaIcEE9_M_assignERKS4_+0x40>
   bb27a:	6831      	ldr	r1, [r6, #0]
   bb27c:	6820      	ldr	r0, [r4, #0]
   bb27e:	462a      	mov	r2, r5
   bb280:	f7ff ffca 	bl	bb218 <_ZNSt7__cxx1112basic_stringIcSt11char_traitsIcESaIcEE7_S_copyEPcPKcj>
   bb284:	6823      	ldr	r3, [r4, #0]
   bb286:	6065      	str	r5, [r4, #4]
   bb288:	2200      	movs	r2, #0
   bb28a:	555a      	strb	r2, [r3, r5]
   bb28c:	b003      	add	sp, #12
   bb28e:	bdf0      	pop	{r4, r5, r6, r7, pc}

000bb290 <_ZNK10__cxxabiv117__class_type_info11__do_upcastEPKS0_PPv>:
   bb290:	b57f      	push	{r0, r1, r2, r3, r4, r5, r6, lr}
   bb292:	2400      	movs	r4, #0
   bb294:	2310      	movs	r3, #16
   bb296:	e9cd 3402 	strd	r3, r4, [sp, #8]
   bb29a:	6803      	ldr	r3, [r0, #0]
   bb29c:	4615      	mov	r5, r2
   bb29e:	699e      	ldr	r6, [r3, #24]
   bb2a0:	6812      	ldr	r2, [r2, #0]
   bb2a2:	466b      	mov	r3, sp
   bb2a4:	e9cd 4400 	strd	r4, r4, [sp]
   bb2a8:	47b0      	blx	r6
   bb2aa:	f89d 3004 	ldrb.w	r3, [sp, #4]
   bb2ae:	f003 0306 	and.w	r3, r3, #6
   bb2b2:	2b06      	cmp	r3, #6
   bb2b4:	bf03      	ittte	eq
   bb2b6:	9b00      	ldreq	r3, [sp, #0]
   bb2b8:	602b      	streq	r3, [r5, #0]
   bb2ba:	2001      	moveq	r0, #1
   bb2bc:	4620      	movne	r0, r4
   bb2be:	b004      	add	sp, #16
   bb2c0:	bd70      	pop	{r4, r5, r6, pc}

000bb2c2 <_ZNK10__cxxabiv117__class_type_info20__do_find_public_srcEiPKvPKS0_S2_>:
   bb2c2:	9800      	ldr	r0, [sp, #0]
   bb2c4:	4290      	cmp	r0, r2
   bb2c6:	bf14      	ite	ne
   bb2c8:	2001      	movne	r0, #1
   bb2ca:	2006      	moveq	r0, #6
   bb2cc:	4770      	bx	lr
	...

000bb2d0 <_ZN10__cxxabiv117__class_type_infoD1Ev>:
   bb2d0:	b510      	push	{r4, lr}
   bb2d2:	4b03      	ldr	r3, [pc, #12]	; (bb2e0 <_ZN10__cxxabiv117__class_type_infoD1Ev+0x10>)
   bb2d4:	6003      	str	r3, [r0, #0]
   bb2d6:	4604      	mov	r4, r0
   bb2d8:	f000 f8cd 	bl	bb476 <_ZNSt9type_infoD1Ev>
   bb2dc:	4620      	mov	r0, r4
   bb2de:	bd10      	pop	{r4, pc}
   bb2e0:	000bec78 	.word	0x000bec78

000bb2e4 <_ZN10__cxxabiv117__class_type_infoD0Ev>:
   bb2e4:	b510      	push	{r4, lr}
   bb2e6:	4604      	mov	r4, r0
   bb2e8:	f7ff fff2 	bl	bb2d0 <_ZN10__cxxabiv117__class_type_infoD1Ev>
   bb2ec:	4620      	mov	r0, r4
   bb2ee:	2108      	movs	r1, #8
   bb2f0:	f7f8 fed7 	bl	b40a2 <_ZdlPvj>
   bb2f4:	4620      	mov	r0, r4
   bb2f6:	bd10      	pop	{r4, pc}

000bb2f8 <_ZNK10__cxxabiv117__class_type_info12__do_dyncastEiNS0_10__sub_kindEPKS0_PKvS3_S5_RNS0_16__dyncast_resultE>:
   bb2f8:	e92d 41f0 	stmdb	sp!, {r4, r5, r6, r7, r8, lr}
   bb2fc:	461f      	mov	r7, r3
   bb2fe:	e9dd 3408 	ldrd	r3, r4, [sp, #32]
   bb302:	f8dd 8018 	ldr.w	r8, [sp, #24]
   bb306:	4598      	cmp	r8, r3
   bb308:	4606      	mov	r6, r0
   bb30a:	4615      	mov	r5, r2
   bb30c:	d107      	bne.n	bb31e <_ZNK10__cxxabiv117__class_type_info12__do_dyncastEiNS0_10__sub_kindEPKS0_PKvS3_S5_RNS0_16__dyncast_resultE+0x26>
   bb30e:	9907      	ldr	r1, [sp, #28]
   bb310:	f000 f8b4 	bl	bb47c <_ZNKSt9type_infoeqERKS_>
   bb314:	b118      	cbz	r0, bb31e <_ZNK10__cxxabiv117__class_type_info12__do_dyncastEiNS0_10__sub_kindEPKS0_PKvS3_S5_RNS0_16__dyncast_resultE+0x26>
   bb316:	7165      	strb	r5, [r4, #5]
   bb318:	2000      	movs	r0, #0
   bb31a:	e8bd 81f0 	ldmia.w	sp!, {r4, r5, r6, r7, r8, pc}
   bb31e:	4639      	mov	r1, r7
   bb320:	4630      	mov	r0, r6
   bb322:	f000 f8ab 	bl	bb47c <_ZNKSt9type_infoeqERKS_>
   bb326:	2800      	cmp	r0, #0
   bb328:	d0f6      	beq.n	bb318 <_ZNK10__cxxabiv117__class_type_info12__do_dyncastEiNS0_10__sub_kindEPKS0_PKvS3_S5_RNS0_16__dyncast_resultE+0x20>
   bb32a:	2301      	movs	r3, #1
   bb32c:	f8c4 8000 	str.w	r8, [r4]
   bb330:	7125      	strb	r5, [r4, #4]
   bb332:	71a3      	strb	r3, [r4, #6]
   bb334:	e7f0      	b.n	bb318 <_ZNK10__cxxabiv117__class_type_info12__do_dyncastEiNS0_10__sub_kindEPKS0_PKvS3_S5_RNS0_16__dyncast_resultE+0x20>

000bb336 <_ZNK10__cxxabiv117__class_type_info11__do_upcastEPKS0_PKvRNS0_15__upcast_resultE>:
   bb336:	b538      	push	{r3, r4, r5, lr}
   bb338:	4615      	mov	r5, r2
   bb33a:	461c      	mov	r4, r3
   bb33c:	f000 f89e 	bl	bb47c <_ZNKSt9type_infoeqERKS_>
   bb340:	b120      	cbz	r0, bb34c <_ZNK10__cxxabiv117__class_type_info11__do_upcastEPKS0_PKvRNS0_15__upcast_resultE+0x16>
   bb342:	2308      	movs	r3, #8
   bb344:	60e3      	str	r3, [r4, #12]
   bb346:	2306      	movs	r3, #6
   bb348:	6025      	str	r5, [r4, #0]
   bb34a:	7123      	strb	r3, [r4, #4]
   bb34c:	bd38      	pop	{r3, r4, r5, pc}

000bb34e <_ZNK10__cxxabiv117__class_type_info10__do_catchEPKSt9type_infoPPvj>:
   bb34e:	b573      	push	{r0, r1, r4, r5, r6, lr}
   bb350:	4605      	mov	r5, r0
   bb352:	460c      	mov	r4, r1
   bb354:	9201      	str	r2, [sp, #4]
   bb356:	461e      	mov	r6, r3
   bb358:	f000 f890 	bl	bb47c <_ZNKSt9type_infoeqERKS_>
   bb35c:	b950      	cbnz	r0, bb374 <_ZNK10__cxxabiv117__class_type_info10__do_catchEPKSt9type_infoPPvj+0x26>
   bb35e:	2e03      	cmp	r6, #3
   bb360:	d808      	bhi.n	bb374 <_ZNK10__cxxabiv117__class_type_info10__do_catchEPKSt9type_infoPPvj+0x26>
   bb362:	6823      	ldr	r3, [r4, #0]
   bb364:	9a01      	ldr	r2, [sp, #4]
   bb366:	695b      	ldr	r3, [r3, #20]
   bb368:	4629      	mov	r1, r5
   bb36a:	4620      	mov	r0, r4
   bb36c:	b002      	add	sp, #8
   bb36e:	e8bd 4070 	ldmia.w	sp!, {r4, r5, r6, lr}
   bb372:	4718      	bx	r3
   bb374:	b002      	add	sp, #8
   bb376:	bd70      	pop	{r4, r5, r6, pc}

000bb378 <_ZN10__cxxabiv120__si_class_type_infoD1Ev>:
   bb378:	b510      	push	{r4, lr}
   bb37a:	4b03      	ldr	r3, [pc, #12]	; (bb388 <_ZN10__cxxabiv120__si_class_type_infoD1Ev+0x10>)
   bb37c:	6003      	str	r3, [r0, #0]
   bb37e:	4604      	mov	r4, r0
   bb380:	f7ff ffa6 	bl	bb2d0 <_ZN10__cxxabiv117__class_type_infoD1Ev>
   bb384:	4620      	mov	r0, r4
   bb386:	bd10      	pop	{r4, pc}
   bb388:	000becd8 	.word	0x000becd8

000bb38c <_ZN10__cxxabiv120__si_class_type_infoD0Ev>:
   bb38c:	b510      	push	{r4, lr}
   bb38e:	4604      	mov	r4, r0
   bb390:	f7ff fff2 	bl	bb378 <_ZN10__cxxabiv120__si_class_type_infoD1Ev>
   bb394:	4620      	mov	r0, r4
   bb396:	210c      	movs	r1, #12
   bb398:	f7f8 fe83 	bl	b40a2 <_ZdlPvj>
   bb39c:	4620      	mov	r0, r4
   bb39e:	bd10      	pop	{r4, pc}

000bb3a0 <_ZNK10__cxxabiv120__si_class_type_info20__do_find_public_srcEiPKvPKNS_17__class_type_infoES2_>:
   bb3a0:	b5f7      	push	{r0, r1, r2, r4, r5, r6, r7, lr}
   bb3a2:	9f08      	ldr	r7, [sp, #32]
   bb3a4:	4297      	cmp	r7, r2
   bb3a6:	4605      	mov	r5, r0
   bb3a8:	460e      	mov	r6, r1
   bb3aa:	4614      	mov	r4, r2
   bb3ac:	d00a      	beq.n	bb3c4 <_ZNK10__cxxabiv120__si_class_type_info20__do_find_public_srcEiPKvPKNS_17__class_type_infoES2_+0x24>
   bb3ae:	68a8      	ldr	r0, [r5, #8]
   bb3b0:	6802      	ldr	r2, [r0, #0]
   bb3b2:	9708      	str	r7, [sp, #32]
   bb3b4:	6a15      	ldr	r5, [r2, #32]
   bb3b6:	4631      	mov	r1, r6
   bb3b8:	4622      	mov	r2, r4
   bb3ba:	46ac      	mov	ip, r5
   bb3bc:	b003      	add	sp, #12
   bb3be:	e8bd 40f0 	ldmia.w	sp!, {r4, r5, r6, r7, lr}
   bb3c2:	4760      	bx	ip
   bb3c4:	4619      	mov	r1, r3
   bb3c6:	9301      	str	r3, [sp, #4]
   bb3c8:	f000 f858 	bl	bb47c <_ZNKSt9type_infoeqERKS_>
   bb3cc:	9b01      	ldr	r3, [sp, #4]
   bb3ce:	2800      	cmp	r0, #0
   bb3d0:	d0ed      	beq.n	bb3ae <_ZNK10__cxxabiv120__si_class_type_info20__do_find_public_srcEiPKvPKNS_17__class_type_infoES2_+0xe>
   bb3d2:	2006      	movs	r0, #6
   bb3d4:	b003      	add	sp, #12
   bb3d6:	bdf0      	pop	{r4, r5, r6, r7, pc}

000bb3d8 <_ZNK10__cxxabiv120__si_class_type_info12__do_dyncastEiNS_17__class_type_info10__sub_kindEPKS1_PKvS4_S6_RNS1_16__dyncast_resultE>:
   bb3d8:	e92d 4ff1 	stmdb	sp!, {r0, r4, r5, r6, r7, r8, r9, sl, fp, lr}
   bb3dc:	460d      	mov	r5, r1
   bb3de:	4619      	mov	r1, r3
   bb3e0:	e9dd 4b0a 	ldrd	r4, fp, [sp, #40]	; 0x28
   bb3e4:	e9dd a60c 	ldrd	sl, r6, [sp, #48]	; 0x30
   bb3e8:	4681      	mov	r9, r0
   bb3ea:	4617      	mov	r7, r2
   bb3ec:	4698      	mov	r8, r3
   bb3ee:	f000 f845 	bl	bb47c <_ZNKSt9type_infoeqERKS_>
   bb3f2:	b190      	cbz	r0, bb41a <_ZNK10__cxxabiv120__si_class_type_info12__do_dyncastEiNS_17__class_type_info10__sub_kindEPKS1_PKvS4_S6_RNS1_16__dyncast_resultE+0x42>
   bb3f4:	2d00      	cmp	r5, #0
   bb3f6:	6034      	str	r4, [r6, #0]
   bb3f8:	7137      	strb	r7, [r6, #4]
   bb3fa:	db09      	blt.n	bb410 <_ZNK10__cxxabiv120__si_class_type_info12__do_dyncastEiNS_17__class_type_info10__sub_kindEPKS1_PKvS4_S6_RNS1_16__dyncast_resultE+0x38>
   bb3fc:	1961      	adds	r1, r4, r5
   bb3fe:	458a      	cmp	sl, r1
   bb400:	bf0c      	ite	eq
   bb402:	2106      	moveq	r1, #6
   bb404:	2101      	movne	r1, #1
   bb406:	71b1      	strb	r1, [r6, #6]
   bb408:	2000      	movs	r0, #0
   bb40a:	b001      	add	sp, #4
   bb40c:	e8bd 8ff0 	ldmia.w	sp!, {r4, r5, r6, r7, r8, r9, sl, fp, pc}
   bb410:	3502      	adds	r5, #2
   bb412:	d1f9      	bne.n	bb408 <_ZNK10__cxxabiv120__si_class_type_info12__do_dyncastEiNS_17__class_type_info10__sub_kindEPKS1_PKvS4_S6_RNS1_16__dyncast_resultE+0x30>
   bb414:	2301      	movs	r3, #1
   bb416:	71b3      	strb	r3, [r6, #6]
   bb418:	e7f6      	b.n	bb408 <_ZNK10__cxxabiv120__si_class_type_info12__do_dyncastEiNS_17__class_type_info10__sub_kindEPKS1_PKvS4_S6_RNS1_16__dyncast_resultE+0x30>
   bb41a:	4554      	cmp	r4, sl
   bb41c:	d106      	bne.n	bb42c <_ZNK10__cxxabiv120__si_class_type_info12__do_dyncastEiNS_17__class_type_info10__sub_kindEPKS1_PKvS4_S6_RNS1_16__dyncast_resultE+0x54>
   bb41e:	4659      	mov	r1, fp
   bb420:	4648      	mov	r0, r9
   bb422:	f000 f82b 	bl	bb47c <_ZNKSt9type_infoeqERKS_>
   bb426:	b108      	cbz	r0, bb42c <_ZNK10__cxxabiv120__si_class_type_info12__do_dyncastEiNS_17__class_type_info10__sub_kindEPKS1_PKvS4_S6_RNS1_16__dyncast_resultE+0x54>
   bb428:	7177      	strb	r7, [r6, #5]
   bb42a:	e7ed      	b.n	bb408 <_ZNK10__cxxabiv120__si_class_type_info12__do_dyncastEiNS_17__class_type_info10__sub_kindEPKS1_PKvS4_S6_RNS1_16__dyncast_resultE+0x30>
   bb42c:	f8d9 0008 	ldr.w	r0, [r9, #8]
   bb430:	6803      	ldr	r3, [r0, #0]
   bb432:	e9cd a60c 	strd	sl, r6, [sp, #48]	; 0x30
   bb436:	e9cd 4b0a 	strd	r4, fp, [sp, #40]	; 0x28
   bb43a:	69dc      	ldr	r4, [r3, #28]
   bb43c:	463a      	mov	r2, r7
   bb43e:	4643      	mov	r3, r8
   bb440:	4629      	mov	r1, r5
   bb442:	46a4      	mov	ip, r4
   bb444:	b001      	add	sp, #4
   bb446:	e8bd 4ff0 	ldmia.w	sp!, {r4, r5, r6, r7, r8, r9, sl, fp, lr}
   bb44a:	4760      	bx	ip

000bb44c <_ZNK10__cxxabiv120__si_class_type_info11__do_upcastEPKNS_17__class_type_infoEPKvRNS1_15__upcast_resultE>:
   bb44c:	e92d 41f0 	stmdb	sp!, {r4, r5, r6, r7, r8, lr}
   bb450:	4607      	mov	r7, r0
   bb452:	460c      	mov	r4, r1
   bb454:	4615      	mov	r5, r2
   bb456:	461e      	mov	r6, r3
   bb458:	f7ff ff6d 	bl	bb336 <_ZNK10__cxxabiv117__class_type_info11__do_upcastEPKS0_PKvRNS0_15__upcast_resultE>
   bb45c:	b948      	cbnz	r0, bb472 <_ZNK10__cxxabiv120__si_class_type_info11__do_upcastEPKNS_17__class_type_infoEPKvRNS1_15__upcast_resultE+0x26>
   bb45e:	68b8      	ldr	r0, [r7, #8]
   bb460:	6803      	ldr	r3, [r0, #0]
   bb462:	699f      	ldr	r7, [r3, #24]
   bb464:	462a      	mov	r2, r5
   bb466:	4633      	mov	r3, r6
   bb468:	4621      	mov	r1, r4
   bb46a:	46bc      	mov	ip, r7
   bb46c:	e8bd 41f0 	ldmia.w	sp!, {r4, r5, r6, r7, r8, lr}
   bb470:	4760      	bx	ip
   bb472:	e8bd 81f0 	ldmia.w	sp!, {r4, r5, r6, r7, r8, pc}

000bb476 <_ZNSt9type_infoD1Ev>:
   bb476:	4770      	bx	lr

000bb478 <_ZNKSt9type_info14__is_pointer_pEv>:
   bb478:	2000      	movs	r0, #0
   bb47a:	4770      	bx	lr

000bb47c <_ZNKSt9type_infoeqERKS_>:
   bb47c:	4281      	cmp	r1, r0
   bb47e:	b508      	push	{r3, lr}
   bb480:	d00e      	beq.n	bb4a0 <_ZNKSt9type_infoeqERKS_+0x24>
   bb482:	6840      	ldr	r0, [r0, #4]
   bb484:	7803      	ldrb	r3, [r0, #0]
   bb486:	2b2a      	cmp	r3, #42	; 0x2a
   bb488:	d00c      	beq.n	bb4a4 <_ZNKSt9type_infoeqERKS_+0x28>
   bb48a:	6849      	ldr	r1, [r1, #4]
   bb48c:	780b      	ldrb	r3, [r1, #0]
   bb48e:	2b2a      	cmp	r3, #42	; 0x2a
   bb490:	bf08      	it	eq
   bb492:	3101      	addeq	r1, #1
   bb494:	f000 fec6 	bl	bc224 <strcmp>
   bb498:	fab0 f080 	clz	r0, r0
   bb49c:	0940      	lsrs	r0, r0, #5
   bb49e:	bd08      	pop	{r3, pc}
   bb4a0:	2001      	movs	r0, #1
   bb4a2:	e7fc      	b.n	bb49e <_ZNKSt9type_infoeqERKS_+0x22>
   bb4a4:	2000      	movs	r0, #0
   bb4a6:	e7fa      	b.n	bb49e <_ZNKSt9type_infoeqERKS_+0x22>

000bb4a8 <floorf>:
   bb4a8:	ee10 2a10 	vmov	r2, s0
   bb4ac:	f3c2 53c7 	ubfx	r3, r2, #23, #8
   bb4b0:	3b7f      	subs	r3, #127	; 0x7f
   bb4b2:	2b16      	cmp	r3, #22
   bb4b4:	f022 4100 	bic.w	r1, r2, #2147483648	; 0x80000000
   bb4b8:	dc28      	bgt.n	bb50c <floorf+0x64>
   bb4ba:	2b00      	cmp	r3, #0
   bb4bc:	db18      	blt.n	bb4f0 <floorf+0x48>
   bb4be:	491a      	ldr	r1, [pc, #104]	; (bb528 <floorf+0x80>)
   bb4c0:	4119      	asrs	r1, r3
   bb4c2:	420a      	tst	r2, r1
   bb4c4:	d021      	beq.n	bb50a <floorf+0x62>
   bb4c6:	eddf 7a19 	vldr	s15, [pc, #100]	; bb52c <floorf+0x84>
   bb4ca:	ee70 7a27 	vadd.f32	s15, s0, s15
   bb4ce:	eef5 7ac0 	vcmpe.f32	s15, #0.0
   bb4d2:	eef1 fa10 	vmrs	APSR_nzcv, fpscr
   bb4d6:	dd18      	ble.n	bb50a <floorf+0x62>
   bb4d8:	2a00      	cmp	r2, #0
   bb4da:	da04      	bge.n	bb4e6 <floorf+0x3e>
   bb4dc:	f44f 0000 	mov.w	r0, #8388608	; 0x800000
   bb4e0:	fa40 f303 	asr.w	r3, r0, r3
   bb4e4:	441a      	add	r2, r3
   bb4e6:	ea22 0301 	bic.w	r3, r2, r1
   bb4ea:	ee00 3a10 	vmov	s0, r3
   bb4ee:	4770      	bx	lr
   bb4f0:	eddf 7a0e 	vldr	s15, [pc, #56]	; bb52c <floorf+0x84>
   bb4f4:	ee70 7a27 	vadd.f32	s15, s0, s15
   bb4f8:	eef5 7ac0 	vcmpe.f32	s15, #0.0
   bb4fc:	eef1 fa10 	vmrs	APSR_nzcv, fpscr
   bb500:	dd03      	ble.n	bb50a <floorf+0x62>
   bb502:	2a00      	cmp	r2, #0
   bb504:	db08      	blt.n	bb518 <floorf+0x70>
   bb506:	ed9f 0a0a 	vldr	s0, [pc, #40]	; bb530 <floorf+0x88>
   bb50a:	4770      	bx	lr
   bb50c:	f1b1 4fff 	cmp.w	r1, #2139095040	; 0x7f800000
   bb510:	d3fb      	bcc.n	bb50a <floorf+0x62>
   bb512:	ee30 0a00 	vadd.f32	s0, s0, s0
   bb516:	4770      	bx	lr
   bb518:	eeff 7a00 	vmov.f32	s15, #240	; 0xbf800000 -1.0
   bb51c:	2900      	cmp	r1, #0
   bb51e:	bf18      	it	ne
   bb520:	eeb0 0a67 	vmovne.f32	s0, s15
   bb524:	4770      	bx	lr
   bb526:	bf00      	nop
   bb528:	007fffff 	.word	0x007fffff
   bb52c:	7149f2ca 	.word	0x7149f2ca
   bb530:	00000000 	.word	0x00000000

000bb534 <sqrt>:
   bb534:	b538      	push	{r3, r4, r5, lr}
   bb536:	ed2d 8b02 	vpush	{d8}
   bb53a:	ec55 4b10 	vmov	r4, r5, d0
   bb53e:	f000 f833 	bl	bb5a8 <__ieee754_sqrt>
   bb542:	4b18      	ldr	r3, [pc, #96]	; (bb5a4 <sqrt+0x70>)
   bb544:	eeb0 8a40 	vmov.f32	s16, s0
   bb548:	eef0 8a60 	vmov.f32	s17, s1
   bb54c:	f993 3000 	ldrsb.w	r3, [r3]
   bb550:	3301      	adds	r3, #1
   bb552:	d00d      	beq.n	bb570 <sqrt+0x3c>
   bb554:	4622      	mov	r2, r4
   bb556:	462b      	mov	r3, r5
   bb558:	4620      	mov	r0, r4
   bb55a:	4629      	mov	r1, r5
   bb55c:	f000 fd46 	bl	bbfec <__aeabi_dcmpun>
   bb560:	b930      	cbnz	r0, bb570 <sqrt+0x3c>
   bb562:	2200      	movs	r2, #0
   bb564:	2300      	movs	r3, #0
   bb566:	4620      	mov	r0, r4
   bb568:	4629      	mov	r1, r5
   bb56a:	f000 fd17 	bl	bbf9c <__aeabi_dcmplt>
   bb56e:	b930      	cbnz	r0, bb57e <sqrt+0x4a>
   bb570:	eeb0 0a48 	vmov.f32	s0, s16
   bb574:	eef0 0a68 	vmov.f32	s1, s17
   bb578:	ecbd 8b02 	vpop	{d8}
   bb57c:	bd38      	pop	{r3, r4, r5, pc}
   bb57e:	f7fd fac5 	bl	b8b0c <__errno>
   bb582:	2200      	movs	r2, #0
   bb584:	2300      	movs	r3, #0
   bb586:	2121      	movs	r1, #33	; 0x21
   bb588:	6001      	str	r1, [r0, #0]
   bb58a:	4610      	mov	r0, r2
   bb58c:	4619      	mov	r1, r3
   bb58e:	f000 fbbd 	bl	bbd0c <__aeabi_ddiv>
   bb592:	ec41 0b18 	vmov	d8, r0, r1
   bb596:	eeb0 0a48 	vmov.f32	s0, s16
   bb59a:	eef0 0a68 	vmov.f32	s1, s17
   bb59e:	ecbd 8b02 	vpop	{d8}
   bb5a2:	bd38      	pop	{r3, r4, r5, pc}
   bb5a4:	200350c4 	.word	0x200350c4

000bb5a8 <__ieee754_sqrt>:
   bb5a8:	e92d 41f0 	stmdb	sp!, {r4, r5, r6, r7, r8, lr}
   bb5ac:	4a63      	ldr	r2, [pc, #396]	; (bb73c <__ieee754_sqrt+0x194>)
   bb5ae:	ec55 4b10 	vmov	r4, r5, d0
   bb5b2:	43aa      	bics	r2, r5
   bb5b4:	f000 809f 	beq.w	bb6f6 <__ieee754_sqrt+0x14e>
   bb5b8:	2d00      	cmp	r5, #0
   bb5ba:	ee10 ca10 	vmov	ip, s0
   bb5be:	462b      	mov	r3, r5
   bb5c0:	dd54      	ble.n	bb66c <__ieee754_sqrt+0xc4>
   bb5c2:	1529      	asrs	r1, r5, #20
   bb5c4:	d063      	beq.n	bb68e <__ieee754_sqrt+0xe6>
   bb5c6:	f3c3 0313 	ubfx	r3, r3, #0, #20
   bb5ca:	f2a1 37ff 	subw	r7, r1, #1023	; 0x3ff
   bb5ce:	07c9      	lsls	r1, r1, #31
   bb5d0:	f443 1380 	orr.w	r3, r3, #1048576	; 0x100000
   bb5d4:	d404      	bmi.n	bb5e0 <__ieee754_sqrt+0x38>
   bb5d6:	005b      	lsls	r3, r3, #1
   bb5d8:	eb03 73dc 	add.w	r3, r3, ip, lsr #31
   bb5dc:	ea4f 0c4c 	mov.w	ip, ip, lsl #1
   bb5e0:	ea4f 72dc 	mov.w	r2, ip, lsr #31
   bb5e4:	2600      	movs	r6, #0
   bb5e6:	eb02 0343 	add.w	r3, r2, r3, lsl #1
   bb5ea:	107f      	asrs	r7, r7, #1
   bb5ec:	ea4f 0c4c 	mov.w	ip, ip, lsl #1
   bb5f0:	f04f 0e16 	mov.w	lr, #22
   bb5f4:	4634      	mov	r4, r6
   bb5f6:	f44f 1200 	mov.w	r2, #2097152	; 0x200000
   bb5fa:	18a1      	adds	r1, r4, r2
   bb5fc:	4299      	cmp	r1, r3
   bb5fe:	dc02      	bgt.n	bb606 <__ieee754_sqrt+0x5e>
   bb600:	1a5b      	subs	r3, r3, r1
   bb602:	188c      	adds	r4, r1, r2
   bb604:	4416      	add	r6, r2
   bb606:	005b      	lsls	r3, r3, #1
   bb608:	f1be 0e01 	subs.w	lr, lr, #1
   bb60c:	eb03 73dc 	add.w	r3, r3, ip, lsr #31
   bb610:	ea4f 0252 	mov.w	r2, r2, lsr #1
   bb614:	ea4f 0c4c 	mov.w	ip, ip, lsl #1
   bb618:	d1ef      	bne.n	bb5fa <__ieee754_sqrt+0x52>
   bb61a:	4675      	mov	r5, lr
   bb61c:	2020      	movs	r0, #32
   bb61e:	f04f 4200 	mov.w	r2, #2147483648	; 0x80000000
   bb622:	e00a      	b.n	bb63a <__ieee754_sqrt+0x92>
   bb624:	d044      	beq.n	bb6b0 <__ieee754_sqrt+0x108>
   bb626:	ea4f 71dc 	mov.w	r1, ip, lsr #31
   bb62a:	3801      	subs	r0, #1
   bb62c:	eb01 0343 	add.w	r3, r1, r3, lsl #1
   bb630:	ea4f 0c4c 	mov.w	ip, ip, lsl #1
   bb634:	ea4f 0252 	mov.w	r2, r2, lsr #1
   bb638:	d043      	beq.n	bb6c2 <__ieee754_sqrt+0x11a>
   bb63a:	42a3      	cmp	r3, r4
   bb63c:	eb02 010e 	add.w	r1, r2, lr
   bb640:	ddf0      	ble.n	bb624 <__ieee754_sqrt+0x7c>
   bb642:	2900      	cmp	r1, #0
   bb644:	eb01 0e02 	add.w	lr, r1, r2
   bb648:	db0a      	blt.n	bb660 <__ieee754_sqrt+0xb8>
   bb64a:	46a0      	mov	r8, r4
   bb64c:	1b1b      	subs	r3, r3, r4
   bb64e:	4561      	cmp	r1, ip
   bb650:	bf88      	it	hi
   bb652:	f103 33ff 	addhi.w	r3, r3, #4294967295	; 0xffffffff
   bb656:	ebac 0c01 	sub.w	ip, ip, r1
   bb65a:	4415      	add	r5, r2
   bb65c:	4644      	mov	r4, r8
   bb65e:	e7e2      	b.n	bb626 <__ieee754_sqrt+0x7e>
   bb660:	f1be 0f00 	cmp.w	lr, #0
   bb664:	dbf1      	blt.n	bb64a <__ieee754_sqrt+0xa2>
   bb666:	f104 0801 	add.w	r8, r4, #1
   bb66a:	e7ef      	b.n	bb64c <__ieee754_sqrt+0xa4>
   bb66c:	f025 4200 	bic.w	r2, r5, #2147483648	; 0x80000000
   bb670:	4322      	orrs	r2, r4
   bb672:	d038      	beq.n	bb6e6 <__ieee754_sqrt+0x13e>
   bb674:	2d00      	cmp	r5, #0
   bb676:	d14e      	bne.n	bb716 <__ieee754_sqrt+0x16e>
   bb678:	4629      	mov	r1, r5
   bb67a:	ea4f 22dc 	mov.w	r2, ip, lsr #11
   bb67e:	3915      	subs	r1, #21
   bb680:	4613      	mov	r3, r2
   bb682:	ea4f 5c4c 	mov.w	ip, ip, lsl #21
   bb686:	2a00      	cmp	r2, #0
   bb688:	d0f7      	beq.n	bb67a <__ieee754_sqrt+0xd2>
   bb68a:	02d6      	lsls	r6, r2, #11
   bb68c:	d450      	bmi.n	bb730 <__ieee754_sqrt+0x188>
   bb68e:	2000      	movs	r0, #0
   bb690:	005b      	lsls	r3, r3, #1
   bb692:	02dd      	lsls	r5, r3, #11
   bb694:	4604      	mov	r4, r0
   bb696:	f100 0001 	add.w	r0, r0, #1
   bb69a:	d5f9      	bpl.n	bb690 <__ieee754_sqrt+0xe8>
   bb69c:	461a      	mov	r2, r3
   bb69e:	4663      	mov	r3, ip
   bb6a0:	fa0c fc00 	lsl.w	ip, ip, r0
   bb6a4:	f1c0 0020 	rsb	r0, r0, #32
   bb6a8:	40c3      	lsrs	r3, r0
   bb6aa:	1b09      	subs	r1, r1, r4
   bb6ac:	4313      	orrs	r3, r2
   bb6ae:	e78a      	b.n	bb5c6 <__ieee754_sqrt+0x1e>
   bb6b0:	4561      	cmp	r1, ip
   bb6b2:	d8b8      	bhi.n	bb626 <__ieee754_sqrt+0x7e>
   bb6b4:	2900      	cmp	r1, #0
   bb6b6:	eb01 0e02 	add.w	lr, r1, r2
   bb6ba:	dbd1      	blt.n	bb660 <__ieee754_sqrt+0xb8>
   bb6bc:	4698      	mov	r8, r3
   bb6be:	2300      	movs	r3, #0
   bb6c0:	e7c9      	b.n	bb656 <__ieee754_sqrt+0xae>
   bb6c2:	ea53 030c 	orrs.w	r3, r3, ip
   bb6c6:	d110      	bne.n	bb6ea <__ieee754_sqrt+0x142>
   bb6c8:	0868      	lsrs	r0, r5, #1
   bb6ca:	1071      	asrs	r1, r6, #1
   bb6cc:	07f3      	lsls	r3, r6, #31
   bb6ce:	f101 517f 	add.w	r1, r1, #1069547520	; 0x3fc00000
   bb6d2:	f501 1100 	add.w	r1, r1, #2097152	; 0x200000
   bb6d6:	bf48      	it	mi
   bb6d8:	f040 4000 	orrmi.w	r0, r0, #2147483648	; 0x80000000
   bb6dc:	eb01 5307 	add.w	r3, r1, r7, lsl #20
   bb6e0:	4602      	mov	r2, r0
   bb6e2:	ec43 2b10 	vmov	d0, r2, r3
   bb6e6:	e8bd 81f0 	ldmia.w	sp!, {r4, r5, r6, r7, r8, pc}
   bb6ea:	1c6a      	adds	r2, r5, #1
   bb6ec:	bf16      	itet	ne
   bb6ee:	1c68      	addne	r0, r5, #1
   bb6f0:	3601      	addeq	r6, #1
   bb6f2:	0840      	lsrne	r0, r0, #1
   bb6f4:	e7e9      	b.n	bb6ca <__ieee754_sqrt+0x122>
   bb6f6:	ee10 2a10 	vmov	r2, s0
   bb6fa:	ee10 0a10 	vmov	r0, s0
   bb6fe:	462b      	mov	r3, r5
   bb700:	4629      	mov	r1, r5
   bb702:	f000 f9d9 	bl	bbab8 <__aeabi_dmul>
   bb706:	4622      	mov	r2, r4
   bb708:	462b      	mov	r3, r5
   bb70a:	f000 f81f 	bl	bb74c <__adddf3>
   bb70e:	ec41 0b10 	vmov	d0, r0, r1
   bb712:	e8bd 81f0 	ldmia.w	sp!, {r4, r5, r6, r7, r8, pc}
   bb716:	ee10 2a10 	vmov	r2, s0
   bb71a:	4620      	mov	r0, r4
   bb71c:	4629      	mov	r1, r5
   bb71e:	f000 f813 	bl	bb748 <__aeabi_dsub>
   bb722:	4602      	mov	r2, r0
   bb724:	460b      	mov	r3, r1
   bb726:	f000 faf1 	bl	bbd0c <__aeabi_ddiv>
   bb72a:	ec41 0b10 	vmov	d0, r0, r1
   bb72e:	e7da      	b.n	bb6e6 <__ieee754_sqrt+0x13e>
   bb730:	4663      	mov	r3, ip
   bb732:	2020      	movs	r0, #32
   bb734:	f04f 34ff 	mov.w	r4, #4294967295	; 0xffffffff
   bb738:	e7b6      	b.n	bb6a8 <__ieee754_sqrt+0x100>
   bb73a:	bf00      	nop
   bb73c:	7ff00000 	.word	0x7ff00000

000bb740 <__aeabi_drsub>:
   bb740:	f081 4100 	eor.w	r1, r1, #2147483648	; 0x80000000
   bb744:	e002      	b.n	bb74c <__adddf3>
   bb746:	bf00      	nop

000bb748 <__aeabi_dsub>:
   bb748:	f083 4300 	eor.w	r3, r3, #2147483648	; 0x80000000

000bb74c <__adddf3>:
   bb74c:	b530      	push	{r4, r5, lr}
   bb74e:	ea4f 0441 	mov.w	r4, r1, lsl #1
   bb752:	ea4f 0543 	mov.w	r5, r3, lsl #1
   bb756:	ea94 0f05 	teq	r4, r5
   bb75a:	bf08      	it	eq
   bb75c:	ea90 0f02 	teqeq	r0, r2
   bb760:	bf1f      	itttt	ne
   bb762:	ea54 0c00 	orrsne.w	ip, r4, r0
   bb766:	ea55 0c02 	orrsne.w	ip, r5, r2
   bb76a:	ea7f 5c64 	mvnsne.w	ip, r4, asr #21
   bb76e:	ea7f 5c65 	mvnsne.w	ip, r5, asr #21
   bb772:	f000 80e2 	beq.w	bb93a <__adddf3+0x1ee>
   bb776:	ea4f 5454 	mov.w	r4, r4, lsr #21
   bb77a:	ebd4 5555 	rsbs	r5, r4, r5, lsr #21
   bb77e:	bfb8      	it	lt
   bb780:	426d      	neglt	r5, r5
   bb782:	dd0c      	ble.n	bb79e <__adddf3+0x52>
   bb784:	442c      	add	r4, r5
   bb786:	ea80 0202 	eor.w	r2, r0, r2
   bb78a:	ea81 0303 	eor.w	r3, r1, r3
   bb78e:	ea82 0000 	eor.w	r0, r2, r0
   bb792:	ea83 0101 	eor.w	r1, r3, r1
   bb796:	ea80 0202 	eor.w	r2, r0, r2
   bb79a:	ea81 0303 	eor.w	r3, r1, r3
   bb79e:	2d36      	cmp	r5, #54	; 0x36
   bb7a0:	bf88      	it	hi
   bb7a2:	bd30      	pophi	{r4, r5, pc}
   bb7a4:	f011 4f00 	tst.w	r1, #2147483648	; 0x80000000
   bb7a8:	ea4f 3101 	mov.w	r1, r1, lsl #12
   bb7ac:	f44f 1c80 	mov.w	ip, #1048576	; 0x100000
   bb7b0:	ea4c 3111 	orr.w	r1, ip, r1, lsr #12
   bb7b4:	d002      	beq.n	bb7bc <__adddf3+0x70>
   bb7b6:	4240      	negs	r0, r0
   bb7b8:	eb61 0141 	sbc.w	r1, r1, r1, lsl #1
   bb7bc:	f013 4f00 	tst.w	r3, #2147483648	; 0x80000000
   bb7c0:	ea4f 3303 	mov.w	r3, r3, lsl #12
   bb7c4:	ea4c 3313 	orr.w	r3, ip, r3, lsr #12
   bb7c8:	d002      	beq.n	bb7d0 <__adddf3+0x84>
   bb7ca:	4252      	negs	r2, r2
   bb7cc:	eb63 0343 	sbc.w	r3, r3, r3, lsl #1
   bb7d0:	ea94 0f05 	teq	r4, r5
   bb7d4:	f000 80a7 	beq.w	bb926 <__adddf3+0x1da>
   bb7d8:	f1a4 0401 	sub.w	r4, r4, #1
   bb7dc:	f1d5 0e20 	rsbs	lr, r5, #32
   bb7e0:	db0d      	blt.n	bb7fe <__adddf3+0xb2>
   bb7e2:	fa02 fc0e 	lsl.w	ip, r2, lr
   bb7e6:	fa22 f205 	lsr.w	r2, r2, r5
   bb7ea:	1880      	adds	r0, r0, r2
   bb7ec:	f141 0100 	adc.w	r1, r1, #0
   bb7f0:	fa03 f20e 	lsl.w	r2, r3, lr
   bb7f4:	1880      	adds	r0, r0, r2
   bb7f6:	fa43 f305 	asr.w	r3, r3, r5
   bb7fa:	4159      	adcs	r1, r3
   bb7fc:	e00e      	b.n	bb81c <__adddf3+0xd0>
   bb7fe:	f1a5 0520 	sub.w	r5, r5, #32
   bb802:	f10e 0e20 	add.w	lr, lr, #32
   bb806:	2a01      	cmp	r2, #1
   bb808:	fa03 fc0e 	lsl.w	ip, r3, lr
   bb80c:	bf28      	it	cs
   bb80e:	f04c 0c02 	orrcs.w	ip, ip, #2
   bb812:	fa43 f305 	asr.w	r3, r3, r5
   bb816:	18c0      	adds	r0, r0, r3
   bb818:	eb51 71e3 	adcs.w	r1, r1, r3, asr #31
   bb81c:	f001 4500 	and.w	r5, r1, #2147483648	; 0x80000000
   bb820:	d507      	bpl.n	bb832 <__adddf3+0xe6>
   bb822:	f04f 0e00 	mov.w	lr, #0
   bb826:	f1dc 0c00 	rsbs	ip, ip, #0
   bb82a:	eb7e 0000 	sbcs.w	r0, lr, r0
   bb82e:	eb6e 0101 	sbc.w	r1, lr, r1
   bb832:	f5b1 1f80 	cmp.w	r1, #1048576	; 0x100000
   bb836:	d31b      	bcc.n	bb870 <__adddf3+0x124>
   bb838:	f5b1 1f00 	cmp.w	r1, #2097152	; 0x200000
   bb83c:	d30c      	bcc.n	bb858 <__adddf3+0x10c>
   bb83e:	0849      	lsrs	r1, r1, #1
   bb840:	ea5f 0030 	movs.w	r0, r0, rrx
   bb844:	ea4f 0c3c 	mov.w	ip, ip, rrx
   bb848:	f104 0401 	add.w	r4, r4, #1
   bb84c:	ea4f 5244 	mov.w	r2, r4, lsl #21
   bb850:	f512 0f80 	cmn.w	r2, #4194304	; 0x400000
   bb854:	f080 809a 	bcs.w	bb98c <__adddf3+0x240>
   bb858:	f1bc 4f00 	cmp.w	ip, #2147483648	; 0x80000000
   bb85c:	bf08      	it	eq
   bb85e:	ea5f 0c50 	movseq.w	ip, r0, lsr #1
   bb862:	f150 0000 	adcs.w	r0, r0, #0
   bb866:	eb41 5104 	adc.w	r1, r1, r4, lsl #20
   bb86a:	ea41 0105 	orr.w	r1, r1, r5
   bb86e:	bd30      	pop	{r4, r5, pc}
   bb870:	ea5f 0c4c 	movs.w	ip, ip, lsl #1
   bb874:	4140      	adcs	r0, r0
   bb876:	eb41 0101 	adc.w	r1, r1, r1
   bb87a:	3c01      	subs	r4, #1
   bb87c:	bf28      	it	cs
   bb87e:	f5b1 1f80 	cmpcs.w	r1, #1048576	; 0x100000
   bb882:	d2e9      	bcs.n	bb858 <__adddf3+0x10c>
   bb884:	f091 0f00 	teq	r1, #0
   bb888:	bf04      	itt	eq
   bb88a:	4601      	moveq	r1, r0
   bb88c:	2000      	moveq	r0, #0
   bb88e:	fab1 f381 	clz	r3, r1
   bb892:	bf08      	it	eq
   bb894:	3320      	addeq	r3, #32
   bb896:	f1a3 030b 	sub.w	r3, r3, #11
   bb89a:	f1b3 0220 	subs.w	r2, r3, #32
   bb89e:	da0c      	bge.n	bb8ba <__adddf3+0x16e>
   bb8a0:	320c      	adds	r2, #12
   bb8a2:	dd08      	ble.n	bb8b6 <__adddf3+0x16a>
   bb8a4:	f102 0c14 	add.w	ip, r2, #20
   bb8a8:	f1c2 020c 	rsb	r2, r2, #12
   bb8ac:	fa01 f00c 	lsl.w	r0, r1, ip
   bb8b0:	fa21 f102 	lsr.w	r1, r1, r2
   bb8b4:	e00c      	b.n	bb8d0 <__adddf3+0x184>
   bb8b6:	f102 0214 	add.w	r2, r2, #20
   bb8ba:	bfd8      	it	le
   bb8bc:	f1c2 0c20 	rsble	ip, r2, #32
   bb8c0:	fa01 f102 	lsl.w	r1, r1, r2
   bb8c4:	fa20 fc0c 	lsr.w	ip, r0, ip
   bb8c8:	bfdc      	itt	le
   bb8ca:	ea41 010c 	orrle.w	r1, r1, ip
   bb8ce:	4090      	lslle	r0, r2
   bb8d0:	1ae4      	subs	r4, r4, r3
   bb8d2:	bfa2      	ittt	ge
   bb8d4:	eb01 5104 	addge.w	r1, r1, r4, lsl #20
   bb8d8:	4329      	orrge	r1, r5
   bb8da:	bd30      	popge	{r4, r5, pc}
   bb8dc:	ea6f 0404 	mvn.w	r4, r4
   bb8e0:	3c1f      	subs	r4, #31
   bb8e2:	da1c      	bge.n	bb91e <__adddf3+0x1d2>
   bb8e4:	340c      	adds	r4, #12
   bb8e6:	dc0e      	bgt.n	bb906 <__adddf3+0x1ba>
   bb8e8:	f104 0414 	add.w	r4, r4, #20
   bb8ec:	f1c4 0220 	rsb	r2, r4, #32
   bb8f0:	fa20 f004 	lsr.w	r0, r0, r4
   bb8f4:	fa01 f302 	lsl.w	r3, r1, r2
   bb8f8:	ea40 0003 	orr.w	r0, r0, r3
   bb8fc:	fa21 f304 	lsr.w	r3, r1, r4
   bb900:	ea45 0103 	orr.w	r1, r5, r3
   bb904:	bd30      	pop	{r4, r5, pc}
   bb906:	f1c4 040c 	rsb	r4, r4, #12
   bb90a:	f1c4 0220 	rsb	r2, r4, #32
   bb90e:	fa20 f002 	lsr.w	r0, r0, r2
   bb912:	fa01 f304 	lsl.w	r3, r1, r4
   bb916:	ea40 0003 	orr.w	r0, r0, r3
   bb91a:	4629      	mov	r1, r5
   bb91c:	bd30      	pop	{r4, r5, pc}
   bb91e:	fa21 f004 	lsr.w	r0, r1, r4
   bb922:	4629      	mov	r1, r5
   bb924:	bd30      	pop	{r4, r5, pc}
   bb926:	f094 0f00 	teq	r4, #0
   bb92a:	f483 1380 	eor.w	r3, r3, #1048576	; 0x100000
   bb92e:	bf06      	itte	eq
   bb930:	f481 1180 	eoreq.w	r1, r1, #1048576	; 0x100000
   bb934:	3401      	addeq	r4, #1
   bb936:	3d01      	subne	r5, #1
   bb938:	e74e      	b.n	bb7d8 <__adddf3+0x8c>
   bb93a:	ea7f 5c64 	mvns.w	ip, r4, asr #21
   bb93e:	bf18      	it	ne
   bb940:	ea7f 5c65 	mvnsne.w	ip, r5, asr #21
   bb944:	d029      	beq.n	bb99a <__adddf3+0x24e>
   bb946:	ea94 0f05 	teq	r4, r5
   bb94a:	bf08      	it	eq
   bb94c:	ea90 0f02 	teqeq	r0, r2
   bb950:	d005      	beq.n	bb95e <__adddf3+0x212>
   bb952:	ea54 0c00 	orrs.w	ip, r4, r0
   bb956:	bf04      	itt	eq
   bb958:	4619      	moveq	r1, r3
   bb95a:	4610      	moveq	r0, r2
   bb95c:	bd30      	pop	{r4, r5, pc}
   bb95e:	ea91 0f03 	teq	r1, r3
   bb962:	bf1e      	ittt	ne
   bb964:	2100      	movne	r1, #0
   bb966:	2000      	movne	r0, #0
   bb968:	bd30      	popne	{r4, r5, pc}
   bb96a:	ea5f 5c54 	movs.w	ip, r4, lsr #21
   bb96e:	d105      	bne.n	bb97c <__adddf3+0x230>
   bb970:	0040      	lsls	r0, r0, #1
   bb972:	4149      	adcs	r1, r1
   bb974:	bf28      	it	cs
   bb976:	f041 4100 	orrcs.w	r1, r1, #2147483648	; 0x80000000
   bb97a:	bd30      	pop	{r4, r5, pc}
   bb97c:	f514 0480 	adds.w	r4, r4, #4194304	; 0x400000
   bb980:	bf3c      	itt	cc
   bb982:	f501 1180 	addcc.w	r1, r1, #1048576	; 0x100000
   bb986:	bd30      	popcc	{r4, r5, pc}
   bb988:	f001 4500 	and.w	r5, r1, #2147483648	; 0x80000000
   bb98c:	f045 41fe 	orr.w	r1, r5, #2130706432	; 0x7f000000
   bb990:	f441 0170 	orr.w	r1, r1, #15728640	; 0xf00000
   bb994:	f04f 0000 	mov.w	r0, #0
   bb998:	bd30      	pop	{r4, r5, pc}
   bb99a:	ea7f 5c64 	mvns.w	ip, r4, asr #21
   bb99e:	bf1a      	itte	ne
   bb9a0:	4619      	movne	r1, r3
   bb9a2:	4610      	movne	r0, r2
   bb9a4:	ea7f 5c65 	mvnseq.w	ip, r5, asr #21
   bb9a8:	bf1c      	itt	ne
   bb9aa:	460b      	movne	r3, r1
   bb9ac:	4602      	movne	r2, r0
   bb9ae:	ea50 3401 	orrs.w	r4, r0, r1, lsl #12
   bb9b2:	bf06      	itte	eq
   bb9b4:	ea52 3503 	orrseq.w	r5, r2, r3, lsl #12
   bb9b8:	ea91 0f03 	teqeq	r1, r3
   bb9bc:	f441 2100 	orrne.w	r1, r1, #524288	; 0x80000
   bb9c0:	bd30      	pop	{r4, r5, pc}
   bb9c2:	bf00      	nop

000bb9c4 <__aeabi_ui2d>:
   bb9c4:	f090 0f00 	teq	r0, #0
   bb9c8:	bf04      	itt	eq
   bb9ca:	2100      	moveq	r1, #0
   bb9cc:	4770      	bxeq	lr
   bb9ce:	b530      	push	{r4, r5, lr}
   bb9d0:	f44f 6480 	mov.w	r4, #1024	; 0x400
   bb9d4:	f104 0432 	add.w	r4, r4, #50	; 0x32
   bb9d8:	f04f 0500 	mov.w	r5, #0
   bb9dc:	f04f 0100 	mov.w	r1, #0
   bb9e0:	e750      	b.n	bb884 <__adddf3+0x138>
   bb9e2:	bf00      	nop

000bb9e4 <__aeabi_i2d>:
   bb9e4:	f090 0f00 	teq	r0, #0
   bb9e8:	bf04      	itt	eq
   bb9ea:	2100      	moveq	r1, #0
   bb9ec:	4770      	bxeq	lr
   bb9ee:	b530      	push	{r4, r5, lr}
   bb9f0:	f44f 6480 	mov.w	r4, #1024	; 0x400
   bb9f4:	f104 0432 	add.w	r4, r4, #50	; 0x32
   bb9f8:	f010 4500 	ands.w	r5, r0, #2147483648	; 0x80000000
   bb9fc:	bf48      	it	mi
   bb9fe:	4240      	negmi	r0, r0
   bba00:	f04f 0100 	mov.w	r1, #0
   bba04:	e73e      	b.n	bb884 <__adddf3+0x138>
   bba06:	bf00      	nop

000bba08 <__aeabi_f2d>:
   bba08:	0042      	lsls	r2, r0, #1
   bba0a:	ea4f 01e2 	mov.w	r1, r2, asr #3
   bba0e:	ea4f 0131 	mov.w	r1, r1, rrx
   bba12:	ea4f 7002 	mov.w	r0, r2, lsl #28
   bba16:	bf1f      	itttt	ne
   bba18:	f012 437f 	andsne.w	r3, r2, #4278190080	; 0xff000000
   bba1c:	f093 4f7f 	teqne	r3, #4278190080	; 0xff000000
   bba20:	f081 5160 	eorne.w	r1, r1, #939524096	; 0x38000000
   bba24:	4770      	bxne	lr
   bba26:	f032 427f 	bics.w	r2, r2, #4278190080	; 0xff000000
   bba2a:	bf08      	it	eq
   bba2c:	4770      	bxeq	lr
   bba2e:	f093 4f7f 	teq	r3, #4278190080	; 0xff000000
   bba32:	bf04      	itt	eq
   bba34:	f441 2100 	orreq.w	r1, r1, #524288	; 0x80000
   bba38:	4770      	bxeq	lr
   bba3a:	b530      	push	{r4, r5, lr}
   bba3c:	f44f 7460 	mov.w	r4, #896	; 0x380
   bba40:	f001 4500 	and.w	r5, r1, #2147483648	; 0x80000000
   bba44:	f021 4100 	bic.w	r1, r1, #2147483648	; 0x80000000
   bba48:	e71c      	b.n	bb884 <__adddf3+0x138>
   bba4a:	bf00      	nop

000bba4c <__aeabi_ul2d>:
   bba4c:	ea50 0201 	orrs.w	r2, r0, r1
   bba50:	bf08      	it	eq
   bba52:	4770      	bxeq	lr
   bba54:	b530      	push	{r4, r5, lr}
   bba56:	f04f 0500 	mov.w	r5, #0
   bba5a:	e00a      	b.n	bba72 <__aeabi_l2d+0x16>

000bba5c <__aeabi_l2d>:
   bba5c:	ea50 0201 	orrs.w	r2, r0, r1
   bba60:	bf08      	it	eq
   bba62:	4770      	bxeq	lr
   bba64:	b530      	push	{r4, r5, lr}
   bba66:	f011 4500 	ands.w	r5, r1, #2147483648	; 0x80000000
   bba6a:	d502      	bpl.n	bba72 <__aeabi_l2d+0x16>
   bba6c:	4240      	negs	r0, r0
   bba6e:	eb61 0141 	sbc.w	r1, r1, r1, lsl #1
   bba72:	f44f 6480 	mov.w	r4, #1024	; 0x400
   bba76:	f104 0432 	add.w	r4, r4, #50	; 0x32
   bba7a:	ea5f 5c91 	movs.w	ip, r1, lsr #22
   bba7e:	f43f aed8 	beq.w	bb832 <__adddf3+0xe6>
   bba82:	f04f 0203 	mov.w	r2, #3
   bba86:	ea5f 0cdc 	movs.w	ip, ip, lsr #3
   bba8a:	bf18      	it	ne
   bba8c:	3203      	addne	r2, #3
   bba8e:	ea5f 0cdc 	movs.w	ip, ip, lsr #3
   bba92:	bf18      	it	ne
   bba94:	3203      	addne	r2, #3
   bba96:	eb02 02dc 	add.w	r2, r2, ip, lsr #3
   bba9a:	f1c2 0320 	rsb	r3, r2, #32
   bba9e:	fa00 fc03 	lsl.w	ip, r0, r3
   bbaa2:	fa20 f002 	lsr.w	r0, r0, r2
   bbaa6:	fa01 fe03 	lsl.w	lr, r1, r3
   bbaaa:	ea40 000e 	orr.w	r0, r0, lr
   bbaae:	fa21 f102 	lsr.w	r1, r1, r2
   bbab2:	4414      	add	r4, r2
   bbab4:	e6bd      	b.n	bb832 <__adddf3+0xe6>
   bbab6:	bf00      	nop

000bbab8 <__aeabi_dmul>:
   bbab8:	b570      	push	{r4, r5, r6, lr}
   bbaba:	f04f 0cff 	mov.w	ip, #255	; 0xff
   bbabe:	f44c 6ce0 	orr.w	ip, ip, #1792	; 0x700
   bbac2:	ea1c 5411 	ands.w	r4, ip, r1, lsr #20
   bbac6:	bf1d      	ittte	ne
   bbac8:	ea1c 5513 	andsne.w	r5, ip, r3, lsr #20
   bbacc:	ea94 0f0c 	teqne	r4, ip
   bbad0:	ea95 0f0c 	teqne	r5, ip
   bbad4:	f000 f8de 	bleq	bbc94 <__aeabi_dmul+0x1dc>
   bbad8:	442c      	add	r4, r5
   bbada:	ea81 0603 	eor.w	r6, r1, r3
   bbade:	ea21 514c 	bic.w	r1, r1, ip, lsl #21
   bbae2:	ea23 534c 	bic.w	r3, r3, ip, lsl #21
   bbae6:	ea50 3501 	orrs.w	r5, r0, r1, lsl #12
   bbaea:	bf18      	it	ne
   bbaec:	ea52 3503 	orrsne.w	r5, r2, r3, lsl #12
   bbaf0:	f441 1180 	orr.w	r1, r1, #1048576	; 0x100000
   bbaf4:	f443 1380 	orr.w	r3, r3, #1048576	; 0x100000
   bbaf8:	d038      	beq.n	bbb6c <__aeabi_dmul+0xb4>
   bbafa:	fba0 ce02 	umull	ip, lr, r0, r2
   bbafe:	f04f 0500 	mov.w	r5, #0
   bbb02:	fbe1 e502 	umlal	lr, r5, r1, r2
   bbb06:	f006 4200 	and.w	r2, r6, #2147483648	; 0x80000000
   bbb0a:	fbe0 e503 	umlal	lr, r5, r0, r3
   bbb0e:	f04f 0600 	mov.w	r6, #0
   bbb12:	fbe1 5603 	umlal	r5, r6, r1, r3
   bbb16:	f09c 0f00 	teq	ip, #0
   bbb1a:	bf18      	it	ne
   bbb1c:	f04e 0e01 	orrne.w	lr, lr, #1
   bbb20:	f1a4 04ff 	sub.w	r4, r4, #255	; 0xff
   bbb24:	f5b6 7f00 	cmp.w	r6, #512	; 0x200
   bbb28:	f564 7440 	sbc.w	r4, r4, #768	; 0x300
   bbb2c:	d204      	bcs.n	bbb38 <__aeabi_dmul+0x80>
   bbb2e:	ea5f 0e4e 	movs.w	lr, lr, lsl #1
   bbb32:	416d      	adcs	r5, r5
   bbb34:	eb46 0606 	adc.w	r6, r6, r6
   bbb38:	ea42 21c6 	orr.w	r1, r2, r6, lsl #11
   bbb3c:	ea41 5155 	orr.w	r1, r1, r5, lsr #21
   bbb40:	ea4f 20c5 	mov.w	r0, r5, lsl #11
   bbb44:	ea40 505e 	orr.w	r0, r0, lr, lsr #21
   bbb48:	ea4f 2ece 	mov.w	lr, lr, lsl #11
   bbb4c:	f1b4 0cfd 	subs.w	ip, r4, #253	; 0xfd
   bbb50:	bf88      	it	hi
   bbb52:	f5bc 6fe0 	cmphi.w	ip, #1792	; 0x700
   bbb56:	d81e      	bhi.n	bbb96 <__aeabi_dmul+0xde>
   bbb58:	f1be 4f00 	cmp.w	lr, #2147483648	; 0x80000000
   bbb5c:	bf08      	it	eq
   bbb5e:	ea5f 0e50 	movseq.w	lr, r0, lsr #1
   bbb62:	f150 0000 	adcs.w	r0, r0, #0
   bbb66:	eb41 5104 	adc.w	r1, r1, r4, lsl #20
   bbb6a:	bd70      	pop	{r4, r5, r6, pc}
   bbb6c:	f006 4600 	and.w	r6, r6, #2147483648	; 0x80000000
   bbb70:	ea46 0101 	orr.w	r1, r6, r1
   bbb74:	ea40 0002 	orr.w	r0, r0, r2
   bbb78:	ea81 0103 	eor.w	r1, r1, r3
   bbb7c:	ebb4 045c 	subs.w	r4, r4, ip, lsr #1
   bbb80:	bfc2      	ittt	gt
   bbb82:	ebd4 050c 	rsbsgt	r5, r4, ip
   bbb86:	ea41 5104 	orrgt.w	r1, r1, r4, lsl #20
   bbb8a:	bd70      	popgt	{r4, r5, r6, pc}
   bbb8c:	f441 1180 	orr.w	r1, r1, #1048576	; 0x100000
   bbb90:	f04f 0e00 	mov.w	lr, #0
   bbb94:	3c01      	subs	r4, #1
   bbb96:	f300 80ab 	bgt.w	bbcf0 <__aeabi_dmul+0x238>
   bbb9a:	f114 0f36 	cmn.w	r4, #54	; 0x36
   bbb9e:	bfde      	ittt	le
   bbba0:	2000      	movle	r0, #0
   bbba2:	f001 4100 	andle.w	r1, r1, #2147483648	; 0x80000000
   bbba6:	bd70      	pople	{r4, r5, r6, pc}
   bbba8:	f1c4 0400 	rsb	r4, r4, #0
   bbbac:	3c20      	subs	r4, #32
   bbbae:	da35      	bge.n	bbc1c <__aeabi_dmul+0x164>
   bbbb0:	340c      	adds	r4, #12
   bbbb2:	dc1b      	bgt.n	bbbec <__aeabi_dmul+0x134>
   bbbb4:	f104 0414 	add.w	r4, r4, #20
   bbbb8:	f1c4 0520 	rsb	r5, r4, #32
   bbbbc:	fa00 f305 	lsl.w	r3, r0, r5
   bbbc0:	fa20 f004 	lsr.w	r0, r0, r4
   bbbc4:	fa01 f205 	lsl.w	r2, r1, r5
   bbbc8:	ea40 0002 	orr.w	r0, r0, r2
   bbbcc:	f001 4200 	and.w	r2, r1, #2147483648	; 0x80000000
   bbbd0:	f021 4100 	bic.w	r1, r1, #2147483648	; 0x80000000
   bbbd4:	eb10 70d3 	adds.w	r0, r0, r3, lsr #31
   bbbd8:	fa21 f604 	lsr.w	r6, r1, r4
   bbbdc:	eb42 0106 	adc.w	r1, r2, r6
   bbbe0:	ea5e 0e43 	orrs.w	lr, lr, r3, lsl #1
   bbbe4:	bf08      	it	eq
   bbbe6:	ea20 70d3 	biceq.w	r0, r0, r3, lsr #31
   bbbea:	bd70      	pop	{r4, r5, r6, pc}
   bbbec:	f1c4 040c 	rsb	r4, r4, #12
   bbbf0:	f1c4 0520 	rsb	r5, r4, #32
   bbbf4:	fa00 f304 	lsl.w	r3, r0, r4
   bbbf8:	fa20 f005 	lsr.w	r0, r0, r5
   bbbfc:	fa01 f204 	lsl.w	r2, r1, r4
   bbc00:	ea40 0002 	orr.w	r0, r0, r2
   bbc04:	f001 4100 	and.w	r1, r1, #2147483648	; 0x80000000
   bbc08:	eb10 70d3 	adds.w	r0, r0, r3, lsr #31
   bbc0c:	f141 0100 	adc.w	r1, r1, #0
   bbc10:	ea5e 0e43 	orrs.w	lr, lr, r3, lsl #1
   bbc14:	bf08      	it	eq
   bbc16:	ea20 70d3 	biceq.w	r0, r0, r3, lsr #31
   bbc1a:	bd70      	pop	{r4, r5, r6, pc}
   bbc1c:	f1c4 0520 	rsb	r5, r4, #32
   bbc20:	fa00 f205 	lsl.w	r2, r0, r5
   bbc24:	ea4e 0e02 	orr.w	lr, lr, r2
   bbc28:	fa20 f304 	lsr.w	r3, r0, r4
   bbc2c:	fa01 f205 	lsl.w	r2, r1, r5
   bbc30:	ea43 0302 	orr.w	r3, r3, r2
   bbc34:	fa21 f004 	lsr.w	r0, r1, r4
   bbc38:	f001 4100 	and.w	r1, r1, #2147483648	; 0x80000000
   bbc3c:	fa21 f204 	lsr.w	r2, r1, r4
   bbc40:	ea20 0002 	bic.w	r0, r0, r2
   bbc44:	eb00 70d3 	add.w	r0, r0, r3, lsr #31
   bbc48:	ea5e 0e43 	orrs.w	lr, lr, r3, lsl #1
   bbc4c:	bf08      	it	eq
   bbc4e:	ea20 70d3 	biceq.w	r0, r0, r3, lsr #31
   bbc52:	bd70      	pop	{r4, r5, r6, pc}
   bbc54:	f094 0f00 	teq	r4, #0
   bbc58:	d10f      	bne.n	bbc7a <__aeabi_dmul+0x1c2>
   bbc5a:	f001 4600 	and.w	r6, r1, #2147483648	; 0x80000000
   bbc5e:	0040      	lsls	r0, r0, #1
   bbc60:	eb41 0101 	adc.w	r1, r1, r1
   bbc64:	f411 1f80 	tst.w	r1, #1048576	; 0x100000
   bbc68:	bf08      	it	eq
   bbc6a:	3c01      	subeq	r4, #1
   bbc6c:	d0f7      	beq.n	bbc5e <__aeabi_dmul+0x1a6>
   bbc6e:	ea41 0106 	orr.w	r1, r1, r6
   bbc72:	f095 0f00 	teq	r5, #0
   bbc76:	bf18      	it	ne
   bbc78:	4770      	bxne	lr
   bbc7a:	f003 4600 	and.w	r6, r3, #2147483648	; 0x80000000
   bbc7e:	0052      	lsls	r2, r2, #1
   bbc80:	eb43 0303 	adc.w	r3, r3, r3
   bbc84:	f413 1f80 	tst.w	r3, #1048576	; 0x100000
   bbc88:	bf08      	it	eq
   bbc8a:	3d01      	subeq	r5, #1
   bbc8c:	d0f7      	beq.n	bbc7e <__aeabi_dmul+0x1c6>
   bbc8e:	ea43 0306 	orr.w	r3, r3, r6
   bbc92:	4770      	bx	lr
   bbc94:	ea94 0f0c 	teq	r4, ip
   bbc98:	ea0c 5513 	and.w	r5, ip, r3, lsr #20
   bbc9c:	bf18      	it	ne
   bbc9e:	ea95 0f0c 	teqne	r5, ip
   bbca2:	d00c      	beq.n	bbcbe <__aeabi_dmul+0x206>
   bbca4:	ea50 0641 	orrs.w	r6, r0, r1, lsl #1
   bbca8:	bf18      	it	ne
   bbcaa:	ea52 0643 	orrsne.w	r6, r2, r3, lsl #1
   bbcae:	d1d1      	bne.n	bbc54 <__aeabi_dmul+0x19c>
   bbcb0:	ea81 0103 	eor.w	r1, r1, r3
   bbcb4:	f001 4100 	and.w	r1, r1, #2147483648	; 0x80000000
   bbcb8:	f04f 0000 	mov.w	r0, #0
   bbcbc:	bd70      	pop	{r4, r5, r6, pc}
   bbcbe:	ea50 0641 	orrs.w	r6, r0, r1, lsl #1
   bbcc2:	bf06      	itte	eq
   bbcc4:	4610      	moveq	r0, r2
   bbcc6:	4619      	moveq	r1, r3
   bbcc8:	ea52 0643 	orrsne.w	r6, r2, r3, lsl #1
   bbccc:	d019      	beq.n	bbd02 <__aeabi_dmul+0x24a>
   bbcce:	ea94 0f0c 	teq	r4, ip
   bbcd2:	d102      	bne.n	bbcda <__aeabi_dmul+0x222>
   bbcd4:	ea50 3601 	orrs.w	r6, r0, r1, lsl #12
   bbcd8:	d113      	bne.n	bbd02 <__aeabi_dmul+0x24a>
   bbcda:	ea95 0f0c 	teq	r5, ip
   bbcde:	d105      	bne.n	bbcec <__aeabi_dmul+0x234>
   bbce0:	ea52 3603 	orrs.w	r6, r2, r3, lsl #12
   bbce4:	bf1c      	itt	ne
   bbce6:	4610      	movne	r0, r2
   bbce8:	4619      	movne	r1, r3
   bbcea:	d10a      	bne.n	bbd02 <__aeabi_dmul+0x24a>
   bbcec:	ea81 0103 	eor.w	r1, r1, r3
   bbcf0:	f001 4100 	and.w	r1, r1, #2147483648	; 0x80000000
   bbcf4:	f041 41fe 	orr.w	r1, r1, #2130706432	; 0x7f000000
   bbcf8:	f441 0170 	orr.w	r1, r1, #15728640	; 0xf00000
   bbcfc:	f04f 0000 	mov.w	r0, #0
   bbd00:	bd70      	pop	{r4, r5, r6, pc}
   bbd02:	f041 41fe 	orr.w	r1, r1, #2130706432	; 0x7f000000
   bbd06:	f441 0178 	orr.w	r1, r1, #16252928	; 0xf80000
   bbd0a:	bd70      	pop	{r4, r5, r6, pc}

000bbd0c <__aeabi_ddiv>:
   bbd0c:	b570      	push	{r4, r5, r6, lr}
   bbd0e:	f04f 0cff 	mov.w	ip, #255	; 0xff
   bbd12:	f44c 6ce0 	orr.w	ip, ip, #1792	; 0x700
   bbd16:	ea1c 5411 	ands.w	r4, ip, r1, lsr #20
   bbd1a:	bf1d      	ittte	ne
   bbd1c:	ea1c 5513 	andsne.w	r5, ip, r3, lsr #20
   bbd20:	ea94 0f0c 	teqne	r4, ip
   bbd24:	ea95 0f0c 	teqne	r5, ip
   bbd28:	f000 f8a7 	bleq	bbe7a <__aeabi_ddiv+0x16e>
   bbd2c:	eba4 0405 	sub.w	r4, r4, r5
   bbd30:	ea81 0e03 	eor.w	lr, r1, r3
   bbd34:	ea52 3503 	orrs.w	r5, r2, r3, lsl #12
   bbd38:	ea4f 3101 	mov.w	r1, r1, lsl #12
   bbd3c:	f000 8088 	beq.w	bbe50 <__aeabi_ddiv+0x144>
   bbd40:	ea4f 3303 	mov.w	r3, r3, lsl #12
   bbd44:	f04f 5580 	mov.w	r5, #268435456	; 0x10000000
   bbd48:	ea45 1313 	orr.w	r3, r5, r3, lsr #4
   bbd4c:	ea43 6312 	orr.w	r3, r3, r2, lsr #24
   bbd50:	ea4f 2202 	mov.w	r2, r2, lsl #8
   bbd54:	ea45 1511 	orr.w	r5, r5, r1, lsr #4
   bbd58:	ea45 6510 	orr.w	r5, r5, r0, lsr #24
   bbd5c:	ea4f 2600 	mov.w	r6, r0, lsl #8
   bbd60:	f00e 4100 	and.w	r1, lr, #2147483648	; 0x80000000
   bbd64:	429d      	cmp	r5, r3
   bbd66:	bf08      	it	eq
   bbd68:	4296      	cmpeq	r6, r2
   bbd6a:	f144 04fd 	adc.w	r4, r4, #253	; 0xfd
   bbd6e:	f504 7440 	add.w	r4, r4, #768	; 0x300
   bbd72:	d202      	bcs.n	bbd7a <__aeabi_ddiv+0x6e>
   bbd74:	085b      	lsrs	r3, r3, #1
   bbd76:	ea4f 0232 	mov.w	r2, r2, rrx
   bbd7a:	1ab6      	subs	r6, r6, r2
   bbd7c:	eb65 0503 	sbc.w	r5, r5, r3
   bbd80:	085b      	lsrs	r3, r3, #1
   bbd82:	ea4f 0232 	mov.w	r2, r2, rrx
   bbd86:	f44f 1080 	mov.w	r0, #1048576	; 0x100000
   bbd8a:	f44f 2c00 	mov.w	ip, #524288	; 0x80000
   bbd8e:	ebb6 0e02 	subs.w	lr, r6, r2
   bbd92:	eb75 0e03 	sbcs.w	lr, r5, r3
   bbd96:	bf22      	ittt	cs
   bbd98:	1ab6      	subcs	r6, r6, r2
   bbd9a:	4675      	movcs	r5, lr
   bbd9c:	ea40 000c 	orrcs.w	r0, r0, ip
   bbda0:	085b      	lsrs	r3, r3, #1
   bbda2:	ea4f 0232 	mov.w	r2, r2, rrx
   bbda6:	ebb6 0e02 	subs.w	lr, r6, r2
   bbdaa:	eb75 0e03 	sbcs.w	lr, r5, r3
   bbdae:	bf22      	ittt	cs
   bbdb0:	1ab6      	subcs	r6, r6, r2
   bbdb2:	4675      	movcs	r5, lr
   bbdb4:	ea40 005c 	orrcs.w	r0, r0, ip, lsr #1
   bbdb8:	085b      	lsrs	r3, r3, #1
   bbdba:	ea4f 0232 	mov.w	r2, r2, rrx
   bbdbe:	ebb6 0e02 	subs.w	lr, r6, r2
   bbdc2:	eb75 0e03 	sbcs.w	lr, r5, r3
   bbdc6:	bf22      	ittt	cs
   bbdc8:	1ab6      	subcs	r6, r6, r2
   bbdca:	4675      	movcs	r5, lr
   bbdcc:	ea40 009c 	orrcs.w	r0, r0, ip, lsr #2
   bbdd0:	085b      	lsrs	r3, r3, #1
   bbdd2:	ea4f 0232 	mov.w	r2, r2, rrx
   bbdd6:	ebb6 0e02 	subs.w	lr, r6, r2
   bbdda:	eb75 0e03 	sbcs.w	lr, r5, r3
   bbdde:	bf22      	ittt	cs
   bbde0:	1ab6      	subcs	r6, r6, r2
   bbde2:	4675      	movcs	r5, lr
   bbde4:	ea40 00dc 	orrcs.w	r0, r0, ip, lsr #3
   bbde8:	ea55 0e06 	orrs.w	lr, r5, r6
   bbdec:	d018      	beq.n	bbe20 <__aeabi_ddiv+0x114>
   bbdee:	ea4f 1505 	mov.w	r5, r5, lsl #4
   bbdf2:	ea45 7516 	orr.w	r5, r5, r6, lsr #28
   bbdf6:	ea4f 1606 	mov.w	r6, r6, lsl #4
   bbdfa:	ea4f 03c3 	mov.w	r3, r3, lsl #3
   bbdfe:	ea43 7352 	orr.w	r3, r3, r2, lsr #29
   bbe02:	ea4f 02c2 	mov.w	r2, r2, lsl #3
   bbe06:	ea5f 1c1c 	movs.w	ip, ip, lsr #4
   bbe0a:	d1c0      	bne.n	bbd8e <__aeabi_ddiv+0x82>
   bbe0c:	f411 1f80 	tst.w	r1, #1048576	; 0x100000
   bbe10:	d10b      	bne.n	bbe2a <__aeabi_ddiv+0x11e>
   bbe12:	ea41 0100 	orr.w	r1, r1, r0
   bbe16:	f04f 0000 	mov.w	r0, #0
   bbe1a:	f04f 4c00 	mov.w	ip, #2147483648	; 0x80000000
   bbe1e:	e7b6      	b.n	bbd8e <__aeabi_ddiv+0x82>
   bbe20:	f411 1f80 	tst.w	r1, #1048576	; 0x100000
   bbe24:	bf04      	itt	eq
   bbe26:	4301      	orreq	r1, r0
   bbe28:	2000      	moveq	r0, #0
   bbe2a:	f1b4 0cfd 	subs.w	ip, r4, #253	; 0xfd
   bbe2e:	bf88      	it	hi
   bbe30:	f5bc 6fe0 	cmphi.w	ip, #1792	; 0x700
   bbe34:	f63f aeaf 	bhi.w	bbb96 <__aeabi_dmul+0xde>
   bbe38:	ebb5 0c03 	subs.w	ip, r5, r3
   bbe3c:	bf04      	itt	eq
   bbe3e:	ebb6 0c02 	subseq.w	ip, r6, r2
   bbe42:	ea5f 0c50 	movseq.w	ip, r0, lsr #1
   bbe46:	f150 0000 	adcs.w	r0, r0, #0
   bbe4a:	eb41 5104 	adc.w	r1, r1, r4, lsl #20
   bbe4e:	bd70      	pop	{r4, r5, r6, pc}
   bbe50:	f00e 4e00 	and.w	lr, lr, #2147483648	; 0x80000000
   bbe54:	ea4e 3111 	orr.w	r1, lr, r1, lsr #12
   bbe58:	eb14 045c 	adds.w	r4, r4, ip, lsr #1
   bbe5c:	bfc2      	ittt	gt
   bbe5e:	ebd4 050c 	rsbsgt	r5, r4, ip
   bbe62:	ea41 5104 	orrgt.w	r1, r1, r4, lsl #20
   bbe66:	bd70      	popgt	{r4, r5, r6, pc}
   bbe68:	f441 1180 	orr.w	r1, r1, #1048576	; 0x100000
   bbe6c:	f04f 0e00 	mov.w	lr, #0
   bbe70:	3c01      	subs	r4, #1
   bbe72:	e690      	b.n	bbb96 <__aeabi_dmul+0xde>
   bbe74:	ea45 0e06 	orr.w	lr, r5, r6
   bbe78:	e68d      	b.n	bbb96 <__aeabi_dmul+0xde>
   bbe7a:	ea0c 5513 	and.w	r5, ip, r3, lsr #20
   bbe7e:	ea94 0f0c 	teq	r4, ip
   bbe82:	bf08      	it	eq
   bbe84:	ea95 0f0c 	teqeq	r5, ip
   bbe88:	f43f af3b 	beq.w	bbd02 <__aeabi_dmul+0x24a>
   bbe8c:	ea94 0f0c 	teq	r4, ip
   bbe90:	d10a      	bne.n	bbea8 <__aeabi_ddiv+0x19c>
   bbe92:	ea50 3401 	orrs.w	r4, r0, r1, lsl #12
   bbe96:	f47f af34 	bne.w	bbd02 <__aeabi_dmul+0x24a>
   bbe9a:	ea95 0f0c 	teq	r5, ip
   bbe9e:	f47f af25 	bne.w	bbcec <__aeabi_dmul+0x234>
   bbea2:	4610      	mov	r0, r2
   bbea4:	4619      	mov	r1, r3
   bbea6:	e72c      	b.n	bbd02 <__aeabi_dmul+0x24a>
   bbea8:	ea95 0f0c 	teq	r5, ip
   bbeac:	d106      	bne.n	bbebc <__aeabi_ddiv+0x1b0>
   bbeae:	ea52 3503 	orrs.w	r5, r2, r3, lsl #12
   bbeb2:	f43f aefd 	beq.w	bbcb0 <__aeabi_dmul+0x1f8>
   bbeb6:	4610      	mov	r0, r2
   bbeb8:	4619      	mov	r1, r3
   bbeba:	e722      	b.n	bbd02 <__aeabi_dmul+0x24a>
   bbebc:	ea50 0641 	orrs.w	r6, r0, r1, lsl #1
   bbec0:	bf18      	it	ne
   bbec2:	ea52 0643 	orrsne.w	r6, r2, r3, lsl #1
   bbec6:	f47f aec5 	bne.w	bbc54 <__aeabi_dmul+0x19c>
   bbeca:	ea50 0441 	orrs.w	r4, r0, r1, lsl #1
   bbece:	f47f af0d 	bne.w	bbcec <__aeabi_dmul+0x234>
   bbed2:	ea52 0543 	orrs.w	r5, r2, r3, lsl #1
   bbed6:	f47f aeeb 	bne.w	bbcb0 <__aeabi_dmul+0x1f8>
   bbeda:	e712      	b.n	bbd02 <__aeabi_dmul+0x24a>

000bbedc <__gedf2>:
   bbedc:	f04f 3cff 	mov.w	ip, #4294967295	; 0xffffffff
   bbee0:	e006      	b.n	bbef0 <__cmpdf2+0x4>
   bbee2:	bf00      	nop

000bbee4 <__ledf2>:
   bbee4:	f04f 0c01 	mov.w	ip, #1
   bbee8:	e002      	b.n	bbef0 <__cmpdf2+0x4>
   bbeea:	bf00      	nop

000bbeec <__cmpdf2>:
   bbeec:	f04f 0c01 	mov.w	ip, #1
   bbef0:	f84d cd04 	str.w	ip, [sp, #-4]!
   bbef4:	ea4f 0c41 	mov.w	ip, r1, lsl #1
   bbef8:	ea7f 5c6c 	mvns.w	ip, ip, asr #21
   bbefc:	ea4f 0c43 	mov.w	ip, r3, lsl #1
   bbf00:	bf18      	it	ne
   bbf02:	ea7f 5c6c 	mvnsne.w	ip, ip, asr #21
   bbf06:	d01b      	beq.n	bbf40 <__cmpdf2+0x54>
   bbf08:	b001      	add	sp, #4
   bbf0a:	ea50 0c41 	orrs.w	ip, r0, r1, lsl #1
   bbf0e:	bf0c      	ite	eq
   bbf10:	ea52 0c43 	orrseq.w	ip, r2, r3, lsl #1
   bbf14:	ea91 0f03 	teqne	r1, r3
   bbf18:	bf02      	ittt	eq
   bbf1a:	ea90 0f02 	teqeq	r0, r2
   bbf1e:	2000      	moveq	r0, #0
   bbf20:	4770      	bxeq	lr
   bbf22:	f110 0f00 	cmn.w	r0, #0
   bbf26:	ea91 0f03 	teq	r1, r3
   bbf2a:	bf58      	it	pl
   bbf2c:	4299      	cmppl	r1, r3
   bbf2e:	bf08      	it	eq
   bbf30:	4290      	cmpeq	r0, r2
   bbf32:	bf2c      	ite	cs
   bbf34:	17d8      	asrcs	r0, r3, #31
   bbf36:	ea6f 70e3 	mvncc.w	r0, r3, asr #31
   bbf3a:	f040 0001 	orr.w	r0, r0, #1
   bbf3e:	4770      	bx	lr
   bbf40:	ea4f 0c41 	mov.w	ip, r1, lsl #1
   bbf44:	ea7f 5c6c 	mvns.w	ip, ip, asr #21
   bbf48:	d102      	bne.n	bbf50 <__cmpdf2+0x64>
   bbf4a:	ea50 3c01 	orrs.w	ip, r0, r1, lsl #12
   bbf4e:	d107      	bne.n	bbf60 <__cmpdf2+0x74>
   bbf50:	ea4f 0c43 	mov.w	ip, r3, lsl #1
   bbf54:	ea7f 5c6c 	mvns.w	ip, ip, asr #21
   bbf58:	d1d6      	bne.n	bbf08 <__cmpdf2+0x1c>
   bbf5a:	ea52 3c03 	orrs.w	ip, r2, r3, lsl #12
   bbf5e:	d0d3      	beq.n	bbf08 <__cmpdf2+0x1c>
   bbf60:	f85d 0b04 	ldr.w	r0, [sp], #4
   bbf64:	4770      	bx	lr
   bbf66:	bf00      	nop

000bbf68 <__aeabi_cdrcmple>:
   bbf68:	4684      	mov	ip, r0
   bbf6a:	4610      	mov	r0, r2
   bbf6c:	4662      	mov	r2, ip
   bbf6e:	468c      	mov	ip, r1
   bbf70:	4619      	mov	r1, r3
   bbf72:	4663      	mov	r3, ip
   bbf74:	e000      	b.n	bbf78 <__aeabi_cdcmpeq>
   bbf76:	bf00      	nop

000bbf78 <__aeabi_cdcmpeq>:
   bbf78:	b501      	push	{r0, lr}
   bbf7a:	f7ff ffb7 	bl	bbeec <__cmpdf2>
   bbf7e:	2800      	cmp	r0, #0
   bbf80:	bf48      	it	mi
   bbf82:	f110 0f00 	cmnmi.w	r0, #0
   bbf86:	bd01      	pop	{r0, pc}

000bbf88 <__aeabi_dcmpeq>:
   bbf88:	f84d ed08 	str.w	lr, [sp, #-8]!
   bbf8c:	f7ff fff4 	bl	bbf78 <__aeabi_cdcmpeq>
   bbf90:	bf0c      	ite	eq
   bbf92:	2001      	moveq	r0, #1
   bbf94:	2000      	movne	r0, #0
   bbf96:	f85d fb08 	ldr.w	pc, [sp], #8
   bbf9a:	bf00      	nop

000bbf9c <__aeabi_dcmplt>:
   bbf9c:	f84d ed08 	str.w	lr, [sp, #-8]!
   bbfa0:	f7ff ffea 	bl	bbf78 <__aeabi_cdcmpeq>
   bbfa4:	bf34      	ite	cc
   bbfa6:	2001      	movcc	r0, #1
   bbfa8:	2000      	movcs	r0, #0
   bbfaa:	f85d fb08 	ldr.w	pc, [sp], #8
   bbfae:	bf00      	nop

000bbfb0 <__aeabi_dcmple>:
   bbfb0:	f84d ed08 	str.w	lr, [sp, #-8]!
   bbfb4:	f7ff ffe0 	bl	bbf78 <__aeabi_cdcmpeq>
   bbfb8:	bf94      	ite	ls
   bbfba:	2001      	movls	r0, #1
   bbfbc:	2000      	movhi	r0, #0
   bbfbe:	f85d fb08 	ldr.w	pc, [sp], #8
   bbfc2:	bf00      	nop

000bbfc4 <__aeabi_dcmpge>:
   bbfc4:	f84d ed08 	str.w	lr, [sp, #-8]!
   bbfc8:	f7ff ffce 	bl	bbf68 <__aeabi_cdrcmple>
   bbfcc:	bf94      	ite	ls
   bbfce:	2001      	movls	r0, #1
   bbfd0:	2000      	movhi	r0, #0
   bbfd2:	f85d fb08 	ldr.w	pc, [sp], #8
   bbfd6:	bf00      	nop

000bbfd8 <__aeabi_dcmpgt>:
   bbfd8:	f84d ed08 	str.w	lr, [sp, #-8]!
   bbfdc:	f7ff ffc4 	bl	bbf68 <__aeabi_cdrcmple>
   bbfe0:	bf34      	ite	cc
   bbfe2:	2001      	movcc	r0, #1
   bbfe4:	2000      	movcs	r0, #0
   bbfe6:	f85d fb08 	ldr.w	pc, [sp], #8
   bbfea:	bf00      	nop

000bbfec <__aeabi_dcmpun>:
   bbfec:	ea4f 0c41 	mov.w	ip, r1, lsl #1
   bbff0:	ea7f 5c6c 	mvns.w	ip, ip, asr #21
   bbff4:	d102      	bne.n	bbffc <__aeabi_dcmpun+0x10>
   bbff6:	ea50 3c01 	orrs.w	ip, r0, r1, lsl #12
   bbffa:	d10a      	bne.n	bc012 <__aeabi_dcmpun+0x26>
   bbffc:	ea4f 0c43 	mov.w	ip, r3, lsl #1
   bc000:	ea7f 5c6c 	mvns.w	ip, ip, asr #21
   bc004:	d102      	bne.n	bc00c <__aeabi_dcmpun+0x20>
   bc006:	ea52 3c03 	orrs.w	ip, r2, r3, lsl #12
   bc00a:	d102      	bne.n	bc012 <__aeabi_dcmpun+0x26>
   bc00c:	f04f 0000 	mov.w	r0, #0
   bc010:	4770      	bx	lr
   bc012:	f04f 0001 	mov.w	r0, #1
   bc016:	4770      	bx	lr

000bc018 <__aeabi_d2uiz>:
   bc018:	004a      	lsls	r2, r1, #1
   bc01a:	d211      	bcs.n	bc040 <__aeabi_d2uiz+0x28>
   bc01c:	f512 1200 	adds.w	r2, r2, #2097152	; 0x200000
   bc020:	d211      	bcs.n	bc046 <__aeabi_d2uiz+0x2e>
   bc022:	d50d      	bpl.n	bc040 <__aeabi_d2uiz+0x28>
   bc024:	f46f 7378 	mvn.w	r3, #992	; 0x3e0
   bc028:	ebb3 5262 	subs.w	r2, r3, r2, asr #21
   bc02c:	d40e      	bmi.n	bc04c <__aeabi_d2uiz+0x34>
   bc02e:	ea4f 23c1 	mov.w	r3, r1, lsl #11
   bc032:	f043 4300 	orr.w	r3, r3, #2147483648	; 0x80000000
   bc036:	ea43 5350 	orr.w	r3, r3, r0, lsr #21
   bc03a:	fa23 f002 	lsr.w	r0, r3, r2
   bc03e:	4770      	bx	lr
   bc040:	f04f 0000 	mov.w	r0, #0
   bc044:	4770      	bx	lr
   bc046:	ea50 3001 	orrs.w	r0, r0, r1, lsl #12
   bc04a:	d102      	bne.n	bc052 <__aeabi_d2uiz+0x3a>
   bc04c:	f04f 30ff 	mov.w	r0, #4294967295	; 0xffffffff
   bc050:	4770      	bx	lr
   bc052:	f04f 0000 	mov.w	r0, #0
   bc056:	4770      	bx	lr

000bc058 <__aeabi_d2f>:
   bc058:	ea4f 0241 	mov.w	r2, r1, lsl #1
   bc05c:	f1b2 43e0 	subs.w	r3, r2, #1879048192	; 0x70000000
   bc060:	bf24      	itt	cs
   bc062:	f5b3 1c00 	subscs.w	ip, r3, #2097152	; 0x200000
   bc066:	f1dc 5cfe 	rsbscs	ip, ip, #532676608	; 0x1fc00000
   bc06a:	d90d      	bls.n	bc088 <__aeabi_d2f+0x30>
   bc06c:	f001 4c00 	and.w	ip, r1, #2147483648	; 0x80000000
   bc070:	ea4f 02c0 	mov.w	r2, r0, lsl #3
   bc074:	ea4c 7050 	orr.w	r0, ip, r0, lsr #29
   bc078:	f1b2 4f00 	cmp.w	r2, #2147483648	; 0x80000000
   bc07c:	eb40 0083 	adc.w	r0, r0, r3, lsl #2
   bc080:	bf08      	it	eq
   bc082:	f020 0001 	biceq.w	r0, r0, #1
   bc086:	4770      	bx	lr
   bc088:	f011 4f80 	tst.w	r1, #1073741824	; 0x40000000
   bc08c:	d121      	bne.n	bc0d2 <__aeabi_d2f+0x7a>
   bc08e:	f113 7238 	adds.w	r2, r3, #48234496	; 0x2e00000
   bc092:	bfbc      	itt	lt
   bc094:	f001 4000 	andlt.w	r0, r1, #2147483648	; 0x80000000
   bc098:	4770      	bxlt	lr
   bc09a:	f441 1180 	orr.w	r1, r1, #1048576	; 0x100000
   bc09e:	ea4f 5252 	mov.w	r2, r2, lsr #21
   bc0a2:	f1c2 0218 	rsb	r2, r2, #24
   bc0a6:	f1c2 0c20 	rsb	ip, r2, #32
   bc0aa:	fa10 f30c 	lsls.w	r3, r0, ip
   bc0ae:	fa20 f002 	lsr.w	r0, r0, r2
   bc0b2:	bf18      	it	ne
   bc0b4:	f040 0001 	orrne.w	r0, r0, #1
   bc0b8:	ea4f 23c1 	mov.w	r3, r1, lsl #11
   bc0bc:	ea4f 23d3 	mov.w	r3, r3, lsr #11
   bc0c0:	fa03 fc0c 	lsl.w	ip, r3, ip
   bc0c4:	ea40 000c 	orr.w	r0, r0, ip
   bc0c8:	fa23 f302 	lsr.w	r3, r3, r2
   bc0cc:	ea4f 0343 	mov.w	r3, r3, lsl #1
   bc0d0:	e7cc      	b.n	bc06c <__aeabi_d2f+0x14>
   bc0d2:	ea7f 5362 	mvns.w	r3, r2, asr #21
   bc0d6:	d107      	bne.n	bc0e8 <__aeabi_d2f+0x90>
   bc0d8:	ea50 3301 	orrs.w	r3, r0, r1, lsl #12
   bc0dc:	bf1e      	ittt	ne
   bc0de:	f04f 40fe 	movne.w	r0, #2130706432	; 0x7f000000
   bc0e2:	f440 0040 	orrne.w	r0, r0, #12582912	; 0xc00000
   bc0e6:	4770      	bxne	lr
   bc0e8:	f001 4000 	and.w	r0, r1, #2147483648	; 0x80000000
   bc0ec:	f040 40fe 	orr.w	r0, r0, #2130706432	; 0x7f000000
   bc0f0:	f440 0000 	orr.w	r0, r0, #8388608	; 0x800000
   bc0f4:	4770      	bx	lr
   bc0f6:	bf00      	nop

000bc0f8 <__aeabi_d2ulz>:
   bc0f8:	b5d0      	push	{r4, r6, r7, lr}
   bc0fa:	4b0c      	ldr	r3, [pc, #48]	; (bc12c <__aeabi_d2ulz+0x34>)
   bc0fc:	2200      	movs	r2, #0
   bc0fe:	4606      	mov	r6, r0
   bc100:	460f      	mov	r7, r1
   bc102:	f7ff fcd9 	bl	bbab8 <__aeabi_dmul>
   bc106:	f7ff ff87 	bl	bc018 <__aeabi_d2uiz>
   bc10a:	4604      	mov	r4, r0
   bc10c:	f7ff fc5a 	bl	bb9c4 <__aeabi_ui2d>
   bc110:	4b07      	ldr	r3, [pc, #28]	; (bc130 <__aeabi_d2ulz+0x38>)
   bc112:	2200      	movs	r2, #0
   bc114:	f7ff fcd0 	bl	bbab8 <__aeabi_dmul>
   bc118:	4602      	mov	r2, r0
   bc11a:	460b      	mov	r3, r1
   bc11c:	4630      	mov	r0, r6
   bc11e:	4639      	mov	r1, r7
   bc120:	f7ff fb12 	bl	bb748 <__aeabi_dsub>
   bc124:	f7ff ff78 	bl	bc018 <__aeabi_d2uiz>
   bc128:	4621      	mov	r1, r4
   bc12a:	bdd0      	pop	{r4, r6, r7, pc}
   bc12c:	3df00000 	.word	0x3df00000
   bc130:	41f00000 	.word	0x41f00000

000bc134 <atexit>:
   bc134:	2300      	movs	r3, #0
   bc136:	4601      	mov	r1, r0
   bc138:	461a      	mov	r2, r3
   bc13a:	4618      	mov	r0, r3
   bc13c:	f000 bfce 	b.w	bd0dc <__register_exitproc>

000bc140 <atoi>:
   bc140:	220a      	movs	r2, #10
   bc142:	2100      	movs	r1, #0
   bc144:	f000 bfc0 	b.w	bd0c8 <strtol>

000bc148 <memcmp>:
   bc148:	b510      	push	{r4, lr}
   bc14a:	3901      	subs	r1, #1
   bc14c:	4402      	add	r2, r0
   bc14e:	4290      	cmp	r0, r2
   bc150:	d101      	bne.n	bc156 <memcmp+0xe>
   bc152:	2000      	movs	r0, #0
   bc154:	e005      	b.n	bc162 <memcmp+0x1a>
   bc156:	7803      	ldrb	r3, [r0, #0]
   bc158:	f811 4f01 	ldrb.w	r4, [r1, #1]!
   bc15c:	42a3      	cmp	r3, r4
   bc15e:	d001      	beq.n	bc164 <memcmp+0x1c>
   bc160:	1b18      	subs	r0, r3, r4
   bc162:	bd10      	pop	{r4, pc}
   bc164:	3001      	adds	r0, #1
   bc166:	e7f2      	b.n	bc14e <memcmp+0x6>

000bc168 <memcpy>:
   bc168:	440a      	add	r2, r1
   bc16a:	4291      	cmp	r1, r2
   bc16c:	f100 33ff 	add.w	r3, r0, #4294967295	; 0xffffffff
   bc170:	d100      	bne.n	bc174 <memcpy+0xc>
   bc172:	4770      	bx	lr
   bc174:	b510      	push	{r4, lr}
   bc176:	f811 4b01 	ldrb.w	r4, [r1], #1
   bc17a:	f803 4f01 	strb.w	r4, [r3, #1]!
   bc17e:	4291      	cmp	r1, r2
   bc180:	d1f9      	bne.n	bc176 <memcpy+0xe>
   bc182:	bd10      	pop	{r4, pc}

000bc184 <memmove>:
   bc184:	4288      	cmp	r0, r1
   bc186:	b510      	push	{r4, lr}
   bc188:	eb01 0402 	add.w	r4, r1, r2
   bc18c:	d902      	bls.n	bc194 <memmove+0x10>
   bc18e:	4284      	cmp	r4, r0
   bc190:	4623      	mov	r3, r4
   bc192:	d807      	bhi.n	bc1a4 <memmove+0x20>
   bc194:	1e43      	subs	r3, r0, #1
   bc196:	42a1      	cmp	r1, r4
   bc198:	d008      	beq.n	bc1ac <memmove+0x28>
   bc19a:	f811 2b01 	ldrb.w	r2, [r1], #1
   bc19e:	f803 2f01 	strb.w	r2, [r3, #1]!
   bc1a2:	e7f8      	b.n	bc196 <memmove+0x12>
   bc1a4:	4402      	add	r2, r0
   bc1a6:	4601      	mov	r1, r0
   bc1a8:	428a      	cmp	r2, r1
   bc1aa:	d100      	bne.n	bc1ae <memmove+0x2a>
   bc1ac:	bd10      	pop	{r4, pc}
   bc1ae:	f813 4d01 	ldrb.w	r4, [r3, #-1]!
   bc1b2:	f802 4d01 	strb.w	r4, [r2, #-1]!
   bc1b6:	e7f7      	b.n	bc1a8 <memmove+0x24>

000bc1b8 <memset>:
   bc1b8:	4402      	add	r2, r0
   bc1ba:	4603      	mov	r3, r0
   bc1bc:	4293      	cmp	r3, r2
   bc1be:	d100      	bne.n	bc1c2 <memset+0xa>
   bc1c0:	4770      	bx	lr
   bc1c2:	f803 1b01 	strb.w	r1, [r3], #1
   bc1c6:	e7f9      	b.n	bc1bc <memset+0x4>

000bc1c8 <srand>:
   bc1c8:	b538      	push	{r3, r4, r5, lr}
   bc1ca:	4b10      	ldr	r3, [pc, #64]	; (bc20c <srand+0x44>)
   bc1cc:	681d      	ldr	r5, [r3, #0]
   bc1ce:	6bab      	ldr	r3, [r5, #56]	; 0x38
   bc1d0:	4604      	mov	r4, r0
   bc1d2:	b9b3      	cbnz	r3, bc202 <srand+0x3a>
   bc1d4:	2018      	movs	r0, #24
   bc1d6:	f7fc fc61 	bl	b8a9c <malloc>
   bc1da:	4602      	mov	r2, r0
   bc1dc:	63a8      	str	r0, [r5, #56]	; 0x38
   bc1de:	b920      	cbnz	r0, bc1ea <srand+0x22>
   bc1e0:	4b0b      	ldr	r3, [pc, #44]	; (bc210 <srand+0x48>)
   bc1e2:	480c      	ldr	r0, [pc, #48]	; (bc214 <srand+0x4c>)
   bc1e4:	2142      	movs	r1, #66	; 0x42
   bc1e6:	f7fc fc99 	bl	b8b1c <__assert_func>
   bc1ea:	490b      	ldr	r1, [pc, #44]	; (bc218 <srand+0x50>)
   bc1ec:	4b0b      	ldr	r3, [pc, #44]	; (bc21c <srand+0x54>)
   bc1ee:	e9c0 1300 	strd	r1, r3, [r0]
   bc1f2:	4b0b      	ldr	r3, [pc, #44]	; (bc220 <srand+0x58>)
   bc1f4:	6083      	str	r3, [r0, #8]
   bc1f6:	230b      	movs	r3, #11
   bc1f8:	8183      	strh	r3, [r0, #12]
   bc1fa:	2100      	movs	r1, #0
   bc1fc:	2001      	movs	r0, #1
   bc1fe:	e9c2 0104 	strd	r0, r1, [r2, #16]
   bc202:	6bab      	ldr	r3, [r5, #56]	; 0x38
   bc204:	2200      	movs	r2, #0
   bc206:	611c      	str	r4, [r3, #16]
   bc208:	615a      	str	r2, [r3, #20]
   bc20a:	bd38      	pop	{r3, r4, r5, pc}
   bc20c:	200350c8 	.word	0x200350c8
   bc210:	000bed11 	.word	0x000bed11
   bc214:	000bed28 	.word	0x000bed28
   bc218:	abcd330e 	.word	0xabcd330e
   bc21c:	e66d1234 	.word	0xe66d1234
   bc220:	0005deec 	.word	0x0005deec

000bc224 <strcmp>:
   bc224:	f810 2b01 	ldrb.w	r2, [r0], #1
   bc228:	f811 3b01 	ldrb.w	r3, [r1], #1
   bc22c:	2a01      	cmp	r2, #1
   bc22e:	bf28      	it	cs
   bc230:	429a      	cmpcs	r2, r3
   bc232:	d0f7      	beq.n	bc224 <strcmp>
   bc234:	1ad0      	subs	r0, r2, r3
   bc236:	4770      	bx	lr

000bc238 <strcpy>:
   bc238:	4603      	mov	r3, r0
   bc23a:	f811 2b01 	ldrb.w	r2, [r1], #1
   bc23e:	f803 2b01 	strb.w	r2, [r3], #1
   bc242:	2a00      	cmp	r2, #0
   bc244:	d1f9      	bne.n	bc23a <strcpy+0x2>
   bc246:	4770      	bx	lr

000bc248 <strlen>:
   bc248:	4603      	mov	r3, r0
   bc24a:	f813 2b01 	ldrb.w	r2, [r3], #1
   bc24e:	2a00      	cmp	r2, #0
   bc250:	d1fb      	bne.n	bc24a <strlen+0x2>
   bc252:	1a18      	subs	r0, r3, r0
   bc254:	3801      	subs	r0, #1
   bc256:	4770      	bx	lr

000bc258 <strncmp>:
   bc258:	b510      	push	{r4, lr}
   bc25a:	b17a      	cbz	r2, bc27c <strncmp+0x24>
   bc25c:	4603      	mov	r3, r0
   bc25e:	3901      	subs	r1, #1
   bc260:	1884      	adds	r4, r0, r2
   bc262:	f813 0b01 	ldrb.w	r0, [r3], #1
   bc266:	f811 2f01 	ldrb.w	r2, [r1, #1]!
   bc26a:	4290      	cmp	r0, r2
   bc26c:	d101      	bne.n	bc272 <strncmp+0x1a>
   bc26e:	42a3      	cmp	r3, r4
   bc270:	d101      	bne.n	bc276 <strncmp+0x1e>
   bc272:	1a80      	subs	r0, r0, r2
   bc274:	bd10      	pop	{r4, pc}
   bc276:	2800      	cmp	r0, #0
   bc278:	d1f3      	bne.n	bc262 <strncmp+0xa>
   bc27a:	e7fa      	b.n	bc272 <strncmp+0x1a>
   bc27c:	4610      	mov	r0, r2
   bc27e:	e7f9      	b.n	bc274 <strncmp+0x1c>

000bc280 <strnlen>:
   bc280:	b510      	push	{r4, lr}
   bc282:	4602      	mov	r2, r0
   bc284:	4401      	add	r1, r0
   bc286:	428a      	cmp	r2, r1
   bc288:	4613      	mov	r3, r2
   bc28a:	d003      	beq.n	bc294 <strnlen+0x14>
   bc28c:	781c      	ldrb	r4, [r3, #0]
   bc28e:	3201      	adds	r2, #1
   bc290:	2c00      	cmp	r4, #0
   bc292:	d1f8      	bne.n	bc286 <strnlen+0x6>
   bc294:	1a18      	subs	r0, r3, r0
   bc296:	bd10      	pop	{r4, pc}

000bc298 <strstr>:
   bc298:	780a      	ldrb	r2, [r1, #0]
   bc29a:	b570      	push	{r4, r5, r6, lr}
   bc29c:	b96a      	cbnz	r2, bc2ba <strstr+0x22>
   bc29e:	bd70      	pop	{r4, r5, r6, pc}
   bc2a0:	429a      	cmp	r2, r3
   bc2a2:	d109      	bne.n	bc2b8 <strstr+0x20>
   bc2a4:	460c      	mov	r4, r1
   bc2a6:	4605      	mov	r5, r0
   bc2a8:	f814 3f01 	ldrb.w	r3, [r4, #1]!
   bc2ac:	2b00      	cmp	r3, #0
   bc2ae:	d0f6      	beq.n	bc29e <strstr+0x6>
   bc2b0:	f815 6f01 	ldrb.w	r6, [r5, #1]!
   bc2b4:	429e      	cmp	r6, r3
   bc2b6:	d0f7      	beq.n	bc2a8 <strstr+0x10>
   bc2b8:	3001      	adds	r0, #1
   bc2ba:	7803      	ldrb	r3, [r0, #0]
   bc2bc:	2b00      	cmp	r3, #0
   bc2be:	d1ef      	bne.n	bc2a0 <strstr+0x8>
   bc2c0:	4618      	mov	r0, r3
   bc2c2:	e7ec      	b.n	bc29e <strstr+0x6>

000bc2c4 <sulp>:
   bc2c4:	b570      	push	{r4, r5, r6, lr}
   bc2c6:	4604      	mov	r4, r0
   bc2c8:	460d      	mov	r5, r1
   bc2ca:	ec45 4b10 	vmov	d0, r4, r5
   bc2ce:	4616      	mov	r6, r2
   bc2d0:	f001 fe5e 	bl	bdf90 <__ulp>
   bc2d4:	ec51 0b10 	vmov	r0, r1, d0
   bc2d8:	b17e      	cbz	r6, bc2fa <sulp+0x36>
   bc2da:	f3c5 530a 	ubfx	r3, r5, #20, #11
   bc2de:	f1c3 036b 	rsb	r3, r3, #107	; 0x6b
   bc2e2:	2b00      	cmp	r3, #0
   bc2e4:	dd09      	ble.n	bc2fa <sulp+0x36>
   bc2e6:	051b      	lsls	r3, r3, #20
   bc2e8:	f103 557f 	add.w	r5, r3, #1069547520	; 0x3fc00000
   bc2ec:	2400      	movs	r4, #0
   bc2ee:	f505 1540 	add.w	r5, r5, #3145728	; 0x300000
   bc2f2:	4622      	mov	r2, r4
   bc2f4:	462b      	mov	r3, r5
   bc2f6:	f7ff fbdf 	bl	bbab8 <__aeabi_dmul>
   bc2fa:	bd70      	pop	{r4, r5, r6, pc}
   bc2fc:	0000      	movs	r0, r0
	...

000bc300 <_strtod_l>:
   bc300:	e92d 4ff0 	stmdb	sp!, {r4, r5, r6, r7, r8, r9, sl, fp, lr}
   bc304:	ed2d 8b02 	vpush	{d8}
   bc308:	b09d      	sub	sp, #116	; 0x74
   bc30a:	461f      	mov	r7, r3
   bc30c:	2300      	movs	r3, #0
   bc30e:	9318      	str	r3, [sp, #96]	; 0x60
   bc310:	4ba2      	ldr	r3, [pc, #648]	; (bc59c <_strtod_l+0x29c>)
   bc312:	9213      	str	r2, [sp, #76]	; 0x4c
   bc314:	681b      	ldr	r3, [r3, #0]
   bc316:	9305      	str	r3, [sp, #20]
   bc318:	4604      	mov	r4, r0
   bc31a:	4618      	mov	r0, r3
   bc31c:	4688      	mov	r8, r1
   bc31e:	f7ff ff93 	bl	bc248 <strlen>
   bc322:	f04f 0a00 	mov.w	sl, #0
   bc326:	4605      	mov	r5, r0
   bc328:	f04f 0b00 	mov.w	fp, #0
   bc32c:	f8cd 805c 	str.w	r8, [sp, #92]	; 0x5c
   bc330:	9b17      	ldr	r3, [sp, #92]	; 0x5c
   bc332:	781a      	ldrb	r2, [r3, #0]
   bc334:	2a2b      	cmp	r2, #43	; 0x2b
   bc336:	d04e      	beq.n	bc3d6 <_strtod_l+0xd6>
   bc338:	d83b      	bhi.n	bc3b2 <_strtod_l+0xb2>
   bc33a:	2a0d      	cmp	r2, #13
   bc33c:	d834      	bhi.n	bc3a8 <_strtod_l+0xa8>
   bc33e:	2a08      	cmp	r2, #8
   bc340:	d834      	bhi.n	bc3ac <_strtod_l+0xac>
   bc342:	2a00      	cmp	r2, #0
   bc344:	d03e      	beq.n	bc3c4 <_strtod_l+0xc4>
   bc346:	2300      	movs	r3, #0
   bc348:	930a      	str	r3, [sp, #40]	; 0x28
   bc34a:	9e17      	ldr	r6, [sp, #92]	; 0x5c
   bc34c:	7833      	ldrb	r3, [r6, #0]
   bc34e:	2b30      	cmp	r3, #48	; 0x30
   bc350:	f040 80b0 	bne.w	bc4b4 <_strtod_l+0x1b4>
   bc354:	7873      	ldrb	r3, [r6, #1]
   bc356:	f003 03df 	and.w	r3, r3, #223	; 0xdf
   bc35a:	2b58      	cmp	r3, #88	; 0x58
   bc35c:	d168      	bne.n	bc430 <_strtod_l+0x130>
   bc35e:	9b0a      	ldr	r3, [sp, #40]	; 0x28
   bc360:	9301      	str	r3, [sp, #4]
   bc362:	ab18      	add	r3, sp, #96	; 0x60
   bc364:	9702      	str	r7, [sp, #8]
   bc366:	9300      	str	r3, [sp, #0]
   bc368:	4a8d      	ldr	r2, [pc, #564]	; (bc5a0 <_strtod_l+0x2a0>)
   bc36a:	ab19      	add	r3, sp, #100	; 0x64
   bc36c:	a917      	add	r1, sp, #92	; 0x5c
   bc36e:	4620      	mov	r0, r4
   bc370:	f000 ff7e 	bl	bd270 <__gethex>
   bc374:	f010 0707 	ands.w	r7, r0, #7
   bc378:	4605      	mov	r5, r0
   bc37a:	d005      	beq.n	bc388 <_strtod_l+0x88>
   bc37c:	2f06      	cmp	r7, #6
   bc37e:	d12c      	bne.n	bc3da <_strtod_l+0xda>
   bc380:	3601      	adds	r6, #1
   bc382:	2300      	movs	r3, #0
   bc384:	9617      	str	r6, [sp, #92]	; 0x5c
   bc386:	930a      	str	r3, [sp, #40]	; 0x28
   bc388:	9b13      	ldr	r3, [sp, #76]	; 0x4c
   bc38a:	2b00      	cmp	r3, #0
   bc38c:	f040 8590 	bne.w	bceb0 <_strtod_l+0xbb0>
   bc390:	9b0a      	ldr	r3, [sp, #40]	; 0x28
   bc392:	b1eb      	cbz	r3, bc3d0 <_strtod_l+0xd0>
   bc394:	4652      	mov	r2, sl
   bc396:	f10b 4300 	add.w	r3, fp, #2147483648	; 0x80000000
   bc39a:	ec43 2b10 	vmov	d0, r2, r3
   bc39e:	b01d      	add	sp, #116	; 0x74
   bc3a0:	ecbd 8b02 	vpop	{d8}
   bc3a4:	e8bd 8ff0 	ldmia.w	sp!, {r4, r5, r6, r7, r8, r9, sl, fp, pc}
   bc3a8:	2a20      	cmp	r2, #32
   bc3aa:	d1cc      	bne.n	bc346 <_strtod_l+0x46>
   bc3ac:	3301      	adds	r3, #1
   bc3ae:	9317      	str	r3, [sp, #92]	; 0x5c
   bc3b0:	e7be      	b.n	bc330 <_strtod_l+0x30>
   bc3b2:	2a2d      	cmp	r2, #45	; 0x2d
   bc3b4:	d1c7      	bne.n	bc346 <_strtod_l+0x46>
   bc3b6:	2201      	movs	r2, #1
   bc3b8:	920a      	str	r2, [sp, #40]	; 0x28
   bc3ba:	1c5a      	adds	r2, r3, #1
   bc3bc:	9217      	str	r2, [sp, #92]	; 0x5c
   bc3be:	785b      	ldrb	r3, [r3, #1]
   bc3c0:	2b00      	cmp	r3, #0
   bc3c2:	d1c2      	bne.n	bc34a <_strtod_l+0x4a>
   bc3c4:	9b13      	ldr	r3, [sp, #76]	; 0x4c
   bc3c6:	f8cd 805c 	str.w	r8, [sp, #92]	; 0x5c
   bc3ca:	2b00      	cmp	r3, #0
   bc3cc:	f040 856e 	bne.w	bceac <_strtod_l+0xbac>
   bc3d0:	4652      	mov	r2, sl
   bc3d2:	465b      	mov	r3, fp
   bc3d4:	e7e1      	b.n	bc39a <_strtod_l+0x9a>
   bc3d6:	2200      	movs	r2, #0
   bc3d8:	e7ee      	b.n	bc3b8 <_strtod_l+0xb8>
   bc3da:	9a18      	ldr	r2, [sp, #96]	; 0x60
   bc3dc:	b13a      	cbz	r2, bc3ee <_strtod_l+0xee>
   bc3de:	2135      	movs	r1, #53	; 0x35
   bc3e0:	a81a      	add	r0, sp, #104	; 0x68
   bc3e2:	f001 fee0 	bl	be1a6 <__copybits>
   bc3e6:	9918      	ldr	r1, [sp, #96]	; 0x60
   bc3e8:	4620      	mov	r0, r4
   bc3ea:	f001 fa9f 	bl	bd92c <_Bfree>
   bc3ee:	3f01      	subs	r7, #1
   bc3f0:	2f04      	cmp	r7, #4
   bc3f2:	d806      	bhi.n	bc402 <_strtod_l+0x102>
   bc3f4:	e8df f007 	tbb	[pc, r7]
   bc3f8:	1714030a 	.word	0x1714030a
   bc3fc:	0a          	.byte	0x0a
   bc3fd:	00          	.byte	0x00
   bc3fe:	e9dd ab1a 	ldrd	sl, fp, [sp, #104]	; 0x68
   bc402:	0728      	lsls	r0, r5, #28
   bc404:	d5c0      	bpl.n	bc388 <_strtod_l+0x88>
   bc406:	f04b 4b00 	orr.w	fp, fp, #2147483648	; 0x80000000
   bc40a:	e7bd      	b.n	bc388 <_strtod_l+0x88>
   bc40c:	e9dd a31a 	ldrd	sl, r3, [sp, #104]	; 0x68
   bc410:	9a19      	ldr	r2, [sp, #100]	; 0x64
   bc412:	f423 1380 	bic.w	r3, r3, #1048576	; 0x100000
   bc416:	f202 4233 	addw	r2, r2, #1075	; 0x433
   bc41a:	ea43 5b02 	orr.w	fp, r3, r2, lsl #20
   bc41e:	e7f0      	b.n	bc402 <_strtod_l+0x102>
   bc420:	f8df b180 	ldr.w	fp, [pc, #384]	; bc5a4 <_strtod_l+0x2a4>
   bc424:	e7ed      	b.n	bc402 <_strtod_l+0x102>
   bc426:	f06f 4b00 	mvn.w	fp, #2147483648	; 0x80000000
   bc42a:	f04f 3aff 	mov.w	sl, #4294967295	; 0xffffffff
   bc42e:	e7e8      	b.n	bc402 <_strtod_l+0x102>
   bc430:	9b17      	ldr	r3, [sp, #92]	; 0x5c
   bc432:	1c5a      	adds	r2, r3, #1
   bc434:	9217      	str	r2, [sp, #92]	; 0x5c
   bc436:	785b      	ldrb	r3, [r3, #1]
   bc438:	2b30      	cmp	r3, #48	; 0x30
   bc43a:	d0f9      	beq.n	bc430 <_strtod_l+0x130>
   bc43c:	2b00      	cmp	r3, #0
   bc43e:	d0a3      	beq.n	bc388 <_strtod_l+0x88>
   bc440:	2301      	movs	r3, #1
   bc442:	f04f 0900 	mov.w	r9, #0
   bc446:	9304      	str	r3, [sp, #16]
   bc448:	9b17      	ldr	r3, [sp, #92]	; 0x5c
   bc44a:	9308      	str	r3, [sp, #32]
   bc44c:	f8cd 901c 	str.w	r9, [sp, #28]
   bc450:	464f      	mov	r7, r9
   bc452:	220a      	movs	r2, #10
   bc454:	9817      	ldr	r0, [sp, #92]	; 0x5c
   bc456:	7806      	ldrb	r6, [r0, #0]
   bc458:	f1a6 0330 	sub.w	r3, r6, #48	; 0x30
   bc45c:	b2d9      	uxtb	r1, r3
   bc45e:	2909      	cmp	r1, #9
   bc460:	d92a      	bls.n	bc4b8 <_strtod_l+0x1b8>
   bc462:	9905      	ldr	r1, [sp, #20]
   bc464:	462a      	mov	r2, r5
   bc466:	f7ff fef7 	bl	bc258 <strncmp>
   bc46a:	b398      	cbz	r0, bc4d4 <_strtod_l+0x1d4>
   bc46c:	2000      	movs	r0, #0
   bc46e:	4632      	mov	r2, r6
   bc470:	463d      	mov	r5, r7
   bc472:	9005      	str	r0, [sp, #20]
   bc474:	4603      	mov	r3, r0
   bc476:	2a65      	cmp	r2, #101	; 0x65
   bc478:	d001      	beq.n	bc47e <_strtod_l+0x17e>
   bc47a:	2a45      	cmp	r2, #69	; 0x45
   bc47c:	d118      	bne.n	bc4b0 <_strtod_l+0x1b0>
   bc47e:	b91d      	cbnz	r5, bc488 <_strtod_l+0x188>
   bc480:	9a04      	ldr	r2, [sp, #16]
   bc482:	4302      	orrs	r2, r0
   bc484:	d09e      	beq.n	bc3c4 <_strtod_l+0xc4>
   bc486:	2500      	movs	r5, #0
   bc488:	f8dd 805c 	ldr.w	r8, [sp, #92]	; 0x5c
   bc48c:	f108 0201 	add.w	r2, r8, #1
   bc490:	9217      	str	r2, [sp, #92]	; 0x5c
   bc492:	f898 2001 	ldrb.w	r2, [r8, #1]
   bc496:	2a2b      	cmp	r2, #43	; 0x2b
   bc498:	d075      	beq.n	bc586 <_strtod_l+0x286>
   bc49a:	2a2d      	cmp	r2, #45	; 0x2d
   bc49c:	d07b      	beq.n	bc596 <_strtod_l+0x296>
   bc49e:	f04f 0c00 	mov.w	ip, #0
   bc4a2:	f1a2 0130 	sub.w	r1, r2, #48	; 0x30
   bc4a6:	2909      	cmp	r1, #9
   bc4a8:	f240 8082 	bls.w	bc5b0 <_strtod_l+0x2b0>
   bc4ac:	f8cd 805c 	str.w	r8, [sp, #92]	; 0x5c
   bc4b0:	2600      	movs	r6, #0
   bc4b2:	e09d      	b.n	bc5f0 <_strtod_l+0x2f0>
   bc4b4:	2300      	movs	r3, #0
   bc4b6:	e7c4      	b.n	bc442 <_strtod_l+0x142>
   bc4b8:	2f08      	cmp	r7, #8
   bc4ba:	bfd8      	it	le
   bc4bc:	9907      	ldrle	r1, [sp, #28]
   bc4be:	f100 0001 	add.w	r0, r0, #1
   bc4c2:	bfda      	itte	le
   bc4c4:	fb02 3301 	mlale	r3, r2, r1, r3
   bc4c8:	9307      	strle	r3, [sp, #28]
   bc4ca:	fb02 3909 	mlagt	r9, r2, r9, r3
   bc4ce:	3701      	adds	r7, #1
   bc4d0:	9017      	str	r0, [sp, #92]	; 0x5c
   bc4d2:	e7bf      	b.n	bc454 <_strtod_l+0x154>
   bc4d4:	9b17      	ldr	r3, [sp, #92]	; 0x5c
   bc4d6:	195a      	adds	r2, r3, r5
   bc4d8:	9217      	str	r2, [sp, #92]	; 0x5c
   bc4da:	5d5a      	ldrb	r2, [r3, r5]
   bc4dc:	2f00      	cmp	r7, #0
   bc4de:	d037      	beq.n	bc550 <_strtod_l+0x250>
   bc4e0:	9005      	str	r0, [sp, #20]
   bc4e2:	463d      	mov	r5, r7
   bc4e4:	f1a2 0330 	sub.w	r3, r2, #48	; 0x30
   bc4e8:	2b09      	cmp	r3, #9
   bc4ea:	d912      	bls.n	bc512 <_strtod_l+0x212>
   bc4ec:	2301      	movs	r3, #1
   bc4ee:	e7c2      	b.n	bc476 <_strtod_l+0x176>
   bc4f0:	9b17      	ldr	r3, [sp, #92]	; 0x5c
   bc4f2:	1c5a      	adds	r2, r3, #1
   bc4f4:	9217      	str	r2, [sp, #92]	; 0x5c
   bc4f6:	785a      	ldrb	r2, [r3, #1]
   bc4f8:	3001      	adds	r0, #1
   bc4fa:	2a30      	cmp	r2, #48	; 0x30
   bc4fc:	d0f8      	beq.n	bc4f0 <_strtod_l+0x1f0>
   bc4fe:	f1a2 0331 	sub.w	r3, r2, #49	; 0x31
   bc502:	2b08      	cmp	r3, #8
   bc504:	f200 84d9 	bhi.w	bceba <_strtod_l+0xbba>
   bc508:	9b17      	ldr	r3, [sp, #92]	; 0x5c
   bc50a:	9005      	str	r0, [sp, #20]
   bc50c:	2000      	movs	r0, #0
   bc50e:	9308      	str	r3, [sp, #32]
   bc510:	4605      	mov	r5, r0
   bc512:	3a30      	subs	r2, #48	; 0x30
   bc514:	f100 0301 	add.w	r3, r0, #1
   bc518:	d014      	beq.n	bc544 <_strtod_l+0x244>
   bc51a:	9905      	ldr	r1, [sp, #20]
   bc51c:	4419      	add	r1, r3
   bc51e:	9105      	str	r1, [sp, #20]
   bc520:	462b      	mov	r3, r5
   bc522:	eb00 0e05 	add.w	lr, r0, r5
   bc526:	210a      	movs	r1, #10
   bc528:	4573      	cmp	r3, lr
   bc52a:	d113      	bne.n	bc554 <_strtod_l+0x254>
   bc52c:	182b      	adds	r3, r5, r0
   bc52e:	2b08      	cmp	r3, #8
   bc530:	f105 0501 	add.w	r5, r5, #1
   bc534:	4405      	add	r5, r0
   bc536:	dc1c      	bgt.n	bc572 <_strtod_l+0x272>
   bc538:	9907      	ldr	r1, [sp, #28]
   bc53a:	230a      	movs	r3, #10
   bc53c:	fb03 2301 	mla	r3, r3, r1, r2
   bc540:	9307      	str	r3, [sp, #28]
   bc542:	2300      	movs	r3, #0
   bc544:	9a17      	ldr	r2, [sp, #92]	; 0x5c
   bc546:	1c51      	adds	r1, r2, #1
   bc548:	9117      	str	r1, [sp, #92]	; 0x5c
   bc54a:	7852      	ldrb	r2, [r2, #1]
   bc54c:	4618      	mov	r0, r3
   bc54e:	e7c9      	b.n	bc4e4 <_strtod_l+0x1e4>
   bc550:	4638      	mov	r0, r7
   bc552:	e7d2      	b.n	bc4fa <_strtod_l+0x1fa>
   bc554:	2b08      	cmp	r3, #8
   bc556:	dc04      	bgt.n	bc562 <_strtod_l+0x262>
   bc558:	9e07      	ldr	r6, [sp, #28]
   bc55a:	434e      	muls	r6, r1
   bc55c:	9607      	str	r6, [sp, #28]
   bc55e:	3301      	adds	r3, #1
   bc560:	e7e2      	b.n	bc528 <_strtod_l+0x228>
   bc562:	f103 0c01 	add.w	ip, r3, #1
   bc566:	f1bc 0f10 	cmp.w	ip, #16
   bc56a:	bfd8      	it	le
   bc56c:	fb01 f909 	mulle.w	r9, r1, r9
   bc570:	e7f5      	b.n	bc55e <_strtod_l+0x25e>
   bc572:	2d10      	cmp	r5, #16
   bc574:	bfdc      	itt	le
   bc576:	230a      	movle	r3, #10
   bc578:	fb03 2909 	mlale	r9, r3, r9, r2
   bc57c:	e7e1      	b.n	bc542 <_strtod_l+0x242>
   bc57e:	2300      	movs	r3, #0
   bc580:	9305      	str	r3, [sp, #20]
   bc582:	2301      	movs	r3, #1
   bc584:	e77c      	b.n	bc480 <_strtod_l+0x180>
   bc586:	f04f 0c00 	mov.w	ip, #0
   bc58a:	f108 0202 	add.w	r2, r8, #2
   bc58e:	9217      	str	r2, [sp, #92]	; 0x5c
   bc590:	f898 2002 	ldrb.w	r2, [r8, #2]
   bc594:	e785      	b.n	bc4a2 <_strtod_l+0x1a2>
   bc596:	f04f 0c01 	mov.w	ip, #1
   bc59a:	e7f6      	b.n	bc58a <_strtod_l+0x28a>
   bc59c:	000bef54 	.word	0x000bef54
   bc5a0:	000bed90 	.word	0x000bed90
   bc5a4:	7ff00000 	.word	0x7ff00000
   bc5a8:	9a17      	ldr	r2, [sp, #92]	; 0x5c
   bc5aa:	1c51      	adds	r1, r2, #1
   bc5ac:	9117      	str	r1, [sp, #92]	; 0x5c
   bc5ae:	7852      	ldrb	r2, [r2, #1]
   bc5b0:	2a30      	cmp	r2, #48	; 0x30
   bc5b2:	d0f9      	beq.n	bc5a8 <_strtod_l+0x2a8>
   bc5b4:	f1a2 0131 	sub.w	r1, r2, #49	; 0x31
   bc5b8:	2908      	cmp	r1, #8
   bc5ba:	f63f af79 	bhi.w	bc4b0 <_strtod_l+0x1b0>
   bc5be:	f1a2 0e30 	sub.w	lr, r2, #48	; 0x30
   bc5c2:	9a17      	ldr	r2, [sp, #92]	; 0x5c
   bc5c4:	9206      	str	r2, [sp, #24]
   bc5c6:	9a17      	ldr	r2, [sp, #92]	; 0x5c
   bc5c8:	1c51      	adds	r1, r2, #1
   bc5ca:	9117      	str	r1, [sp, #92]	; 0x5c
   bc5cc:	7852      	ldrb	r2, [r2, #1]
   bc5ce:	f1a2 0630 	sub.w	r6, r2, #48	; 0x30
   bc5d2:	2e09      	cmp	r6, #9
   bc5d4:	d937      	bls.n	bc646 <_strtod_l+0x346>
   bc5d6:	9e06      	ldr	r6, [sp, #24]
   bc5d8:	1b89      	subs	r1, r1, r6
   bc5da:	2908      	cmp	r1, #8
   bc5dc:	f644 661f 	movw	r6, #19999	; 0x4e1f
   bc5e0:	dc02      	bgt.n	bc5e8 <_strtod_l+0x2e8>
   bc5e2:	4576      	cmp	r6, lr
   bc5e4:	bfa8      	it	ge
   bc5e6:	4676      	movge	r6, lr
   bc5e8:	f1bc 0f00 	cmp.w	ip, #0
   bc5ec:	d000      	beq.n	bc5f0 <_strtod_l+0x2f0>
   bc5ee:	4276      	negs	r6, r6
   bc5f0:	2d00      	cmp	r5, #0
   bc5f2:	d14d      	bne.n	bc690 <_strtod_l+0x390>
   bc5f4:	9904      	ldr	r1, [sp, #16]
   bc5f6:	4301      	orrs	r1, r0
   bc5f8:	f47f aec6 	bne.w	bc388 <_strtod_l+0x88>
   bc5fc:	2b00      	cmp	r3, #0
   bc5fe:	f47f aee1 	bne.w	bc3c4 <_strtod_l+0xc4>
   bc602:	2a69      	cmp	r2, #105	; 0x69
   bc604:	d027      	beq.n	bc656 <_strtod_l+0x356>
   bc606:	dc24      	bgt.n	bc652 <_strtod_l+0x352>
   bc608:	2a49      	cmp	r2, #73	; 0x49
   bc60a:	d024      	beq.n	bc656 <_strtod_l+0x356>
   bc60c:	2a4e      	cmp	r2, #78	; 0x4e
   bc60e:	f47f aed9 	bne.w	bc3c4 <_strtod_l+0xc4>
   bc612:	499f      	ldr	r1, [pc, #636]	; (bc890 <_strtod_l+0x590>)
   bc614:	a817      	add	r0, sp, #92	; 0x5c
   bc616:	f001 f883 	bl	bd720 <__match>
   bc61a:	2800      	cmp	r0, #0
   bc61c:	f43f aed2 	beq.w	bc3c4 <_strtod_l+0xc4>
   bc620:	9b17      	ldr	r3, [sp, #92]	; 0x5c
   bc622:	781b      	ldrb	r3, [r3, #0]
   bc624:	2b28      	cmp	r3, #40	; 0x28
   bc626:	d12d      	bne.n	bc684 <_strtod_l+0x384>
   bc628:	499a      	ldr	r1, [pc, #616]	; (bc894 <_strtod_l+0x594>)
   bc62a:	aa1a      	add	r2, sp, #104	; 0x68
   bc62c:	a817      	add	r0, sp, #92	; 0x5c
   bc62e:	f001 f88b 	bl	bd748 <__hexnan>
   bc632:	2805      	cmp	r0, #5
   bc634:	d126      	bne.n	bc684 <_strtod_l+0x384>
   bc636:	9b1b      	ldr	r3, [sp, #108]	; 0x6c
   bc638:	f8dd a068 	ldr.w	sl, [sp, #104]	; 0x68
   bc63c:	f043 4bff 	orr.w	fp, r3, #2139095040	; 0x7f800000
   bc640:	f44b 0be0 	orr.w	fp, fp, #7340032	; 0x700000
   bc644:	e6a0      	b.n	bc388 <_strtod_l+0x88>
   bc646:	210a      	movs	r1, #10
   bc648:	fb01 2e0e 	mla	lr, r1, lr, r2
   bc64c:	f1ae 0e30 	sub.w	lr, lr, #48	; 0x30
   bc650:	e7b9      	b.n	bc5c6 <_strtod_l+0x2c6>
   bc652:	2a6e      	cmp	r2, #110	; 0x6e
   bc654:	e7db      	b.n	bc60e <_strtod_l+0x30e>
   bc656:	4990      	ldr	r1, [pc, #576]	; (bc898 <_strtod_l+0x598>)
   bc658:	a817      	add	r0, sp, #92	; 0x5c
   bc65a:	f001 f861 	bl	bd720 <__match>
   bc65e:	2800      	cmp	r0, #0
   bc660:	f43f aeb0 	beq.w	bc3c4 <_strtod_l+0xc4>
   bc664:	9b17      	ldr	r3, [sp, #92]	; 0x5c
   bc666:	498d      	ldr	r1, [pc, #564]	; (bc89c <_strtod_l+0x59c>)
   bc668:	3b01      	subs	r3, #1
   bc66a:	a817      	add	r0, sp, #92	; 0x5c
   bc66c:	9317      	str	r3, [sp, #92]	; 0x5c
   bc66e:	f001 f857 	bl	bd720 <__match>
   bc672:	b910      	cbnz	r0, bc67a <_strtod_l+0x37a>
   bc674:	9b17      	ldr	r3, [sp, #92]	; 0x5c
   bc676:	3301      	adds	r3, #1
   bc678:	9317      	str	r3, [sp, #92]	; 0x5c
   bc67a:	f8df b230 	ldr.w	fp, [pc, #560]	; bc8ac <_strtod_l+0x5ac>
   bc67e:	f04f 0a00 	mov.w	sl, #0
   bc682:	e681      	b.n	bc388 <_strtod_l+0x88>
   bc684:	4886      	ldr	r0, [pc, #536]	; (bc8a0 <_strtod_l+0x5a0>)
   bc686:	f001 fde3 	bl	be250 <nan>
   bc68a:	ec5b ab10 	vmov	sl, fp, d0
   bc68e:	e67b      	b.n	bc388 <_strtod_l+0x88>
   bc690:	9b05      	ldr	r3, [sp, #20]
   bc692:	9807      	ldr	r0, [sp, #28]
   bc694:	1af3      	subs	r3, r6, r3
   bc696:	2f00      	cmp	r7, #0
   bc698:	bf08      	it	eq
   bc69a:	462f      	moveq	r7, r5
   bc69c:	2d10      	cmp	r5, #16
   bc69e:	9306      	str	r3, [sp, #24]
   bc6a0:	46a8      	mov	r8, r5
   bc6a2:	bfa8      	it	ge
   bc6a4:	f04f 0810 	movge.w	r8, #16
   bc6a8:	f7ff f98c 	bl	bb9c4 <__aeabi_ui2d>
   bc6ac:	2d09      	cmp	r5, #9
   bc6ae:	4682      	mov	sl, r0
   bc6b0:	468b      	mov	fp, r1
   bc6b2:	dd13      	ble.n	bc6dc <_strtod_l+0x3dc>
   bc6b4:	4b7b      	ldr	r3, [pc, #492]	; (bc8a4 <_strtod_l+0x5a4>)
   bc6b6:	eb03 03c8 	add.w	r3, r3, r8, lsl #3
   bc6ba:	e953 2312 	ldrd	r2, r3, [r3, #-72]	; 0x48
   bc6be:	f7ff f9fb 	bl	bbab8 <__aeabi_dmul>
   bc6c2:	4682      	mov	sl, r0
   bc6c4:	4648      	mov	r0, r9
   bc6c6:	468b      	mov	fp, r1
   bc6c8:	f7ff f97c 	bl	bb9c4 <__aeabi_ui2d>
   bc6cc:	4602      	mov	r2, r0
   bc6ce:	460b      	mov	r3, r1
   bc6d0:	4650      	mov	r0, sl
   bc6d2:	4659      	mov	r1, fp
   bc6d4:	f7ff f83a 	bl	bb74c <__adddf3>
   bc6d8:	4682      	mov	sl, r0
   bc6da:	468b      	mov	fp, r1
   bc6dc:	2d0f      	cmp	r5, #15
   bc6de:	dc38      	bgt.n	bc752 <_strtod_l+0x452>
   bc6e0:	9b06      	ldr	r3, [sp, #24]
   bc6e2:	2b00      	cmp	r3, #0
   bc6e4:	f43f ae50 	beq.w	bc388 <_strtod_l+0x88>
   bc6e8:	dd24      	ble.n	bc734 <_strtod_l+0x434>
   bc6ea:	2b16      	cmp	r3, #22
   bc6ec:	dc0b      	bgt.n	bc706 <_strtod_l+0x406>
   bc6ee:	496d      	ldr	r1, [pc, #436]	; (bc8a4 <_strtod_l+0x5a4>)
   bc6f0:	eb01 01c3 	add.w	r1, r1, r3, lsl #3
   bc6f4:	e9d1 0100 	ldrd	r0, r1, [r1]
   bc6f8:	4652      	mov	r2, sl
   bc6fa:	465b      	mov	r3, fp
   bc6fc:	f7ff f9dc 	bl	bbab8 <__aeabi_dmul>
   bc700:	4682      	mov	sl, r0
   bc702:	468b      	mov	fp, r1
   bc704:	e640      	b.n	bc388 <_strtod_l+0x88>
   bc706:	9a06      	ldr	r2, [sp, #24]
   bc708:	f1c5 0325 	rsb	r3, r5, #37	; 0x25
   bc70c:	4293      	cmp	r3, r2
   bc70e:	db20      	blt.n	bc752 <_strtod_l+0x452>
   bc710:	4c64      	ldr	r4, [pc, #400]	; (bc8a4 <_strtod_l+0x5a4>)
   bc712:	f1c5 050f 	rsb	r5, r5, #15
   bc716:	eb04 01c5 	add.w	r1, r4, r5, lsl #3
   bc71a:	4652      	mov	r2, sl
   bc71c:	465b      	mov	r3, fp
   bc71e:	e9d1 0100 	ldrd	r0, r1, [r1]
   bc722:	f7ff f9c9 	bl	bbab8 <__aeabi_dmul>
   bc726:	9b06      	ldr	r3, [sp, #24]
   bc728:	1b5d      	subs	r5, r3, r5
   bc72a:	eb04 04c5 	add.w	r4, r4, r5, lsl #3
   bc72e:	e9d4 2300 	ldrd	r2, r3, [r4]
   bc732:	e7e3      	b.n	bc6fc <_strtod_l+0x3fc>
   bc734:	9b06      	ldr	r3, [sp, #24]
   bc736:	3316      	adds	r3, #22
   bc738:	db0b      	blt.n	bc752 <_strtod_l+0x452>
   bc73a:	9b05      	ldr	r3, [sp, #20]
   bc73c:	1b9e      	subs	r6, r3, r6
   bc73e:	4b59      	ldr	r3, [pc, #356]	; (bc8a4 <_strtod_l+0x5a4>)
   bc740:	eb03 06c6 	add.w	r6, r3, r6, lsl #3
   bc744:	e9d6 2300 	ldrd	r2, r3, [r6]
   bc748:	4650      	mov	r0, sl
   bc74a:	4659      	mov	r1, fp
   bc74c:	f7ff fade 	bl	bbd0c <__aeabi_ddiv>
   bc750:	e7d6      	b.n	bc700 <_strtod_l+0x400>
   bc752:	9b06      	ldr	r3, [sp, #24]
   bc754:	eba5 0808 	sub.w	r8, r5, r8
   bc758:	4498      	add	r8, r3
   bc75a:	f1b8 0f00 	cmp.w	r8, #0
   bc75e:	dd74      	ble.n	bc84a <_strtod_l+0x54a>
   bc760:	f018 030f 	ands.w	r3, r8, #15
   bc764:	d00a      	beq.n	bc77c <_strtod_l+0x47c>
   bc766:	494f      	ldr	r1, [pc, #316]	; (bc8a4 <_strtod_l+0x5a4>)
   bc768:	eb01 01c3 	add.w	r1, r1, r3, lsl #3
   bc76c:	4652      	mov	r2, sl
   bc76e:	465b      	mov	r3, fp
   bc770:	e9d1 0100 	ldrd	r0, r1, [r1]
   bc774:	f7ff f9a0 	bl	bbab8 <__aeabi_dmul>
   bc778:	4682      	mov	sl, r0
   bc77a:	468b      	mov	fp, r1
   bc77c:	f038 080f 	bics.w	r8, r8, #15
   bc780:	d04f      	beq.n	bc822 <_strtod_l+0x522>
   bc782:	f5b8 7f9a 	cmp.w	r8, #308	; 0x134
   bc786:	dd22      	ble.n	bc7ce <_strtod_l+0x4ce>
   bc788:	2500      	movs	r5, #0
   bc78a:	462e      	mov	r6, r5
   bc78c:	9507      	str	r5, [sp, #28]
   bc78e:	9505      	str	r5, [sp, #20]
   bc790:	2322      	movs	r3, #34	; 0x22
   bc792:	f8df b118 	ldr.w	fp, [pc, #280]	; bc8ac <_strtod_l+0x5ac>
   bc796:	6023      	str	r3, [r4, #0]
   bc798:	f04f 0a00 	mov.w	sl, #0
   bc79c:	9b07      	ldr	r3, [sp, #28]
   bc79e:	2b00      	cmp	r3, #0
   bc7a0:	f43f adf2 	beq.w	bc388 <_strtod_l+0x88>
   bc7a4:	9918      	ldr	r1, [sp, #96]	; 0x60
   bc7a6:	4620      	mov	r0, r4
   bc7a8:	f001 f8c0 	bl	bd92c <_Bfree>
   bc7ac:	9905      	ldr	r1, [sp, #20]
   bc7ae:	4620      	mov	r0, r4
   bc7b0:	f001 f8bc 	bl	bd92c <_Bfree>
   bc7b4:	4631      	mov	r1, r6
   bc7b6:	4620      	mov	r0, r4
   bc7b8:	f001 f8b8 	bl	bd92c <_Bfree>
   bc7bc:	9907      	ldr	r1, [sp, #28]
   bc7be:	4620      	mov	r0, r4
   bc7c0:	f001 f8b4 	bl	bd92c <_Bfree>
   bc7c4:	4629      	mov	r1, r5
   bc7c6:	4620      	mov	r0, r4
   bc7c8:	f001 f8b0 	bl	bd92c <_Bfree>
   bc7cc:	e5dc      	b.n	bc388 <_strtod_l+0x88>
   bc7ce:	4b36      	ldr	r3, [pc, #216]	; (bc8a8 <_strtod_l+0x5a8>)
   bc7d0:	9304      	str	r3, [sp, #16]
   bc7d2:	2300      	movs	r3, #0
   bc7d4:	ea4f 1828 	mov.w	r8, r8, asr #4
   bc7d8:	4650      	mov	r0, sl
   bc7da:	4659      	mov	r1, fp
   bc7dc:	4699      	mov	r9, r3
   bc7de:	f1b8 0f01 	cmp.w	r8, #1
   bc7e2:	dc21      	bgt.n	bc828 <_strtod_l+0x528>
   bc7e4:	b10b      	cbz	r3, bc7ea <_strtod_l+0x4ea>
   bc7e6:	4682      	mov	sl, r0
   bc7e8:	468b      	mov	fp, r1
   bc7ea:	4b2f      	ldr	r3, [pc, #188]	; (bc8a8 <_strtod_l+0x5a8>)
   bc7ec:	f1ab 7b54 	sub.w	fp, fp, #55574528	; 0x3500000
   bc7f0:	eb03 09c9 	add.w	r9, r3, r9, lsl #3
   bc7f4:	4652      	mov	r2, sl
   bc7f6:	465b      	mov	r3, fp
   bc7f8:	e9d9 0100 	ldrd	r0, r1, [r9]
   bc7fc:	f7ff f95c 	bl	bbab8 <__aeabi_dmul>
   bc800:	4b2a      	ldr	r3, [pc, #168]	; (bc8ac <_strtod_l+0x5ac>)
   bc802:	460a      	mov	r2, r1
   bc804:	400b      	ands	r3, r1
   bc806:	492a      	ldr	r1, [pc, #168]	; (bc8b0 <_strtod_l+0x5b0>)
   bc808:	428b      	cmp	r3, r1
   bc80a:	4682      	mov	sl, r0
   bc80c:	d8bc      	bhi.n	bc788 <_strtod_l+0x488>
   bc80e:	f5a1 1180 	sub.w	r1, r1, #1048576	; 0x100000
   bc812:	428b      	cmp	r3, r1
   bc814:	bf86      	itte	hi
   bc816:	f8df b09c 	ldrhi.w	fp, [pc, #156]	; bc8b4 <_strtod_l+0x5b4>
   bc81a:	f04f 3aff 	movhi.w	sl, #4294967295	; 0xffffffff
   bc81e:	f102 7b54 	addls.w	fp, r2, #55574528	; 0x3500000
   bc822:	2300      	movs	r3, #0
   bc824:	9304      	str	r3, [sp, #16]
   bc826:	e084      	b.n	bc932 <_strtod_l+0x632>
   bc828:	f018 0f01 	tst.w	r8, #1
   bc82c:	d005      	beq.n	bc83a <_strtod_l+0x53a>
   bc82e:	9b04      	ldr	r3, [sp, #16]
   bc830:	e9d3 2300 	ldrd	r2, r3, [r3]
   bc834:	f7ff f940 	bl	bbab8 <__aeabi_dmul>
   bc838:	2301      	movs	r3, #1
   bc83a:	9a04      	ldr	r2, [sp, #16]
   bc83c:	3208      	adds	r2, #8
   bc83e:	f109 0901 	add.w	r9, r9, #1
   bc842:	ea4f 0868 	mov.w	r8, r8, asr #1
   bc846:	9204      	str	r2, [sp, #16]
   bc848:	e7c9      	b.n	bc7de <_strtod_l+0x4de>
   bc84a:	d0ea      	beq.n	bc822 <_strtod_l+0x522>
   bc84c:	f1c8 0800 	rsb	r8, r8, #0
   bc850:	f018 020f 	ands.w	r2, r8, #15
   bc854:	d00a      	beq.n	bc86c <_strtod_l+0x56c>
   bc856:	4b13      	ldr	r3, [pc, #76]	; (bc8a4 <_strtod_l+0x5a4>)
   bc858:	eb03 03c2 	add.w	r3, r3, r2, lsl #3
   bc85c:	4650      	mov	r0, sl
   bc85e:	4659      	mov	r1, fp
   bc860:	e9d3 2300 	ldrd	r2, r3, [r3]
   bc864:	f7ff fa52 	bl	bbd0c <__aeabi_ddiv>
   bc868:	4682      	mov	sl, r0
   bc86a:	468b      	mov	fp, r1
   bc86c:	ea5f 1828 	movs.w	r8, r8, asr #4
   bc870:	d0d7      	beq.n	bc822 <_strtod_l+0x522>
   bc872:	f1b8 0f1f 	cmp.w	r8, #31
   bc876:	dd1f      	ble.n	bc8b8 <_strtod_l+0x5b8>
   bc878:	2500      	movs	r5, #0
   bc87a:	462e      	mov	r6, r5
   bc87c:	9507      	str	r5, [sp, #28]
   bc87e:	9505      	str	r5, [sp, #20]
   bc880:	2322      	movs	r3, #34	; 0x22
   bc882:	f04f 0a00 	mov.w	sl, #0
   bc886:	f04f 0b00 	mov.w	fp, #0
   bc88a:	6023      	str	r3, [r4, #0]
   bc88c:	e786      	b.n	bc79c <_strtod_l+0x49c>
   bc88e:	bf00      	nop
   bc890:	000bed8a 	.word	0x000bed8a
   bc894:	000beda4 	.word	0x000beda4
   bc898:	000bed81 	.word	0x000bed81
   bc89c:	000bed84 	.word	0x000bed84
   bc8a0:	000be7fe 	.word	0x000be7fe
   bc8a4:	000beff0 	.word	0x000beff0
   bc8a8:	000befc8 	.word	0x000befc8
   bc8ac:	7ff00000 	.word	0x7ff00000
   bc8b0:	7ca00000 	.word	0x7ca00000
   bc8b4:	7fefffff 	.word	0x7fefffff
   bc8b8:	f018 0310 	ands.w	r3, r8, #16
   bc8bc:	bf18      	it	ne
   bc8be:	236a      	movne	r3, #106	; 0x6a
   bc8c0:	f8df 93ac 	ldr.w	r9, [pc, #940]	; bcc70 <_strtod_l+0x970>
   bc8c4:	9304      	str	r3, [sp, #16]
   bc8c6:	4650      	mov	r0, sl
   bc8c8:	4659      	mov	r1, fp
   bc8ca:	2300      	movs	r3, #0
   bc8cc:	f018 0f01 	tst.w	r8, #1
   bc8d0:	d004      	beq.n	bc8dc <_strtod_l+0x5dc>
   bc8d2:	e9d9 2300 	ldrd	r2, r3, [r9]
   bc8d6:	f7ff f8ef 	bl	bbab8 <__aeabi_dmul>
   bc8da:	2301      	movs	r3, #1
   bc8dc:	ea5f 0868 	movs.w	r8, r8, asr #1
   bc8e0:	f109 0908 	add.w	r9, r9, #8
   bc8e4:	d1f2      	bne.n	bc8cc <_strtod_l+0x5cc>
   bc8e6:	b10b      	cbz	r3, bc8ec <_strtod_l+0x5ec>
   bc8e8:	4682      	mov	sl, r0
   bc8ea:	468b      	mov	fp, r1
   bc8ec:	9b04      	ldr	r3, [sp, #16]
   bc8ee:	b1c3      	cbz	r3, bc922 <_strtod_l+0x622>
   bc8f0:	f3cb 520a 	ubfx	r2, fp, #20, #11
   bc8f4:	f1c2 036b 	rsb	r3, r2, #107	; 0x6b
   bc8f8:	2b00      	cmp	r3, #0
   bc8fa:	4659      	mov	r1, fp
   bc8fc:	dd11      	ble.n	bc922 <_strtod_l+0x622>
   bc8fe:	2b1f      	cmp	r3, #31
   bc900:	f340 8124 	ble.w	bcb4c <_strtod_l+0x84c>
   bc904:	2b34      	cmp	r3, #52	; 0x34
   bc906:	bfde      	ittt	le
   bc908:	f1c2 024b 	rsble	r2, r2, #75	; 0x4b
   bc90c:	f04f 33ff 	movle.w	r3, #4294967295	; 0xffffffff
   bc910:	fa03 f202 	lslle.w	r2, r3, r2
   bc914:	f04f 0a00 	mov.w	sl, #0
   bc918:	bfcc      	ite	gt
   bc91a:	f04f 7b5c 	movgt.w	fp, #57671680	; 0x3700000
   bc91e:	ea02 0b01 	andle.w	fp, r2, r1
   bc922:	2200      	movs	r2, #0
   bc924:	2300      	movs	r3, #0
   bc926:	4650      	mov	r0, sl
   bc928:	4659      	mov	r1, fp
   bc92a:	f7ff fb2d 	bl	bbf88 <__aeabi_dcmpeq>
   bc92e:	2800      	cmp	r0, #0
   bc930:	d1a2      	bne.n	bc878 <_strtod_l+0x578>
   bc932:	9b07      	ldr	r3, [sp, #28]
   bc934:	9300      	str	r3, [sp, #0]
   bc936:	9908      	ldr	r1, [sp, #32]
   bc938:	462b      	mov	r3, r5
   bc93a:	463a      	mov	r2, r7
   bc93c:	4620      	mov	r0, r4
   bc93e:	f001 f85d 	bl	bd9fc <__s2b>
   bc942:	9007      	str	r0, [sp, #28]
   bc944:	2800      	cmp	r0, #0
   bc946:	f43f af1f 	beq.w	bc788 <_strtod_l+0x488>
   bc94a:	9b05      	ldr	r3, [sp, #20]
   bc94c:	1b9e      	subs	r6, r3, r6
   bc94e:	9b06      	ldr	r3, [sp, #24]
   bc950:	2b00      	cmp	r3, #0
   bc952:	bfb4      	ite	lt
   bc954:	4633      	movlt	r3, r6
   bc956:	2300      	movge	r3, #0
   bc958:	930c      	str	r3, [sp, #48]	; 0x30
   bc95a:	9b06      	ldr	r3, [sp, #24]
   bc95c:	2500      	movs	r5, #0
   bc95e:	ea23 73e3 	bic.w	r3, r3, r3, asr #31
   bc962:	9312      	str	r3, [sp, #72]	; 0x48
   bc964:	462e      	mov	r6, r5
   bc966:	9b07      	ldr	r3, [sp, #28]
   bc968:	4620      	mov	r0, r4
   bc96a:	6859      	ldr	r1, [r3, #4]
   bc96c:	f000 ff9e 	bl	bd8ac <_Balloc>
   bc970:	9005      	str	r0, [sp, #20]
   bc972:	2800      	cmp	r0, #0
   bc974:	f43f af0c 	beq.w	bc790 <_strtod_l+0x490>
   bc978:	9b07      	ldr	r3, [sp, #28]
   bc97a:	691a      	ldr	r2, [r3, #16]
   bc97c:	3202      	adds	r2, #2
   bc97e:	f103 010c 	add.w	r1, r3, #12
   bc982:	0092      	lsls	r2, r2, #2
   bc984:	300c      	adds	r0, #12
   bc986:	f7ff fbef 	bl	bc168 <memcpy>
   bc98a:	ec4b ab10 	vmov	d0, sl, fp
   bc98e:	aa1a      	add	r2, sp, #104	; 0x68
   bc990:	a919      	add	r1, sp, #100	; 0x64
   bc992:	4620      	mov	r0, r4
   bc994:	f001 fb78 	bl	be088 <__d2b>
   bc998:	ec4b ab18 	vmov	d8, sl, fp
   bc99c:	9018      	str	r0, [sp, #96]	; 0x60
   bc99e:	2800      	cmp	r0, #0
   bc9a0:	f43f aef6 	beq.w	bc790 <_strtod_l+0x490>
   bc9a4:	2101      	movs	r1, #1
   bc9a6:	4620      	mov	r0, r4
   bc9a8:	f001 f8c2 	bl	bdb30 <__i2b>
   bc9ac:	4606      	mov	r6, r0
   bc9ae:	2800      	cmp	r0, #0
   bc9b0:	f43f aeee 	beq.w	bc790 <_strtod_l+0x490>
   bc9b4:	9b19      	ldr	r3, [sp, #100]	; 0x64
   bc9b6:	9904      	ldr	r1, [sp, #16]
   bc9b8:	2b00      	cmp	r3, #0
   bc9ba:	bfab      	itete	ge
   bc9bc:	9a0c      	ldrge	r2, [sp, #48]	; 0x30
   bc9be:	9a12      	ldrlt	r2, [sp, #72]	; 0x48
   bc9c0:	9f12      	ldrge	r7, [sp, #72]	; 0x48
   bc9c2:	f8dd 9030 	ldrlt.w	r9, [sp, #48]	; 0x30
   bc9c6:	bfac      	ite	ge
   bc9c8:	eb03 0902 	addge.w	r9, r3, r2
   bc9cc:	1ad7      	sublt	r7, r2, r3
   bc9ce:	9a1a      	ldr	r2, [sp, #104]	; 0x68
   bc9d0:	eba3 0801 	sub.w	r8, r3, r1
   bc9d4:	4490      	add	r8, r2
   bc9d6:	4ba1      	ldr	r3, [pc, #644]	; (bcc5c <_strtod_l+0x95c>)
   bc9d8:	f108 38ff 	add.w	r8, r8, #4294967295	; 0xffffffff
   bc9dc:	4598      	cmp	r8, r3
   bc9de:	f1c2 0236 	rsb	r2, r2, #54	; 0x36
   bc9e2:	f280 80c7 	bge.w	bcb74 <_strtod_l+0x874>
   bc9e6:	eba3 0308 	sub.w	r3, r3, r8
   bc9ea:	2b1f      	cmp	r3, #31
   bc9ec:	eba2 0203 	sub.w	r2, r2, r3
   bc9f0:	f04f 0101 	mov.w	r1, #1
   bc9f4:	f300 80b1 	bgt.w	bcb5a <_strtod_l+0x85a>
   bc9f8:	fa01 f303 	lsl.w	r3, r1, r3
   bc9fc:	930d      	str	r3, [sp, #52]	; 0x34
   bc9fe:	2300      	movs	r3, #0
   bca00:	9308      	str	r3, [sp, #32]
   bca02:	eb09 0802 	add.w	r8, r9, r2
   bca06:	9b04      	ldr	r3, [sp, #16]
   bca08:	45c1      	cmp	r9, r8
   bca0a:	4417      	add	r7, r2
   bca0c:	441f      	add	r7, r3
   bca0e:	464b      	mov	r3, r9
   bca10:	bfa8      	it	ge
   bca12:	4643      	movge	r3, r8
   bca14:	42bb      	cmp	r3, r7
   bca16:	bfa8      	it	ge
   bca18:	463b      	movge	r3, r7
   bca1a:	2b00      	cmp	r3, #0
   bca1c:	bfc2      	ittt	gt
   bca1e:	eba8 0803 	subgt.w	r8, r8, r3
   bca22:	1aff      	subgt	r7, r7, r3
   bca24:	eba9 0903 	subgt.w	r9, r9, r3
   bca28:	9b0c      	ldr	r3, [sp, #48]	; 0x30
   bca2a:	2b00      	cmp	r3, #0
   bca2c:	dd17      	ble.n	bca5e <_strtod_l+0x75e>
   bca2e:	4631      	mov	r1, r6
   bca30:	461a      	mov	r2, r3
   bca32:	4620      	mov	r0, r4
   bca34:	f001 f93c 	bl	bdcb0 <__pow5mult>
   bca38:	4606      	mov	r6, r0
   bca3a:	2800      	cmp	r0, #0
   bca3c:	f43f aea8 	beq.w	bc790 <_strtod_l+0x490>
   bca40:	4601      	mov	r1, r0
   bca42:	9a18      	ldr	r2, [sp, #96]	; 0x60
   bca44:	4620      	mov	r0, r4
   bca46:	f001 f889 	bl	bdb5c <__multiply>
   bca4a:	900b      	str	r0, [sp, #44]	; 0x2c
   bca4c:	2800      	cmp	r0, #0
   bca4e:	f43f ae9f 	beq.w	bc790 <_strtod_l+0x490>
   bca52:	9918      	ldr	r1, [sp, #96]	; 0x60
   bca54:	4620      	mov	r0, r4
   bca56:	f000 ff69 	bl	bd92c <_Bfree>
   bca5a:	9b0b      	ldr	r3, [sp, #44]	; 0x2c
   bca5c:	9318      	str	r3, [sp, #96]	; 0x60
   bca5e:	f1b8 0f00 	cmp.w	r8, #0
   bca62:	f300 808c 	bgt.w	bcb7e <_strtod_l+0x87e>
   bca66:	9b06      	ldr	r3, [sp, #24]
   bca68:	2b00      	cmp	r3, #0
   bca6a:	dd08      	ble.n	bca7e <_strtod_l+0x77e>
   bca6c:	9a12      	ldr	r2, [sp, #72]	; 0x48
   bca6e:	9905      	ldr	r1, [sp, #20]
   bca70:	4620      	mov	r0, r4
   bca72:	f001 f91d 	bl	bdcb0 <__pow5mult>
   bca76:	9005      	str	r0, [sp, #20]
   bca78:	2800      	cmp	r0, #0
   bca7a:	f43f ae89 	beq.w	bc790 <_strtod_l+0x490>
   bca7e:	2f00      	cmp	r7, #0
   bca80:	dd08      	ble.n	bca94 <_strtod_l+0x794>
   bca82:	9905      	ldr	r1, [sp, #20]
   bca84:	463a      	mov	r2, r7
   bca86:	4620      	mov	r0, r4
   bca88:	f001 f96c 	bl	bdd64 <__lshift>
   bca8c:	9005      	str	r0, [sp, #20]
   bca8e:	2800      	cmp	r0, #0
   bca90:	f43f ae7e 	beq.w	bc790 <_strtod_l+0x490>
   bca94:	f1b9 0f00 	cmp.w	r9, #0
   bca98:	dd08      	ble.n	bcaac <_strtod_l+0x7ac>
   bca9a:	4631      	mov	r1, r6
   bca9c:	464a      	mov	r2, r9
   bca9e:	4620      	mov	r0, r4
   bcaa0:	f001 f960 	bl	bdd64 <__lshift>
   bcaa4:	4606      	mov	r6, r0
   bcaa6:	2800      	cmp	r0, #0
   bcaa8:	f43f ae72 	beq.w	bc790 <_strtod_l+0x490>
   bcaac:	9a05      	ldr	r2, [sp, #20]
   bcaae:	9918      	ldr	r1, [sp, #96]	; 0x60
   bcab0:	4620      	mov	r0, r4
   bcab2:	f001 f9e3 	bl	bde7c <__mdiff>
   bcab6:	4605      	mov	r5, r0
   bcab8:	2800      	cmp	r0, #0
   bcaba:	f43f ae69 	beq.w	bc790 <_strtod_l+0x490>
   bcabe:	68c3      	ldr	r3, [r0, #12]
   bcac0:	930b      	str	r3, [sp, #44]	; 0x2c
   bcac2:	2300      	movs	r3, #0
   bcac4:	60c3      	str	r3, [r0, #12]
   bcac6:	4631      	mov	r1, r6
   bcac8:	f001 f9bc 	bl	bde44 <__mcmp>
   bcacc:	2800      	cmp	r0, #0
   bcace:	da60      	bge.n	bcb92 <_strtod_l+0x892>
   bcad0:	9b0b      	ldr	r3, [sp, #44]	; 0x2c
   bcad2:	ea53 030a 	orrs.w	r3, r3, sl
   bcad6:	f040 8082 	bne.w	bcbde <_strtod_l+0x8de>
   bcada:	f3cb 0313 	ubfx	r3, fp, #0, #20
   bcade:	2b00      	cmp	r3, #0
   bcae0:	d17d      	bne.n	bcbde <_strtod_l+0x8de>
   bcae2:	f02b 4300 	bic.w	r3, fp, #2147483648	; 0x80000000
   bcae6:	0d1b      	lsrs	r3, r3, #20
   bcae8:	051b      	lsls	r3, r3, #20
   bcaea:	f1b3 6fd6 	cmp.w	r3, #112197632	; 0x6b00000
   bcaee:	d976      	bls.n	bcbde <_strtod_l+0x8de>
   bcaf0:	696b      	ldr	r3, [r5, #20]
   bcaf2:	b913      	cbnz	r3, bcafa <_strtod_l+0x7fa>
   bcaf4:	692b      	ldr	r3, [r5, #16]
   bcaf6:	2b01      	cmp	r3, #1
   bcaf8:	dd71      	ble.n	bcbde <_strtod_l+0x8de>
   bcafa:	4629      	mov	r1, r5
   bcafc:	2201      	movs	r2, #1
   bcafe:	4620      	mov	r0, r4
   bcb00:	f001 f930 	bl	bdd64 <__lshift>
   bcb04:	4631      	mov	r1, r6
   bcb06:	4605      	mov	r5, r0
   bcb08:	f001 f99c 	bl	bde44 <__mcmp>
   bcb0c:	2800      	cmp	r0, #0
   bcb0e:	dd66      	ble.n	bcbde <_strtod_l+0x8de>
   bcb10:	9904      	ldr	r1, [sp, #16]
   bcb12:	4a53      	ldr	r2, [pc, #332]	; (bcc60 <_strtod_l+0x960>)
   bcb14:	465b      	mov	r3, fp
   bcb16:	2900      	cmp	r1, #0
   bcb18:	f000 8081 	beq.w	bcc1e <_strtod_l+0x91e>
   bcb1c:	ea02 010b 	and.w	r1, r2, fp
   bcb20:	f1b1 6fd6 	cmp.w	r1, #112197632	; 0x6b00000
   bcb24:	dc7b      	bgt.n	bcc1e <_strtod_l+0x91e>
   bcb26:	f1b1 7f5c 	cmp.w	r1, #57671680	; 0x3700000
   bcb2a:	f77f aea9 	ble.w	bc880 <_strtod_l+0x580>
   bcb2e:	4b4d      	ldr	r3, [pc, #308]	; (bcc64 <_strtod_l+0x964>)
   bcb30:	4650      	mov	r0, sl
   bcb32:	4659      	mov	r1, fp
   bcb34:	2200      	movs	r2, #0
   bcb36:	f7fe ffbf 	bl	bbab8 <__aeabi_dmul>
   bcb3a:	460b      	mov	r3, r1
   bcb3c:	4303      	orrs	r3, r0
   bcb3e:	bf08      	it	eq
   bcb40:	2322      	moveq	r3, #34	; 0x22
   bcb42:	4682      	mov	sl, r0
   bcb44:	468b      	mov	fp, r1
   bcb46:	bf08      	it	eq
   bcb48:	6023      	streq	r3, [r4, #0]
   bcb4a:	e62b      	b.n	bc7a4 <_strtod_l+0x4a4>
   bcb4c:	f04f 32ff 	mov.w	r2, #4294967295	; 0xffffffff
   bcb50:	fa02 f303 	lsl.w	r3, r2, r3
   bcb54:	ea03 0a0a 	and.w	sl, r3, sl
   bcb58:	e6e3      	b.n	bc922 <_strtod_l+0x622>
   bcb5a:	f1c8 487f 	rsb	r8, r8, #4278190080	; 0xff000000
   bcb5e:	f508 087f 	add.w	r8, r8, #16711680	; 0xff0000
   bcb62:	f508 487b 	add.w	r8, r8, #64256	; 0xfb00
   bcb66:	f108 08e2 	add.w	r8, r8, #226	; 0xe2
   bcb6a:	fa01 f308 	lsl.w	r3, r1, r8
   bcb6e:	9308      	str	r3, [sp, #32]
   bcb70:	910d      	str	r1, [sp, #52]	; 0x34
   bcb72:	e746      	b.n	bca02 <_strtod_l+0x702>
   bcb74:	2300      	movs	r3, #0
   bcb76:	9308      	str	r3, [sp, #32]
   bcb78:	2301      	movs	r3, #1
   bcb7a:	930d      	str	r3, [sp, #52]	; 0x34
   bcb7c:	e741      	b.n	bca02 <_strtod_l+0x702>
   bcb7e:	9918      	ldr	r1, [sp, #96]	; 0x60
   bcb80:	4642      	mov	r2, r8
   bcb82:	4620      	mov	r0, r4
   bcb84:	f001 f8ee 	bl	bdd64 <__lshift>
   bcb88:	9018      	str	r0, [sp, #96]	; 0x60
   bcb8a:	2800      	cmp	r0, #0
   bcb8c:	f47f af6b 	bne.w	bca66 <_strtod_l+0x766>
   bcb90:	e5fe      	b.n	bc790 <_strtod_l+0x490>
   bcb92:	465f      	mov	r7, fp
   bcb94:	d16e      	bne.n	bcc74 <_strtod_l+0x974>
   bcb96:	9a0b      	ldr	r2, [sp, #44]	; 0x2c
   bcb98:	f3cb 0313 	ubfx	r3, fp, #0, #20
   bcb9c:	b342      	cbz	r2, bcbf0 <_strtod_l+0x8f0>
   bcb9e:	4a32      	ldr	r2, [pc, #200]	; (bcc68 <_strtod_l+0x968>)
   bcba0:	4293      	cmp	r3, r2
   bcba2:	d128      	bne.n	bcbf6 <_strtod_l+0x8f6>
   bcba4:	9b04      	ldr	r3, [sp, #16]
   bcba6:	4651      	mov	r1, sl
   bcba8:	b1eb      	cbz	r3, bcbe6 <_strtod_l+0x8e6>
   bcbaa:	4b2d      	ldr	r3, [pc, #180]	; (bcc60 <_strtod_l+0x960>)
   bcbac:	403b      	ands	r3, r7
   bcbae:	f1b3 6fd4 	cmp.w	r3, #111149056	; 0x6a00000
   bcbb2:	f04f 32ff 	mov.w	r2, #4294967295	; 0xffffffff
   bcbb6:	d819      	bhi.n	bcbec <_strtod_l+0x8ec>
   bcbb8:	0d1b      	lsrs	r3, r3, #20
   bcbba:	f1c3 036b 	rsb	r3, r3, #107	; 0x6b
   bcbbe:	fa02 f303 	lsl.w	r3, r2, r3
   bcbc2:	4299      	cmp	r1, r3
   bcbc4:	d117      	bne.n	bcbf6 <_strtod_l+0x8f6>
   bcbc6:	4b29      	ldr	r3, [pc, #164]	; (bcc6c <_strtod_l+0x96c>)
   bcbc8:	429f      	cmp	r7, r3
   bcbca:	d102      	bne.n	bcbd2 <_strtod_l+0x8d2>
   bcbcc:	3101      	adds	r1, #1
   bcbce:	f43f addf 	beq.w	bc790 <_strtod_l+0x490>
   bcbd2:	4b23      	ldr	r3, [pc, #140]	; (bcc60 <_strtod_l+0x960>)
   bcbd4:	403b      	ands	r3, r7
   bcbd6:	f503 1b80 	add.w	fp, r3, #1048576	; 0x100000
   bcbda:	f04f 0a00 	mov.w	sl, #0
   bcbde:	9b04      	ldr	r3, [sp, #16]
   bcbe0:	2b00      	cmp	r3, #0
   bcbe2:	d1a4      	bne.n	bcb2e <_strtod_l+0x82e>
   bcbe4:	e5de      	b.n	bc7a4 <_strtod_l+0x4a4>
   bcbe6:	f04f 33ff 	mov.w	r3, #4294967295	; 0xffffffff
   bcbea:	e7ea      	b.n	bcbc2 <_strtod_l+0x8c2>
   bcbec:	4613      	mov	r3, r2
   bcbee:	e7e8      	b.n	bcbc2 <_strtod_l+0x8c2>
   bcbf0:	ea53 030a 	orrs.w	r3, r3, sl
   bcbf4:	d08c      	beq.n	bcb10 <_strtod_l+0x810>
   bcbf6:	9b08      	ldr	r3, [sp, #32]
   bcbf8:	b1db      	cbz	r3, bcc32 <_strtod_l+0x932>
   bcbfa:	423b      	tst	r3, r7
   bcbfc:	d0ef      	beq.n	bcbde <_strtod_l+0x8de>
   bcbfe:	9b0b      	ldr	r3, [sp, #44]	; 0x2c
   bcc00:	9a04      	ldr	r2, [sp, #16]
   bcc02:	4650      	mov	r0, sl
   bcc04:	4659      	mov	r1, fp
   bcc06:	b1c3      	cbz	r3, bcc3a <_strtod_l+0x93a>
   bcc08:	f7ff fb5c 	bl	bc2c4 <sulp>
   bcc0c:	4602      	mov	r2, r0
   bcc0e:	460b      	mov	r3, r1
   bcc10:	ec51 0b18 	vmov	r0, r1, d8
   bcc14:	f7fe fd9a 	bl	bb74c <__adddf3>
   bcc18:	4682      	mov	sl, r0
   bcc1a:	468b      	mov	fp, r1
   bcc1c:	e7df      	b.n	bcbde <_strtod_l+0x8de>
   bcc1e:	4013      	ands	r3, r2
   bcc20:	f5a3 1380 	sub.w	r3, r3, #1048576	; 0x100000
   bcc24:	ea6f 5b13 	mvn.w	fp, r3, lsr #20
   bcc28:	ea6f 5b0b 	mvn.w	fp, fp, lsl #20
   bcc2c:	f04f 3aff 	mov.w	sl, #4294967295	; 0xffffffff
   bcc30:	e7d5      	b.n	bcbde <_strtod_l+0x8de>
   bcc32:	9b0d      	ldr	r3, [sp, #52]	; 0x34
   bcc34:	ea13 0f0a 	tst.w	r3, sl
   bcc38:	e7e0      	b.n	bcbfc <_strtod_l+0x8fc>
   bcc3a:	f7ff fb43 	bl	bc2c4 <sulp>
   bcc3e:	4602      	mov	r2, r0
   bcc40:	460b      	mov	r3, r1
   bcc42:	ec51 0b18 	vmov	r0, r1, d8
   bcc46:	f7fe fd7f 	bl	bb748 <__aeabi_dsub>
   bcc4a:	2200      	movs	r2, #0
   bcc4c:	2300      	movs	r3, #0
   bcc4e:	4682      	mov	sl, r0
   bcc50:	468b      	mov	fp, r1
   bcc52:	f7ff f999 	bl	bbf88 <__aeabi_dcmpeq>
   bcc56:	2800      	cmp	r0, #0
   bcc58:	d0c1      	beq.n	bcbde <_strtod_l+0x8de>
   bcc5a:	e611      	b.n	bc880 <_strtod_l+0x580>
   bcc5c:	fffffc02 	.word	0xfffffc02
   bcc60:	7ff00000 	.word	0x7ff00000
   bcc64:	39500000 	.word	0x39500000
   bcc68:	000fffff 	.word	0x000fffff
   bcc6c:	7fefffff 	.word	0x7fefffff
   bcc70:	000bedb8 	.word	0x000bedb8
   bcc74:	4631      	mov	r1, r6
   bcc76:	4628      	mov	r0, r5
   bcc78:	f001 fa62 	bl	be140 <__ratio>
   bcc7c:	ec59 8b10 	vmov	r8, r9, d0
   bcc80:	ee10 0a10 	vmov	r0, s0
   bcc84:	2200      	movs	r2, #0
   bcc86:	f04f 4380 	mov.w	r3, #1073741824	; 0x40000000
   bcc8a:	4649      	mov	r1, r9
   bcc8c:	f7ff f990 	bl	bbfb0 <__aeabi_dcmple>
   bcc90:	2800      	cmp	r0, #0
   bcc92:	d07a      	beq.n	bcd8a <_strtod_l+0xa8a>
   bcc94:	9b0b      	ldr	r3, [sp, #44]	; 0x2c
   bcc96:	2b00      	cmp	r3, #0
   bcc98:	d04a      	beq.n	bcd30 <_strtod_l+0xa30>
   bcc9a:	4b95      	ldr	r3, [pc, #596]	; (bcef0 <_strtod_l+0xbf0>)
   bcc9c:	2200      	movs	r2, #0
   bcc9e:	e9cd 2308 	strd	r2, r3, [sp, #32]
   bcca2:	f8df 924c 	ldr.w	r9, [pc, #588]	; bcef0 <_strtod_l+0xbf0>
   bcca6:	f04f 0800 	mov.w	r8, #0
   bccaa:	4b92      	ldr	r3, [pc, #584]	; (bcef4 <_strtod_l+0xbf4>)
   bccac:	403b      	ands	r3, r7
   bccae:	930d      	str	r3, [sp, #52]	; 0x34
   bccb0:	9a0d      	ldr	r2, [sp, #52]	; 0x34
   bccb2:	4b91      	ldr	r3, [pc, #580]	; (bcef8 <_strtod_l+0xbf8>)
   bccb4:	429a      	cmp	r2, r3
   bccb6:	f040 80b0 	bne.w	bce1a <_strtod_l+0xb1a>
   bccba:	e9dd 0108 	ldrd	r0, r1, [sp, #32]
   bccbe:	f1a7 7b54 	sub.w	fp, r7, #55574528	; 0x3500000
   bccc2:	ec4b ab10 	vmov	d0, sl, fp
   bccc6:	e9cd 0108 	strd	r0, r1, [sp, #32]
   bccca:	f001 f961 	bl	bdf90 <__ulp>
   bccce:	e9dd 0108 	ldrd	r0, r1, [sp, #32]
   bccd2:	ec53 2b10 	vmov	r2, r3, d0
   bccd6:	f7fe feef 	bl	bbab8 <__aeabi_dmul>
   bccda:	4652      	mov	r2, sl
   bccdc:	465b      	mov	r3, fp
   bccde:	f7fe fd35 	bl	bb74c <__adddf3>
   bcce2:	460b      	mov	r3, r1
   bcce4:	4983      	ldr	r1, [pc, #524]	; (bcef4 <_strtod_l+0xbf4>)
   bcce6:	4a85      	ldr	r2, [pc, #532]	; (bcefc <_strtod_l+0xbfc>)
   bcce8:	4019      	ands	r1, r3
   bccea:	4291      	cmp	r1, r2
   bccec:	4682      	mov	sl, r0
   bccee:	d960      	bls.n	bcdb2 <_strtod_l+0xab2>
   bccf0:	ee18 3a90 	vmov	r3, s17
   bccf4:	f102 7254 	add.w	r2, r2, #55574528	; 0x3500000
   bccf8:	4293      	cmp	r3, r2
   bccfa:	d104      	bne.n	bcd06 <_strtod_l+0xa06>
   bccfc:	ee18 3a10 	vmov	r3, s16
   bcd00:	3301      	adds	r3, #1
   bcd02:	f43f ad45 	beq.w	bc790 <_strtod_l+0x490>
   bcd06:	f8df b200 	ldr.w	fp, [pc, #512]	; bcf08 <_strtod_l+0xc08>
   bcd0a:	f04f 3aff 	mov.w	sl, #4294967295	; 0xffffffff
   bcd0e:	9918      	ldr	r1, [sp, #96]	; 0x60
   bcd10:	4620      	mov	r0, r4
   bcd12:	f000 fe0b 	bl	bd92c <_Bfree>
   bcd16:	9905      	ldr	r1, [sp, #20]
   bcd18:	4620      	mov	r0, r4
   bcd1a:	f000 fe07 	bl	bd92c <_Bfree>
   bcd1e:	4631      	mov	r1, r6
   bcd20:	4620      	mov	r0, r4
   bcd22:	f000 fe03 	bl	bd92c <_Bfree>
   bcd26:	4629      	mov	r1, r5
   bcd28:	4620      	mov	r0, r4
   bcd2a:	f000 fdff 	bl	bd92c <_Bfree>
   bcd2e:	e61a      	b.n	bc966 <_strtod_l+0x666>
   bcd30:	f1ba 0f00 	cmp.w	sl, #0
   bcd34:	d11b      	bne.n	bcd6e <_strtod_l+0xa6e>
   bcd36:	f3cb 0313 	ubfx	r3, fp, #0, #20
   bcd3a:	b9f3      	cbnz	r3, bcd7a <_strtod_l+0xa7a>
   bcd3c:	4b6c      	ldr	r3, [pc, #432]	; (bcef0 <_strtod_l+0xbf0>)
   bcd3e:	2200      	movs	r2, #0
   bcd40:	4640      	mov	r0, r8
   bcd42:	4649      	mov	r1, r9
   bcd44:	f7ff f92a 	bl	bbf9c <__aeabi_dcmplt>
   bcd48:	b9d0      	cbnz	r0, bcd80 <_strtod_l+0xa80>
   bcd4a:	4640      	mov	r0, r8
   bcd4c:	4649      	mov	r1, r9
   bcd4e:	4b6c      	ldr	r3, [pc, #432]	; (bcf00 <_strtod_l+0xc00>)
   bcd50:	2200      	movs	r2, #0
   bcd52:	f7fe feb1 	bl	bbab8 <__aeabi_dmul>
   bcd56:	4680      	mov	r8, r0
   bcd58:	4689      	mov	r9, r1
   bcd5a:	f109 4300 	add.w	r3, r9, #2147483648	; 0x80000000
   bcd5e:	f8cd 8050 	str.w	r8, [sp, #80]	; 0x50
   bcd62:	9315      	str	r3, [sp, #84]	; 0x54
   bcd64:	e9dd 2314 	ldrd	r2, r3, [sp, #80]	; 0x50
   bcd68:	e9cd 2308 	strd	r2, r3, [sp, #32]
   bcd6c:	e79d      	b.n	bccaa <_strtod_l+0x9aa>
   bcd6e:	f1ba 0f01 	cmp.w	sl, #1
   bcd72:	d102      	bne.n	bcd7a <_strtod_l+0xa7a>
   bcd74:	2f00      	cmp	r7, #0
   bcd76:	f43f ad83 	beq.w	bc880 <_strtod_l+0x580>
   bcd7a:	4b62      	ldr	r3, [pc, #392]	; (bcf04 <_strtod_l+0xc04>)
   bcd7c:	2200      	movs	r2, #0
   bcd7e:	e78e      	b.n	bcc9e <_strtod_l+0x99e>
   bcd80:	f8df 917c 	ldr.w	r9, [pc, #380]	; bcf00 <_strtod_l+0xc00>
   bcd84:	f04f 0800 	mov.w	r8, #0
   bcd88:	e7e7      	b.n	bcd5a <_strtod_l+0xa5a>
   bcd8a:	4b5d      	ldr	r3, [pc, #372]	; (bcf00 <_strtod_l+0xc00>)
   bcd8c:	4640      	mov	r0, r8
   bcd8e:	4649      	mov	r1, r9
   bcd90:	2200      	movs	r2, #0
   bcd92:	f7fe fe91 	bl	bbab8 <__aeabi_dmul>
   bcd96:	9b0b      	ldr	r3, [sp, #44]	; 0x2c
   bcd98:	4680      	mov	r8, r0
   bcd9a:	4689      	mov	r9, r1
   bcd9c:	b933      	cbnz	r3, bcdac <_strtod_l+0xaac>
   bcd9e:	f101 4300 	add.w	r3, r1, #2147483648	; 0x80000000
   bcda2:	900e      	str	r0, [sp, #56]	; 0x38
   bcda4:	930f      	str	r3, [sp, #60]	; 0x3c
   bcda6:	e9dd 230e 	ldrd	r2, r3, [sp, #56]	; 0x38
   bcdaa:	e7dd      	b.n	bcd68 <_strtod_l+0xa68>
   bcdac:	e9cd 890e 	strd	r8, r9, [sp, #56]	; 0x38
   bcdb0:	e7f9      	b.n	bcda6 <_strtod_l+0xaa6>
   bcdb2:	f103 7b54 	add.w	fp, r3, #55574528	; 0x3500000
   bcdb6:	9b04      	ldr	r3, [sp, #16]
   bcdb8:	2b00      	cmp	r3, #0
   bcdba:	d1a8      	bne.n	bcd0e <_strtod_l+0xa0e>
   bcdbc:	f02b 4300 	bic.w	r3, fp, #2147483648	; 0x80000000
   bcdc0:	9a0d      	ldr	r2, [sp, #52]	; 0x34
   bcdc2:	0d1b      	lsrs	r3, r3, #20
   bcdc4:	051b      	lsls	r3, r3, #20
   bcdc6:	429a      	cmp	r2, r3
   bcdc8:	d1a1      	bne.n	bcd0e <_strtod_l+0xa0e>
   bcdca:	4640      	mov	r0, r8
   bcdcc:	4649      	mov	r1, r9
   bcdce:	f001 fa5b 	bl	be288 <__aeabi_d2lz>
   bcdd2:	f7fe fe43 	bl	bba5c <__aeabi_l2d>
   bcdd6:	4602      	mov	r2, r0
   bcdd8:	460b      	mov	r3, r1
   bcdda:	4640      	mov	r0, r8
   bcddc:	4649      	mov	r1, r9
   bcdde:	f7fe fcb3 	bl	bb748 <__aeabi_dsub>
   bcde2:	9a0b      	ldr	r2, [sp, #44]	; 0x2c
   bcde4:	f3cb 0313 	ubfx	r3, fp, #0, #20
   bcde8:	ea43 030a 	orr.w	r3, r3, sl
   bcdec:	4313      	orrs	r3, r2
   bcdee:	4680      	mov	r8, r0
   bcdf0:	4689      	mov	r9, r1
   bcdf2:	d055      	beq.n	bcea0 <_strtod_l+0xba0>
   bcdf4:	a336      	add	r3, pc, #216	; (adr r3, bced0 <_strtod_l+0xbd0>)
   bcdf6:	e9d3 2300 	ldrd	r2, r3, [r3]
   bcdfa:	f7ff f8cf 	bl	bbf9c <__aeabi_dcmplt>
   bcdfe:	2800      	cmp	r0, #0
   bce00:	f47f acd0 	bne.w	bc7a4 <_strtod_l+0x4a4>
   bce04:	a334      	add	r3, pc, #208	; (adr r3, bced8 <_strtod_l+0xbd8>)
   bce06:	e9d3 2300 	ldrd	r2, r3, [r3]
   bce0a:	4640      	mov	r0, r8
   bce0c:	4649      	mov	r1, r9
   bce0e:	f7ff f8e3 	bl	bbfd8 <__aeabi_dcmpgt>
   bce12:	2800      	cmp	r0, #0
   bce14:	f43f af7b 	beq.w	bcd0e <_strtod_l+0xa0e>
   bce18:	e4c4      	b.n	bc7a4 <_strtod_l+0x4a4>
   bce1a:	9b04      	ldr	r3, [sp, #16]
   bce1c:	b333      	cbz	r3, bce6c <_strtod_l+0xb6c>
   bce1e:	9b0d      	ldr	r3, [sp, #52]	; 0x34
   bce20:	f1b3 6fd4 	cmp.w	r3, #111149056	; 0x6a00000
   bce24:	d822      	bhi.n	bce6c <_strtod_l+0xb6c>
   bce26:	a32e      	add	r3, pc, #184	; (adr r3, bcee0 <_strtod_l+0xbe0>)
   bce28:	e9d3 2300 	ldrd	r2, r3, [r3]
   bce2c:	4640      	mov	r0, r8
   bce2e:	4649      	mov	r1, r9
   bce30:	f7ff f8be 	bl	bbfb0 <__aeabi_dcmple>
   bce34:	b1a0      	cbz	r0, bce60 <_strtod_l+0xb60>
   bce36:	4649      	mov	r1, r9
   bce38:	4640      	mov	r0, r8
   bce3a:	f7ff f8ed 	bl	bc018 <__aeabi_d2uiz>
   bce3e:	2801      	cmp	r0, #1
   bce40:	bf38      	it	cc
   bce42:	2001      	movcc	r0, #1
   bce44:	f7fe fdbe 	bl	bb9c4 <__aeabi_ui2d>
   bce48:	9b0b      	ldr	r3, [sp, #44]	; 0x2c
   bce4a:	4680      	mov	r8, r0
   bce4c:	4689      	mov	r9, r1
   bce4e:	bb23      	cbnz	r3, bce9a <_strtod_l+0xb9a>
   bce50:	f101 4300 	add.w	r3, r1, #2147483648	; 0x80000000
   bce54:	9010      	str	r0, [sp, #64]	; 0x40
   bce56:	9311      	str	r3, [sp, #68]	; 0x44
   bce58:	e9dd 2310 	ldrd	r2, r3, [sp, #64]	; 0x40
   bce5c:	e9cd 2308 	strd	r2, r3, [sp, #32]
   bce60:	9b09      	ldr	r3, [sp, #36]	; 0x24
   bce62:	9a0d      	ldr	r2, [sp, #52]	; 0x34
   bce64:	f103 63d6 	add.w	r3, r3, #112197632	; 0x6b00000
   bce68:	1a9b      	subs	r3, r3, r2
   bce6a:	9309      	str	r3, [sp, #36]	; 0x24
   bce6c:	e9dd 0108 	ldrd	r0, r1, [sp, #32]
   bce70:	eeb0 0a48 	vmov.f32	s0, s16
   bce74:	eef0 0a68 	vmov.f32	s1, s17
   bce78:	e9cd 0108 	strd	r0, r1, [sp, #32]
   bce7c:	f001 f888 	bl	bdf90 <__ulp>
   bce80:	e9dd 0108 	ldrd	r0, r1, [sp, #32]
   bce84:	ec53 2b10 	vmov	r2, r3, d0
   bce88:	f7fe fe16 	bl	bbab8 <__aeabi_dmul>
   bce8c:	ec53 2b18 	vmov	r2, r3, d8
   bce90:	f7fe fc5c 	bl	bb74c <__adddf3>
   bce94:	4682      	mov	sl, r0
   bce96:	468b      	mov	fp, r1
   bce98:	e78d      	b.n	bcdb6 <_strtod_l+0xab6>
   bce9a:	e9cd 8910 	strd	r8, r9, [sp, #64]	; 0x40
   bce9e:	e7db      	b.n	bce58 <_strtod_l+0xb58>
   bcea0:	a311      	add	r3, pc, #68	; (adr r3, bcee8 <_strtod_l+0xbe8>)
   bcea2:	e9d3 2300 	ldrd	r2, r3, [r3]
   bcea6:	f7ff f879 	bl	bbf9c <__aeabi_dcmplt>
   bceaa:	e7b2      	b.n	bce12 <_strtod_l+0xb12>
   bceac:	2300      	movs	r3, #0
   bceae:	930a      	str	r3, [sp, #40]	; 0x28
   bceb0:	9a13      	ldr	r2, [sp, #76]	; 0x4c
   bceb2:	9b17      	ldr	r3, [sp, #92]	; 0x5c
   bceb4:	6013      	str	r3, [r2, #0]
   bceb6:	f7ff ba6b 	b.w	bc390 <_strtod_l+0x90>
   bceba:	2a65      	cmp	r2, #101	; 0x65
   bcebc:	f43f ab5f 	beq.w	bc57e <_strtod_l+0x27e>
   bcec0:	2a45      	cmp	r2, #69	; 0x45
   bcec2:	f43f ab5c 	beq.w	bc57e <_strtod_l+0x27e>
   bcec6:	2301      	movs	r3, #1
   bcec8:	f7ff bb94 	b.w	bc5f4 <_strtod_l+0x2f4>
   bcecc:	f3af 8000 	nop.w
   bced0:	94a03595 	.word	0x94a03595
   bced4:	3fdfffff 	.word	0x3fdfffff
   bced8:	35afe535 	.word	0x35afe535
   bcedc:	3fe00000 	.word	0x3fe00000
   bcee0:	ffc00000 	.word	0xffc00000
   bcee4:	41dfffff 	.word	0x41dfffff
   bcee8:	94a03595 	.word	0x94a03595
   bceec:	3fcfffff 	.word	0x3fcfffff
   bcef0:	3ff00000 	.word	0x3ff00000
   bcef4:	7ff00000 	.word	0x7ff00000
   bcef8:	7fe00000 	.word	0x7fe00000
   bcefc:	7c9fffff 	.word	0x7c9fffff
   bcf00:	3fe00000 	.word	0x3fe00000
   bcf04:	bff00000 	.word	0xbff00000
   bcf08:	7fefffff 	.word	0x7fefffff

000bcf0c <strtof>:
   bcf0c:	e92d 41f0 	stmdb	sp!, {r4, r5, r6, r7, r8, lr}
   bcf10:	f8df 80ac 	ldr.w	r8, [pc, #172]	; bcfc0 <strtof+0xb4>
   bcf14:	4b26      	ldr	r3, [pc, #152]	; (bcfb0 <strtof+0xa4>)
   bcf16:	460a      	mov	r2, r1
   bcf18:	ed2d 8b02 	vpush	{d8}
   bcf1c:	4601      	mov	r1, r0
   bcf1e:	f8d8 0000 	ldr.w	r0, [r8]
   bcf22:	f7ff f9ed 	bl	bc300 <_strtod_l>
   bcf26:	ec55 4b10 	vmov	r4, r5, d0
   bcf2a:	ee10 2a10 	vmov	r2, s0
   bcf2e:	ee10 0a10 	vmov	r0, s0
   bcf32:	462b      	mov	r3, r5
   bcf34:	4629      	mov	r1, r5
   bcf36:	f7ff f859 	bl	bbfec <__aeabi_dcmpun>
   bcf3a:	b190      	cbz	r0, bcf62 <strtof+0x56>
   bcf3c:	2d00      	cmp	r5, #0
   bcf3e:	481d      	ldr	r0, [pc, #116]	; (bcfb4 <strtof+0xa8>)
   bcf40:	da09      	bge.n	bcf56 <strtof+0x4a>
   bcf42:	f001 f98d 	bl	be260 <nanf>
   bcf46:	eeb1 8a40 	vneg.f32	s16, s0
   bcf4a:	eeb0 0a48 	vmov.f32	s0, s16
   bcf4e:	ecbd 8b02 	vpop	{d8}
   bcf52:	e8bd 81f0 	ldmia.w	sp!, {r4, r5, r6, r7, r8, pc}
   bcf56:	ecbd 8b02 	vpop	{d8}
   bcf5a:	e8bd 41f0 	ldmia.w	sp!, {r4, r5, r6, r7, r8, lr}
   bcf5e:	f001 b97f 	b.w	be260 <nanf>
   bcf62:	4620      	mov	r0, r4
   bcf64:	4629      	mov	r1, r5
   bcf66:	f7ff f877 	bl	bc058 <__aeabi_d2f>
   bcf6a:	ee08 0a10 	vmov	s16, r0
   bcf6e:	eddf 7a12 	vldr	s15, [pc, #72]	; bcfb8 <strtof+0xac>
   bcf72:	eeb0 7ac8 	vabs.f32	s14, s16
   bcf76:	eeb4 7a67 	vcmp.f32	s14, s15
   bcf7a:	eef1 fa10 	vmrs	APSR_nzcv, fpscr
   bcf7e:	dde4      	ble.n	bcf4a <strtof+0x3e>
   bcf80:	f025 4700 	bic.w	r7, r5, #2147483648	; 0x80000000
   bcf84:	4b0d      	ldr	r3, [pc, #52]	; (bcfbc <strtof+0xb0>)
   bcf86:	f04f 32ff 	mov.w	r2, #4294967295	; 0xffffffff
   bcf8a:	4620      	mov	r0, r4
   bcf8c:	4639      	mov	r1, r7
   bcf8e:	f7ff f82d 	bl	bbfec <__aeabi_dcmpun>
   bcf92:	b940      	cbnz	r0, bcfa6 <strtof+0x9a>
   bcf94:	4b09      	ldr	r3, [pc, #36]	; (bcfbc <strtof+0xb0>)
   bcf96:	f04f 32ff 	mov.w	r2, #4294967295	; 0xffffffff
   bcf9a:	4620      	mov	r0, r4
   bcf9c:	4639      	mov	r1, r7
   bcf9e:	f7ff f807 	bl	bbfb0 <__aeabi_dcmple>
   bcfa2:	2800      	cmp	r0, #0
   bcfa4:	d0d1      	beq.n	bcf4a <strtof+0x3e>
   bcfa6:	f8d8 3000 	ldr.w	r3, [r8]
   bcfaa:	2222      	movs	r2, #34	; 0x22
   bcfac:	601a      	str	r2, [r3, #0]
   bcfae:	e7cc      	b.n	bcf4a <strtof+0x3e>
   bcfb0:	20035134 	.word	0x20035134
   bcfb4:	000be7fe 	.word	0x000be7fe
   bcfb8:	7f7fffff 	.word	0x7f7fffff
   bcfbc:	7fefffff 	.word	0x7fefffff
   bcfc0:	200350c8 	.word	0x200350c8

000bcfc4 <_strtol_l.constprop.0>:
   bcfc4:	2b01      	cmp	r3, #1
   bcfc6:	e92d 47f0 	stmdb	sp!, {r4, r5, r6, r7, r8, r9, sl, lr}
   bcfca:	d001      	beq.n	bcfd0 <_strtol_l.constprop.0+0xc>
   bcfcc:	2b24      	cmp	r3, #36	; 0x24
   bcfce:	d906      	bls.n	bcfde <_strtol_l.constprop.0+0x1a>
   bcfd0:	f7fb fd9c 	bl	b8b0c <__errno>
   bcfd4:	2316      	movs	r3, #22
   bcfd6:	6003      	str	r3, [r0, #0]
   bcfd8:	2000      	movs	r0, #0
   bcfda:	e8bd 87f0 	ldmia.w	sp!, {r4, r5, r6, r7, r8, r9, sl, pc}
   bcfde:	f8df c0e4 	ldr.w	ip, [pc, #228]	; bd0c4 <_strtol_l.constprop.0+0x100>
   bcfe2:	460d      	mov	r5, r1
   bcfe4:	462e      	mov	r6, r5
   bcfe6:	f815 4b01 	ldrb.w	r4, [r5], #1
   bcfea:	f814 700c 	ldrb.w	r7, [r4, ip]
   bcfee:	f017 0708 	ands.w	r7, r7, #8
   bcff2:	d1f7      	bne.n	bcfe4 <_strtol_l.constprop.0+0x20>
   bcff4:	2c2d      	cmp	r4, #45	; 0x2d
   bcff6:	d132      	bne.n	bd05e <_strtol_l.constprop.0+0x9a>
   bcff8:	782c      	ldrb	r4, [r5, #0]
   bcffa:	2701      	movs	r7, #1
   bcffc:	1cb5      	adds	r5, r6, #2
   bcffe:	2b00      	cmp	r3, #0
   bd000:	d05b      	beq.n	bd0ba <_strtol_l.constprop.0+0xf6>
   bd002:	2b10      	cmp	r3, #16
   bd004:	d109      	bne.n	bd01a <_strtol_l.constprop.0+0x56>
   bd006:	2c30      	cmp	r4, #48	; 0x30
   bd008:	d107      	bne.n	bd01a <_strtol_l.constprop.0+0x56>
   bd00a:	782c      	ldrb	r4, [r5, #0]
   bd00c:	f004 04df 	and.w	r4, r4, #223	; 0xdf
   bd010:	2c58      	cmp	r4, #88	; 0x58
   bd012:	d14d      	bne.n	bd0b0 <_strtol_l.constprop.0+0xec>
   bd014:	786c      	ldrb	r4, [r5, #1]
   bd016:	2310      	movs	r3, #16
   bd018:	3502      	adds	r5, #2
   bd01a:	f107 4800 	add.w	r8, r7, #2147483648	; 0x80000000
   bd01e:	f108 38ff 	add.w	r8, r8, #4294967295	; 0xffffffff
   bd022:	f04f 0c00 	mov.w	ip, #0
   bd026:	fbb8 f9f3 	udiv	r9, r8, r3
   bd02a:	4666      	mov	r6, ip
   bd02c:	fb03 8a19 	mls	sl, r3, r9, r8
   bd030:	f1a4 0e30 	sub.w	lr, r4, #48	; 0x30
   bd034:	f1be 0f09 	cmp.w	lr, #9
   bd038:	d816      	bhi.n	bd068 <_strtol_l.constprop.0+0xa4>
   bd03a:	4674      	mov	r4, lr
   bd03c:	42a3      	cmp	r3, r4
   bd03e:	dd24      	ble.n	bd08a <_strtol_l.constprop.0+0xc6>
   bd040:	f1bc 0f00 	cmp.w	ip, #0
   bd044:	db1e      	blt.n	bd084 <_strtol_l.constprop.0+0xc0>
   bd046:	45b1      	cmp	r9, r6
   bd048:	d31c      	bcc.n	bd084 <_strtol_l.constprop.0+0xc0>
   bd04a:	d101      	bne.n	bd050 <_strtol_l.constprop.0+0x8c>
   bd04c:	45a2      	cmp	sl, r4
   bd04e:	db19      	blt.n	bd084 <_strtol_l.constprop.0+0xc0>
   bd050:	fb06 4603 	mla	r6, r6, r3, r4
   bd054:	f04f 0c01 	mov.w	ip, #1
   bd058:	f815 4b01 	ldrb.w	r4, [r5], #1
   bd05c:	e7e8      	b.n	bd030 <_strtol_l.constprop.0+0x6c>
   bd05e:	2c2b      	cmp	r4, #43	; 0x2b
   bd060:	bf04      	itt	eq
   bd062:	782c      	ldrbeq	r4, [r5, #0]
   bd064:	1cb5      	addeq	r5, r6, #2
   bd066:	e7ca      	b.n	bcffe <_strtol_l.constprop.0+0x3a>
   bd068:	f1a4 0e41 	sub.w	lr, r4, #65	; 0x41
   bd06c:	f1be 0f19 	cmp.w	lr, #25
   bd070:	d801      	bhi.n	bd076 <_strtol_l.constprop.0+0xb2>
   bd072:	3c37      	subs	r4, #55	; 0x37
   bd074:	e7e2      	b.n	bd03c <_strtol_l.constprop.0+0x78>
   bd076:	f1a4 0e61 	sub.w	lr, r4, #97	; 0x61
   bd07a:	f1be 0f19 	cmp.w	lr, #25
   bd07e:	d804      	bhi.n	bd08a <_strtol_l.constprop.0+0xc6>
   bd080:	3c57      	subs	r4, #87	; 0x57
   bd082:	e7db      	b.n	bd03c <_strtol_l.constprop.0+0x78>
   bd084:	f04f 3cff 	mov.w	ip, #4294967295	; 0xffffffff
   bd088:	e7e6      	b.n	bd058 <_strtol_l.constprop.0+0x94>
   bd08a:	f1bc 0f00 	cmp.w	ip, #0
   bd08e:	da05      	bge.n	bd09c <_strtol_l.constprop.0+0xd8>
   bd090:	2322      	movs	r3, #34	; 0x22
   bd092:	6003      	str	r3, [r0, #0]
   bd094:	4646      	mov	r6, r8
   bd096:	b942      	cbnz	r2, bd0aa <_strtol_l.constprop.0+0xe6>
   bd098:	4630      	mov	r0, r6
   bd09a:	e79e      	b.n	bcfda <_strtol_l.constprop.0+0x16>
   bd09c:	b107      	cbz	r7, bd0a0 <_strtol_l.constprop.0+0xdc>
   bd09e:	4276      	negs	r6, r6
   bd0a0:	2a00      	cmp	r2, #0
   bd0a2:	d0f9      	beq.n	bd098 <_strtol_l.constprop.0+0xd4>
   bd0a4:	f1bc 0f00 	cmp.w	ip, #0
   bd0a8:	d000      	beq.n	bd0ac <_strtol_l.constprop.0+0xe8>
   bd0aa:	1e69      	subs	r1, r5, #1
   bd0ac:	6011      	str	r1, [r2, #0]
   bd0ae:	e7f3      	b.n	bd098 <_strtol_l.constprop.0+0xd4>
   bd0b0:	2430      	movs	r4, #48	; 0x30
   bd0b2:	2b00      	cmp	r3, #0
   bd0b4:	d1b1      	bne.n	bd01a <_strtol_l.constprop.0+0x56>
   bd0b6:	2308      	movs	r3, #8
   bd0b8:	e7af      	b.n	bd01a <_strtol_l.constprop.0+0x56>
   bd0ba:	2c30      	cmp	r4, #48	; 0x30
   bd0bc:	d0a5      	beq.n	bd00a <_strtol_l.constprop.0+0x46>
   bd0be:	230a      	movs	r3, #10
   bd0c0:	e7ab      	b.n	bd01a <_strtol_l.constprop.0+0x56>
   bd0c2:	bf00      	nop
   bd0c4:	000bede1 	.word	0x000bede1

000bd0c8 <strtol>:
   bd0c8:	4613      	mov	r3, r2
   bd0ca:	460a      	mov	r2, r1
   bd0cc:	4601      	mov	r1, r0
   bd0ce:	4802      	ldr	r0, [pc, #8]	; (bd0d8 <strtol+0x10>)
   bd0d0:	6800      	ldr	r0, [r0, #0]
   bd0d2:	f7ff bf77 	b.w	bcfc4 <_strtol_l.constprop.0>
   bd0d6:	bf00      	nop
   bd0d8:	200350c8 	.word	0x200350c8

000bd0dc <__register_exitproc>:
   bd0dc:	e92d 43f8 	stmdb	sp!, {r3, r4, r5, r6, r7, r8, r9, lr}
   bd0e0:	f8df 80b8 	ldr.w	r8, [pc, #184]	; bd19c <__register_exitproc+0xc0>
   bd0e4:	4606      	mov	r6, r0
   bd0e6:	f8d8 0000 	ldr.w	r0, [r8]
   bd0ea:	461f      	mov	r7, r3
   bd0ec:	460d      	mov	r5, r1
   bd0ee:	4691      	mov	r9, r2
   bd0f0:	f000 fbc6 	bl	bd880 <__retarget_lock_acquire_recursive>
   bd0f4:	4b25      	ldr	r3, [pc, #148]	; (bd18c <__register_exitproc+0xb0>)
   bd0f6:	681c      	ldr	r4, [r3, #0]
   bd0f8:	b934      	cbnz	r4, bd108 <__register_exitproc+0x2c>
   bd0fa:	4c25      	ldr	r4, [pc, #148]	; (bd190 <__register_exitproc+0xb4>)
   bd0fc:	601c      	str	r4, [r3, #0]
   bd0fe:	4b25      	ldr	r3, [pc, #148]	; (bd194 <__register_exitproc+0xb8>)
   bd100:	b113      	cbz	r3, bd108 <__register_exitproc+0x2c>
   bd102:	681b      	ldr	r3, [r3, #0]
   bd104:	f8c4 3088 	str.w	r3, [r4, #136]	; 0x88
   bd108:	6863      	ldr	r3, [r4, #4]
   bd10a:	2b1f      	cmp	r3, #31
   bd10c:	dd07      	ble.n	bd11e <__register_exitproc+0x42>
   bd10e:	f8d8 0000 	ldr.w	r0, [r8]
   bd112:	f000 fbb7 	bl	bd884 <__retarget_lock_release_recursive>
   bd116:	f04f 30ff 	mov.w	r0, #4294967295	; 0xffffffff
   bd11a:	e8bd 83f8 	ldmia.w	sp!, {r3, r4, r5, r6, r7, r8, r9, pc}
   bd11e:	b34e      	cbz	r6, bd174 <__register_exitproc+0x98>
   bd120:	f8d4 0088 	ldr.w	r0, [r4, #136]	; 0x88
   bd124:	b988      	cbnz	r0, bd14a <__register_exitproc+0x6e>
   bd126:	4b1c      	ldr	r3, [pc, #112]	; (bd198 <__register_exitproc+0xbc>)
   bd128:	b923      	cbnz	r3, bd134 <__register_exitproc+0x58>
   bd12a:	f8d8 0000 	ldr.w	r0, [r8]
   bd12e:	f000 fba8 	bl	bd882 <__retarget_lock_release>
   bd132:	e7f0      	b.n	bd116 <__register_exitproc+0x3a>
   bd134:	f44f 7084 	mov.w	r0, #264	; 0x108
   bd138:	f7fb fcb0 	bl	b8a9c <malloc>
   bd13c:	2800      	cmp	r0, #0
   bd13e:	d0f4      	beq.n	bd12a <__register_exitproc+0x4e>
   bd140:	2300      	movs	r3, #0
   bd142:	e9c0 3340 	strd	r3, r3, [r0, #256]	; 0x100
   bd146:	f8c4 0088 	str.w	r0, [r4, #136]	; 0x88
   bd14a:	6863      	ldr	r3, [r4, #4]
   bd14c:	f840 9023 	str.w	r9, [r0, r3, lsl #2]
   bd150:	2201      	movs	r2, #1
   bd152:	409a      	lsls	r2, r3
   bd154:	eb00 0183 	add.w	r1, r0, r3, lsl #2
   bd158:	f8d0 3100 	ldr.w	r3, [r0, #256]	; 0x100
   bd15c:	4313      	orrs	r3, r2
   bd15e:	f8c0 3100 	str.w	r3, [r0, #256]	; 0x100
   bd162:	2e02      	cmp	r6, #2
   bd164:	f8c1 7080 	str.w	r7, [r1, #128]	; 0x80
   bd168:	bf02      	ittt	eq
   bd16a:	f8d0 3104 	ldreq.w	r3, [r0, #260]	; 0x104
   bd16e:	4313      	orreq	r3, r2
   bd170:	f8c0 3104 	streq.w	r3, [r0, #260]	; 0x104
   bd174:	6863      	ldr	r3, [r4, #4]
   bd176:	f8d8 0000 	ldr.w	r0, [r8]
   bd17a:	1c5a      	adds	r2, r3, #1
   bd17c:	3302      	adds	r3, #2
   bd17e:	6062      	str	r2, [r4, #4]
   bd180:	f844 5023 	str.w	r5, [r4, r3, lsl #2]
   bd184:	f000 fb7e 	bl	bd884 <__retarget_lock_release_recursive>
   bd188:	2000      	movs	r0, #0
   bd18a:	e7c6      	b.n	bd11a <__register_exitproc+0x3e>
   bd18c:	2003e7e8 	.word	0x2003e7e8
   bd190:	2003e75c 	.word	0x2003e75c
   bd194:	00000000 	.word	0x00000000
   bd198:	000b8a9d 	.word	0x000b8a9d
   bd19c:	2003512c 	.word	0x2003512c

000bd1a0 <rshift>:
   bd1a0:	6903      	ldr	r3, [r0, #16]
   bd1a2:	ebb3 1f61 	cmp.w	r3, r1, asr #5
   bd1a6:	e92d 43f0 	stmdb	sp!, {r4, r5, r6, r7, r8, r9, lr}
   bd1aa:	ea4f 1261 	mov.w	r2, r1, asr #5
   bd1ae:	f100 0414 	add.w	r4, r0, #20
   bd1b2:	dd45      	ble.n	bd240 <rshift+0xa0>
   bd1b4:	f011 011f 	ands.w	r1, r1, #31
   bd1b8:	eb04 0683 	add.w	r6, r4, r3, lsl #2
   bd1bc:	eb04 0582 	add.w	r5, r4, r2, lsl #2
   bd1c0:	d10c      	bne.n	bd1dc <rshift+0x3c>
   bd1c2:	f100 0710 	add.w	r7, r0, #16
   bd1c6:	4629      	mov	r1, r5
   bd1c8:	42b1      	cmp	r1, r6
   bd1ca:	d334      	bcc.n	bd236 <rshift+0x96>
   bd1cc:	1a9b      	subs	r3, r3, r2
   bd1ce:	009b      	lsls	r3, r3, #2
   bd1d0:	1eea      	subs	r2, r5, #3
   bd1d2:	4296      	cmp	r6, r2
   bd1d4:	bf38      	it	cc
   bd1d6:	2300      	movcc	r3, #0
   bd1d8:	4423      	add	r3, r4
   bd1da:	e015      	b.n	bd208 <rshift+0x68>
   bd1dc:	f854 7022 	ldr.w	r7, [r4, r2, lsl #2]
   bd1e0:	f1c1 0820 	rsb	r8, r1, #32
   bd1e4:	40cf      	lsrs	r7, r1
   bd1e6:	f105 0e04 	add.w	lr, r5, #4
   bd1ea:	46a1      	mov	r9, r4
   bd1ec:	4576      	cmp	r6, lr
   bd1ee:	46f4      	mov	ip, lr
   bd1f0:	d815      	bhi.n	bd21e <rshift+0x7e>
   bd1f2:	1a9a      	subs	r2, r3, r2
   bd1f4:	0092      	lsls	r2, r2, #2
   bd1f6:	3a04      	subs	r2, #4
   bd1f8:	3501      	adds	r5, #1
   bd1fa:	42ae      	cmp	r6, r5
   bd1fc:	bf38      	it	cc
   bd1fe:	2200      	movcc	r2, #0
   bd200:	18a3      	adds	r3, r4, r2
   bd202:	50a7      	str	r7, [r4, r2]
   bd204:	b107      	cbz	r7, bd208 <rshift+0x68>
   bd206:	3304      	adds	r3, #4
   bd208:	1b1a      	subs	r2, r3, r4
   bd20a:	42a3      	cmp	r3, r4
   bd20c:	ea4f 02a2 	mov.w	r2, r2, asr #2
   bd210:	bf08      	it	eq
   bd212:	2300      	moveq	r3, #0
   bd214:	6102      	str	r2, [r0, #16]
   bd216:	bf08      	it	eq
   bd218:	6143      	streq	r3, [r0, #20]
   bd21a:	e8bd 83f0 	ldmia.w	sp!, {r4, r5, r6, r7, r8, r9, pc}
   bd21e:	f8dc c000 	ldr.w	ip, [ip]
   bd222:	fa0c fc08 	lsl.w	ip, ip, r8
   bd226:	ea4c 0707 	orr.w	r7, ip, r7
   bd22a:	f849 7b04 	str.w	r7, [r9], #4
   bd22e:	f85e 7b04 	ldr.w	r7, [lr], #4
   bd232:	40cf      	lsrs	r7, r1
   bd234:	e7da      	b.n	bd1ec <rshift+0x4c>
   bd236:	f851 cb04 	ldr.w	ip, [r1], #4
   bd23a:	f847 cf04 	str.w	ip, [r7, #4]!
   bd23e:	e7c3      	b.n	bd1c8 <rshift+0x28>
   bd240:	4623      	mov	r3, r4
   bd242:	e7e1      	b.n	bd208 <rshift+0x68>

000bd244 <__hexdig_fun>:
   bd244:	f1a0 0330 	sub.w	r3, r0, #48	; 0x30
   bd248:	2b09      	cmp	r3, #9
   bd24a:	d802      	bhi.n	bd252 <__hexdig_fun+0xe>
   bd24c:	3820      	subs	r0, #32
   bd24e:	b2c0      	uxtb	r0, r0
   bd250:	4770      	bx	lr
   bd252:	f1a0 0361 	sub.w	r3, r0, #97	; 0x61
   bd256:	2b05      	cmp	r3, #5
   bd258:	d801      	bhi.n	bd25e <__hexdig_fun+0x1a>
   bd25a:	3847      	subs	r0, #71	; 0x47
   bd25c:	e7f7      	b.n	bd24e <__hexdig_fun+0xa>
   bd25e:	f1a0 0341 	sub.w	r3, r0, #65	; 0x41
   bd262:	2b05      	cmp	r3, #5
   bd264:	d801      	bhi.n	bd26a <__hexdig_fun+0x26>
   bd266:	3827      	subs	r0, #39	; 0x27
   bd268:	e7f1      	b.n	bd24e <__hexdig_fun+0xa>
   bd26a:	2000      	movs	r0, #0
   bd26c:	4770      	bx	lr
	...

000bd270 <__gethex>:
   bd270:	e92d 4ff0 	stmdb	sp!, {r4, r5, r6, r7, r8, r9, sl, fp, lr}
   bd274:	ed2d 8b02 	vpush	{d8}
   bd278:	b089      	sub	sp, #36	; 0x24
   bd27a:	ee08 0a10 	vmov	s16, r0
   bd27e:	9304      	str	r3, [sp, #16]
   bd280:	4bb4      	ldr	r3, [pc, #720]	; (bd554 <__gethex+0x2e4>)
   bd282:	681b      	ldr	r3, [r3, #0]
   bd284:	9301      	str	r3, [sp, #4]
   bd286:	4618      	mov	r0, r3
   bd288:	468b      	mov	fp, r1
   bd28a:	4690      	mov	r8, r2
   bd28c:	f7fe ffdc 	bl	bc248 <strlen>
   bd290:	9b01      	ldr	r3, [sp, #4]
   bd292:	f8db 2000 	ldr.w	r2, [fp]
   bd296:	4403      	add	r3, r0
   bd298:	4682      	mov	sl, r0
   bd29a:	f813 3c01 	ldrb.w	r3, [r3, #-1]
   bd29e:	9305      	str	r3, [sp, #20]
   bd2a0:	1c93      	adds	r3, r2, #2
   bd2a2:	f1c2 22ff 	rsb	r2, r2, #4278255360	; 0xff00ff00
   bd2a6:	f502 027f 	add.w	r2, r2, #16711680	; 0xff0000
   bd2aa:	32fe      	adds	r2, #254	; 0xfe
   bd2ac:	18d1      	adds	r1, r2, r3
   bd2ae:	461f      	mov	r7, r3
   bd2b0:	f813 0b01 	ldrb.w	r0, [r3], #1
   bd2b4:	9100      	str	r1, [sp, #0]
   bd2b6:	2830      	cmp	r0, #48	; 0x30
   bd2b8:	d0f8      	beq.n	bd2ac <__gethex+0x3c>
   bd2ba:	f7ff ffc3 	bl	bd244 <__hexdig_fun>
   bd2be:	4604      	mov	r4, r0
   bd2c0:	2800      	cmp	r0, #0
   bd2c2:	d13a      	bne.n	bd33a <__gethex+0xca>
   bd2c4:	9901      	ldr	r1, [sp, #4]
   bd2c6:	4652      	mov	r2, sl
   bd2c8:	4638      	mov	r0, r7
   bd2ca:	f7fe ffc5 	bl	bc258 <strncmp>
   bd2ce:	4605      	mov	r5, r0
   bd2d0:	2800      	cmp	r0, #0
   bd2d2:	d168      	bne.n	bd3a6 <__gethex+0x136>
   bd2d4:	f817 000a 	ldrb.w	r0, [r7, sl]
   bd2d8:	eb07 060a 	add.w	r6, r7, sl
   bd2dc:	f7ff ffb2 	bl	bd244 <__hexdig_fun>
   bd2e0:	2800      	cmp	r0, #0
   bd2e2:	d062      	beq.n	bd3aa <__gethex+0x13a>
   bd2e4:	4633      	mov	r3, r6
   bd2e6:	7818      	ldrb	r0, [r3, #0]
   bd2e8:	2830      	cmp	r0, #48	; 0x30
   bd2ea:	461f      	mov	r7, r3
   bd2ec:	f103 0301 	add.w	r3, r3, #1
   bd2f0:	d0f9      	beq.n	bd2e6 <__gethex+0x76>
   bd2f2:	f7ff ffa7 	bl	bd244 <__hexdig_fun>
   bd2f6:	2301      	movs	r3, #1
   bd2f8:	fab0 f480 	clz	r4, r0
   bd2fc:	0964      	lsrs	r4, r4, #5
   bd2fe:	4635      	mov	r5, r6
   bd300:	9300      	str	r3, [sp, #0]
   bd302:	463a      	mov	r2, r7
   bd304:	4616      	mov	r6, r2
   bd306:	3201      	adds	r2, #1
   bd308:	7830      	ldrb	r0, [r6, #0]
   bd30a:	f7ff ff9b 	bl	bd244 <__hexdig_fun>
   bd30e:	2800      	cmp	r0, #0
   bd310:	d1f8      	bne.n	bd304 <__gethex+0x94>
   bd312:	9901      	ldr	r1, [sp, #4]
   bd314:	4652      	mov	r2, sl
   bd316:	4630      	mov	r0, r6
   bd318:	f7fe ff9e 	bl	bc258 <strncmp>
   bd31c:	b980      	cbnz	r0, bd340 <__gethex+0xd0>
   bd31e:	b94d      	cbnz	r5, bd334 <__gethex+0xc4>
   bd320:	eb06 050a 	add.w	r5, r6, sl
   bd324:	462a      	mov	r2, r5
   bd326:	4616      	mov	r6, r2
   bd328:	3201      	adds	r2, #1
   bd32a:	7830      	ldrb	r0, [r6, #0]
   bd32c:	f7ff ff8a 	bl	bd244 <__hexdig_fun>
   bd330:	2800      	cmp	r0, #0
   bd332:	d1f8      	bne.n	bd326 <__gethex+0xb6>
   bd334:	1bad      	subs	r5, r5, r6
   bd336:	00ad      	lsls	r5, r5, #2
   bd338:	e004      	b.n	bd344 <__gethex+0xd4>
   bd33a:	2400      	movs	r4, #0
   bd33c:	4625      	mov	r5, r4
   bd33e:	e7e0      	b.n	bd302 <__gethex+0x92>
   bd340:	2d00      	cmp	r5, #0
   bd342:	d1f7      	bne.n	bd334 <__gethex+0xc4>
   bd344:	7833      	ldrb	r3, [r6, #0]
   bd346:	f003 03df 	and.w	r3, r3, #223	; 0xdf
   bd34a:	2b50      	cmp	r3, #80	; 0x50
   bd34c:	d13b      	bne.n	bd3c6 <__gethex+0x156>
   bd34e:	7873      	ldrb	r3, [r6, #1]
   bd350:	2b2b      	cmp	r3, #43	; 0x2b
   bd352:	d02c      	beq.n	bd3ae <__gethex+0x13e>
   bd354:	2b2d      	cmp	r3, #45	; 0x2d
   bd356:	d02e      	beq.n	bd3b6 <__gethex+0x146>
   bd358:	1c71      	adds	r1, r6, #1
   bd35a:	f04f 0900 	mov.w	r9, #0
   bd35e:	7808      	ldrb	r0, [r1, #0]
   bd360:	f7ff ff70 	bl	bd244 <__hexdig_fun>
   bd364:	1e43      	subs	r3, r0, #1
   bd366:	b2db      	uxtb	r3, r3
   bd368:	2b18      	cmp	r3, #24
   bd36a:	d82c      	bhi.n	bd3c6 <__gethex+0x156>
   bd36c:	f1a0 0210 	sub.w	r2, r0, #16
   bd370:	f811 0f01 	ldrb.w	r0, [r1, #1]!
   bd374:	f7ff ff66 	bl	bd244 <__hexdig_fun>
   bd378:	1e43      	subs	r3, r0, #1
   bd37a:	b2db      	uxtb	r3, r3
   bd37c:	2b18      	cmp	r3, #24
   bd37e:	d91d      	bls.n	bd3bc <__gethex+0x14c>
   bd380:	f1b9 0f00 	cmp.w	r9, #0
   bd384:	d000      	beq.n	bd388 <__gethex+0x118>
   bd386:	4252      	negs	r2, r2
   bd388:	4415      	add	r5, r2
   bd38a:	f8cb 1000 	str.w	r1, [fp]
   bd38e:	b1e4      	cbz	r4, bd3ca <__gethex+0x15a>
   bd390:	9b00      	ldr	r3, [sp, #0]
   bd392:	2b00      	cmp	r3, #0
   bd394:	bf14      	ite	ne
   bd396:	2700      	movne	r7, #0
   bd398:	2706      	moveq	r7, #6
   bd39a:	4638      	mov	r0, r7
   bd39c:	b009      	add	sp, #36	; 0x24
   bd39e:	ecbd 8b02 	vpop	{d8}
   bd3a2:	e8bd 8ff0 	ldmia.w	sp!, {r4, r5, r6, r7, r8, r9, sl, fp, pc}
   bd3a6:	463e      	mov	r6, r7
   bd3a8:	4625      	mov	r5, r4
   bd3aa:	2401      	movs	r4, #1
   bd3ac:	e7ca      	b.n	bd344 <__gethex+0xd4>
   bd3ae:	f04f 0900 	mov.w	r9, #0
   bd3b2:	1cb1      	adds	r1, r6, #2
   bd3b4:	e7d3      	b.n	bd35e <__gethex+0xee>
   bd3b6:	f04f 0901 	mov.w	r9, #1
   bd3ba:	e7fa      	b.n	bd3b2 <__gethex+0x142>
   bd3bc:	230a      	movs	r3, #10
   bd3be:	fb03 0202 	mla	r2, r3, r2, r0
   bd3c2:	3a10      	subs	r2, #16
   bd3c4:	e7d4      	b.n	bd370 <__gethex+0x100>
   bd3c6:	4631      	mov	r1, r6
   bd3c8:	e7df      	b.n	bd38a <__gethex+0x11a>
   bd3ca:	1bf3      	subs	r3, r6, r7
   bd3cc:	3b01      	subs	r3, #1
   bd3ce:	4621      	mov	r1, r4
   bd3d0:	2b07      	cmp	r3, #7
   bd3d2:	dc0b      	bgt.n	bd3ec <__gethex+0x17c>
   bd3d4:	ee18 0a10 	vmov	r0, s16
   bd3d8:	f000 fa68 	bl	bd8ac <_Balloc>
   bd3dc:	4604      	mov	r4, r0
   bd3de:	b940      	cbnz	r0, bd3f2 <__gethex+0x182>
   bd3e0:	4b5d      	ldr	r3, [pc, #372]	; (bd558 <__gethex+0x2e8>)
   bd3e2:	4602      	mov	r2, r0
   bd3e4:	21de      	movs	r1, #222	; 0xde
   bd3e6:	485d      	ldr	r0, [pc, #372]	; (bd55c <__gethex+0x2ec>)
   bd3e8:	f7fb fb98 	bl	b8b1c <__assert_func>
   bd3ec:	3101      	adds	r1, #1
   bd3ee:	105b      	asrs	r3, r3, #1
   bd3f0:	e7ee      	b.n	bd3d0 <__gethex+0x160>
   bd3f2:	f100 0914 	add.w	r9, r0, #20
   bd3f6:	f04f 0b00 	mov.w	fp, #0
   bd3fa:	f1ca 0301 	rsb	r3, sl, #1
   bd3fe:	f8cd 9008 	str.w	r9, [sp, #8]
   bd402:	f8cd b000 	str.w	fp, [sp]
   bd406:	9306      	str	r3, [sp, #24]
   bd408:	42b7      	cmp	r7, r6
   bd40a:	d340      	bcc.n	bd48e <__gethex+0x21e>
   bd40c:	9802      	ldr	r0, [sp, #8]
   bd40e:	9b00      	ldr	r3, [sp, #0]
   bd410:	f840 3b04 	str.w	r3, [r0], #4
   bd414:	eba0 0009 	sub.w	r0, r0, r9
   bd418:	1080      	asrs	r0, r0, #2
   bd41a:	0146      	lsls	r6, r0, #5
   bd41c:	6120      	str	r0, [r4, #16]
   bd41e:	4618      	mov	r0, r3
   bd420:	f000 fb36 	bl	bda90 <__hi0bits>
   bd424:	1a30      	subs	r0, r6, r0
   bd426:	f8d8 6000 	ldr.w	r6, [r8]
   bd42a:	42b0      	cmp	r0, r6
   bd42c:	dd63      	ble.n	bd4f6 <__gethex+0x286>
   bd42e:	1b87      	subs	r7, r0, r6
   bd430:	4639      	mov	r1, r7
   bd432:	4620      	mov	r0, r4
   bd434:	f000 feda 	bl	be1ec <__any_on>
   bd438:	4682      	mov	sl, r0
   bd43a:	b1a8      	cbz	r0, bd468 <__gethex+0x1f8>
   bd43c:	1e7b      	subs	r3, r7, #1
   bd43e:	1159      	asrs	r1, r3, #5
   bd440:	f003 021f 	and.w	r2, r3, #31
   bd444:	f859 1021 	ldr.w	r1, [r9, r1, lsl #2]
   bd448:	f04f 0a01 	mov.w	sl, #1
   bd44c:	fa0a f202 	lsl.w	r2, sl, r2
   bd450:	420a      	tst	r2, r1
   bd452:	d009      	beq.n	bd468 <__gethex+0x1f8>
   bd454:	4553      	cmp	r3, sl
   bd456:	dd05      	ble.n	bd464 <__gethex+0x1f4>
   bd458:	1eb9      	subs	r1, r7, #2
   bd45a:	4620      	mov	r0, r4
   bd45c:	f000 fec6 	bl	be1ec <__any_on>
   bd460:	2800      	cmp	r0, #0
   bd462:	d145      	bne.n	bd4f0 <__gethex+0x280>
   bd464:	f04f 0a02 	mov.w	sl, #2
   bd468:	4639      	mov	r1, r7
   bd46a:	4620      	mov	r0, r4
   bd46c:	f7ff fe98 	bl	bd1a0 <rshift>
   bd470:	443d      	add	r5, r7
   bd472:	f8d8 3008 	ldr.w	r3, [r8, #8]
   bd476:	42ab      	cmp	r3, r5
   bd478:	da4c      	bge.n	bd514 <__gethex+0x2a4>
   bd47a:	ee18 0a10 	vmov	r0, s16
   bd47e:	4621      	mov	r1, r4
   bd480:	f000 fa54 	bl	bd92c <_Bfree>
   bd484:	9a14      	ldr	r2, [sp, #80]	; 0x50
   bd486:	2300      	movs	r3, #0
   bd488:	6013      	str	r3, [r2, #0]
   bd48a:	27a3      	movs	r7, #163	; 0xa3
   bd48c:	e785      	b.n	bd39a <__gethex+0x12a>
   bd48e:	1e73      	subs	r3, r6, #1
   bd490:	9a05      	ldr	r2, [sp, #20]
   bd492:	9303      	str	r3, [sp, #12]
   bd494:	f816 3c01 	ldrb.w	r3, [r6, #-1]
   bd498:	4293      	cmp	r3, r2
   bd49a:	d019      	beq.n	bd4d0 <__gethex+0x260>
   bd49c:	f1bb 0f20 	cmp.w	fp, #32
   bd4a0:	d107      	bne.n	bd4b2 <__gethex+0x242>
   bd4a2:	9b02      	ldr	r3, [sp, #8]
   bd4a4:	9a00      	ldr	r2, [sp, #0]
   bd4a6:	f843 2b04 	str.w	r2, [r3], #4
   bd4aa:	9302      	str	r3, [sp, #8]
   bd4ac:	2300      	movs	r3, #0
   bd4ae:	9300      	str	r3, [sp, #0]
   bd4b0:	469b      	mov	fp, r3
   bd4b2:	f816 0c01 	ldrb.w	r0, [r6, #-1]
   bd4b6:	f7ff fec5 	bl	bd244 <__hexdig_fun>
   bd4ba:	9b00      	ldr	r3, [sp, #0]
   bd4bc:	f000 000f 	and.w	r0, r0, #15
   bd4c0:	fa00 f00b 	lsl.w	r0, r0, fp
   bd4c4:	4303      	orrs	r3, r0
   bd4c6:	9300      	str	r3, [sp, #0]
   bd4c8:	f10b 0b04 	add.w	fp, fp, #4
   bd4cc:	9b03      	ldr	r3, [sp, #12]
   bd4ce:	e00d      	b.n	bd4ec <__gethex+0x27c>
   bd4d0:	9b03      	ldr	r3, [sp, #12]
   bd4d2:	9a06      	ldr	r2, [sp, #24]
   bd4d4:	4413      	add	r3, r2
   bd4d6:	42bb      	cmp	r3, r7
   bd4d8:	d3e0      	bcc.n	bd49c <__gethex+0x22c>
   bd4da:	4618      	mov	r0, r3
   bd4dc:	9901      	ldr	r1, [sp, #4]
   bd4de:	9307      	str	r3, [sp, #28]
   bd4e0:	4652      	mov	r2, sl
   bd4e2:	f7fe feb9 	bl	bc258 <strncmp>
   bd4e6:	9b07      	ldr	r3, [sp, #28]
   bd4e8:	2800      	cmp	r0, #0
   bd4ea:	d1d7      	bne.n	bd49c <__gethex+0x22c>
   bd4ec:	461e      	mov	r6, r3
   bd4ee:	e78b      	b.n	bd408 <__gethex+0x198>
   bd4f0:	f04f 0a03 	mov.w	sl, #3
   bd4f4:	e7b8      	b.n	bd468 <__gethex+0x1f8>
   bd4f6:	da0a      	bge.n	bd50e <__gethex+0x29e>
   bd4f8:	1a37      	subs	r7, r6, r0
   bd4fa:	4621      	mov	r1, r4
   bd4fc:	ee18 0a10 	vmov	r0, s16
   bd500:	463a      	mov	r2, r7
   bd502:	f000 fc2f 	bl	bdd64 <__lshift>
   bd506:	1bed      	subs	r5, r5, r7
   bd508:	4604      	mov	r4, r0
   bd50a:	f100 0914 	add.w	r9, r0, #20
   bd50e:	f04f 0a00 	mov.w	sl, #0
   bd512:	e7ae      	b.n	bd472 <__gethex+0x202>
   bd514:	f8d8 0004 	ldr.w	r0, [r8, #4]
   bd518:	42a8      	cmp	r0, r5
   bd51a:	dd72      	ble.n	bd602 <__gethex+0x392>
   bd51c:	1b45      	subs	r5, r0, r5
   bd51e:	42ae      	cmp	r6, r5
   bd520:	dc36      	bgt.n	bd590 <__gethex+0x320>
   bd522:	f8d8 300c 	ldr.w	r3, [r8, #12]
   bd526:	2b02      	cmp	r3, #2
   bd528:	d02a      	beq.n	bd580 <__gethex+0x310>
   bd52a:	2b03      	cmp	r3, #3
   bd52c:	d02c      	beq.n	bd588 <__gethex+0x318>
   bd52e:	2b01      	cmp	r3, #1
   bd530:	d11c      	bne.n	bd56c <__gethex+0x2fc>
   bd532:	42ae      	cmp	r6, r5
   bd534:	d11a      	bne.n	bd56c <__gethex+0x2fc>
   bd536:	2e01      	cmp	r6, #1
   bd538:	d112      	bne.n	bd560 <__gethex+0x2f0>
   bd53a:	9a04      	ldr	r2, [sp, #16]
   bd53c:	f8d8 3004 	ldr.w	r3, [r8, #4]
   bd540:	6013      	str	r3, [r2, #0]
   bd542:	2301      	movs	r3, #1
   bd544:	6123      	str	r3, [r4, #16]
   bd546:	f8c9 3000 	str.w	r3, [r9]
   bd54a:	9b14      	ldr	r3, [sp, #80]	; 0x50
   bd54c:	2762      	movs	r7, #98	; 0x62
   bd54e:	601c      	str	r4, [r3, #0]
   bd550:	e723      	b.n	bd39a <__gethex+0x12a>
   bd552:	bf00      	nop
   bd554:	000bef54 	.word	0x000bef54
   bd558:	000beee1 	.word	0x000beee1
   bd55c:	000beef2 	.word	0x000beef2
   bd560:	1e71      	subs	r1, r6, #1
   bd562:	4620      	mov	r0, r4
   bd564:	f000 fe42 	bl	be1ec <__any_on>
   bd568:	2800      	cmp	r0, #0
   bd56a:	d1e6      	bne.n	bd53a <__gethex+0x2ca>
   bd56c:	ee18 0a10 	vmov	r0, s16
   bd570:	4621      	mov	r1, r4
   bd572:	f000 f9db 	bl	bd92c <_Bfree>
   bd576:	9a14      	ldr	r2, [sp, #80]	; 0x50
   bd578:	2300      	movs	r3, #0
   bd57a:	6013      	str	r3, [r2, #0]
   bd57c:	2750      	movs	r7, #80	; 0x50
   bd57e:	e70c      	b.n	bd39a <__gethex+0x12a>
   bd580:	9b15      	ldr	r3, [sp, #84]	; 0x54
   bd582:	2b00      	cmp	r3, #0
   bd584:	d1f2      	bne.n	bd56c <__gethex+0x2fc>
   bd586:	e7d8      	b.n	bd53a <__gethex+0x2ca>
   bd588:	9b15      	ldr	r3, [sp, #84]	; 0x54
   bd58a:	2b00      	cmp	r3, #0
   bd58c:	d1d5      	bne.n	bd53a <__gethex+0x2ca>
   bd58e:	e7ed      	b.n	bd56c <__gethex+0x2fc>
   bd590:	1e6f      	subs	r7, r5, #1
   bd592:	f1ba 0f00 	cmp.w	sl, #0
   bd596:	d131      	bne.n	bd5fc <__gethex+0x38c>
   bd598:	b127      	cbz	r7, bd5a4 <__gethex+0x334>
   bd59a:	4639      	mov	r1, r7
   bd59c:	4620      	mov	r0, r4
   bd59e:	f000 fe25 	bl	be1ec <__any_on>
   bd5a2:	4682      	mov	sl, r0
   bd5a4:	117b      	asrs	r3, r7, #5
   bd5a6:	2101      	movs	r1, #1
   bd5a8:	f859 3023 	ldr.w	r3, [r9, r3, lsl #2]
   bd5ac:	f007 071f 	and.w	r7, r7, #31
   bd5b0:	fa01 f707 	lsl.w	r7, r1, r7
   bd5b4:	421f      	tst	r7, r3
   bd5b6:	4629      	mov	r1, r5
   bd5b8:	4620      	mov	r0, r4
   bd5ba:	bf18      	it	ne
   bd5bc:	f04a 0a02 	orrne.w	sl, sl, #2
   bd5c0:	1b76      	subs	r6, r6, r5
   bd5c2:	f7ff fded 	bl	bd1a0 <rshift>
   bd5c6:	f8d8 5004 	ldr.w	r5, [r8, #4]
   bd5ca:	2702      	movs	r7, #2
   bd5cc:	f1ba 0f00 	cmp.w	sl, #0
   bd5d0:	d048      	beq.n	bd664 <__gethex+0x3f4>
   bd5d2:	f8d8 300c 	ldr.w	r3, [r8, #12]
   bd5d6:	2b02      	cmp	r3, #2
   bd5d8:	d015      	beq.n	bd606 <__gethex+0x396>
   bd5da:	2b03      	cmp	r3, #3
   bd5dc:	d017      	beq.n	bd60e <__gethex+0x39e>
   bd5de:	2b01      	cmp	r3, #1
   bd5e0:	d109      	bne.n	bd5f6 <__gethex+0x386>
   bd5e2:	f01a 0f02 	tst.w	sl, #2
   bd5e6:	d006      	beq.n	bd5f6 <__gethex+0x386>
   bd5e8:	f8d9 0000 	ldr.w	r0, [r9]
   bd5ec:	ea4a 0a00 	orr.w	sl, sl, r0
   bd5f0:	f01a 0f01 	tst.w	sl, #1
   bd5f4:	d10e      	bne.n	bd614 <__gethex+0x3a4>
   bd5f6:	f047 0710 	orr.w	r7, r7, #16
   bd5fa:	e033      	b.n	bd664 <__gethex+0x3f4>
   bd5fc:	f04f 0a01 	mov.w	sl, #1
   bd600:	e7d0      	b.n	bd5a4 <__gethex+0x334>
   bd602:	2701      	movs	r7, #1
   bd604:	e7e2      	b.n	bd5cc <__gethex+0x35c>
   bd606:	9b15      	ldr	r3, [sp, #84]	; 0x54
   bd608:	f1c3 0301 	rsb	r3, r3, #1
   bd60c:	9315      	str	r3, [sp, #84]	; 0x54
   bd60e:	9b15      	ldr	r3, [sp, #84]	; 0x54
   bd610:	2b00      	cmp	r3, #0
   bd612:	d0f0      	beq.n	bd5f6 <__gethex+0x386>
   bd614:	f8d4 b010 	ldr.w	fp, [r4, #16]
   bd618:	f104 0314 	add.w	r3, r4, #20
   bd61c:	ea4f 0a8b 	mov.w	sl, fp, lsl #2
   bd620:	eb03 018b 	add.w	r1, r3, fp, lsl #2
   bd624:	f04f 0c00 	mov.w	ip, #0
   bd628:	4618      	mov	r0, r3
   bd62a:	f853 2b04 	ldr.w	r2, [r3], #4
   bd62e:	f1b2 3fff 	cmp.w	r2, #4294967295	; 0xffffffff
   bd632:	d01c      	beq.n	bd66e <__gethex+0x3fe>
   bd634:	3201      	adds	r2, #1
   bd636:	6002      	str	r2, [r0, #0]
   bd638:	2f02      	cmp	r7, #2
   bd63a:	f104 0314 	add.w	r3, r4, #20
   bd63e:	d13f      	bne.n	bd6c0 <__gethex+0x450>
   bd640:	f8d8 2000 	ldr.w	r2, [r8]
   bd644:	3a01      	subs	r2, #1
   bd646:	42b2      	cmp	r2, r6
   bd648:	d10a      	bne.n	bd660 <__gethex+0x3f0>
   bd64a:	1171      	asrs	r1, r6, #5
   bd64c:	2201      	movs	r2, #1
   bd64e:	f853 3021 	ldr.w	r3, [r3, r1, lsl #2]
   bd652:	f006 061f 	and.w	r6, r6, #31
   bd656:	fa02 f606 	lsl.w	r6, r2, r6
   bd65a:	421e      	tst	r6, r3
   bd65c:	bf18      	it	ne
   bd65e:	4617      	movne	r7, r2
   bd660:	f047 0720 	orr.w	r7, r7, #32
   bd664:	9b14      	ldr	r3, [sp, #80]	; 0x50
   bd666:	601c      	str	r4, [r3, #0]
   bd668:	9b04      	ldr	r3, [sp, #16]
   bd66a:	601d      	str	r5, [r3, #0]
   bd66c:	e695      	b.n	bd39a <__gethex+0x12a>
   bd66e:	4299      	cmp	r1, r3
   bd670:	f843 cc04 	str.w	ip, [r3, #-4]
   bd674:	d8d8      	bhi.n	bd628 <__gethex+0x3b8>
   bd676:	68a3      	ldr	r3, [r4, #8]
   bd678:	459b      	cmp	fp, r3
   bd67a:	db19      	blt.n	bd6b0 <__gethex+0x440>
   bd67c:	6861      	ldr	r1, [r4, #4]
   bd67e:	ee18 0a10 	vmov	r0, s16
   bd682:	3101      	adds	r1, #1
   bd684:	f000 f912 	bl	bd8ac <_Balloc>
   bd688:	4681      	mov	r9, r0
   bd68a:	b918      	cbnz	r0, bd694 <__gethex+0x424>
   bd68c:	4b1a      	ldr	r3, [pc, #104]	; (bd6f8 <__gethex+0x488>)
   bd68e:	4602      	mov	r2, r0
   bd690:	2184      	movs	r1, #132	; 0x84
   bd692:	e6a8      	b.n	bd3e6 <__gethex+0x176>
   bd694:	6922      	ldr	r2, [r4, #16]
   bd696:	3202      	adds	r2, #2
   bd698:	f104 010c 	add.w	r1, r4, #12
   bd69c:	0092      	lsls	r2, r2, #2
   bd69e:	300c      	adds	r0, #12
   bd6a0:	f7fe fd62 	bl	bc168 <memcpy>
   bd6a4:	4621      	mov	r1, r4
   bd6a6:	ee18 0a10 	vmov	r0, s16
   bd6aa:	f000 f93f 	bl	bd92c <_Bfree>
   bd6ae:	464c      	mov	r4, r9
   bd6b0:	6923      	ldr	r3, [r4, #16]
   bd6b2:	1c5a      	adds	r2, r3, #1
   bd6b4:	eb04 0383 	add.w	r3, r4, r3, lsl #2
   bd6b8:	6122      	str	r2, [r4, #16]
   bd6ba:	2201      	movs	r2, #1
   bd6bc:	615a      	str	r2, [r3, #20]
   bd6be:	e7bb      	b.n	bd638 <__gethex+0x3c8>
   bd6c0:	6922      	ldr	r2, [r4, #16]
   bd6c2:	455a      	cmp	r2, fp
   bd6c4:	dd0b      	ble.n	bd6de <__gethex+0x46e>
   bd6c6:	2101      	movs	r1, #1
   bd6c8:	4620      	mov	r0, r4
   bd6ca:	f7ff fd69 	bl	bd1a0 <rshift>
   bd6ce:	f8d8 3008 	ldr.w	r3, [r8, #8]
   bd6d2:	3501      	adds	r5, #1
   bd6d4:	42ab      	cmp	r3, r5
   bd6d6:	f6ff aed0 	blt.w	bd47a <__gethex+0x20a>
   bd6da:	2701      	movs	r7, #1
   bd6dc:	e7c0      	b.n	bd660 <__gethex+0x3f0>
   bd6de:	f016 061f 	ands.w	r6, r6, #31
   bd6e2:	d0fa      	beq.n	bd6da <__gethex+0x46a>
   bd6e4:	4453      	add	r3, sl
   bd6e6:	f1c6 0620 	rsb	r6, r6, #32
   bd6ea:	f853 0c04 	ldr.w	r0, [r3, #-4]
   bd6ee:	f000 f9cf 	bl	bda90 <__hi0bits>
   bd6f2:	42b0      	cmp	r0, r6
   bd6f4:	dbe7      	blt.n	bd6c6 <__gethex+0x456>
   bd6f6:	e7f0      	b.n	bd6da <__gethex+0x46a>
   bd6f8:	000beee1 	.word	0x000beee1

000bd6fc <L_shift>:
   bd6fc:	f1c2 0208 	rsb	r2, r2, #8
   bd700:	0092      	lsls	r2, r2, #2
   bd702:	b570      	push	{r4, r5, r6, lr}
   bd704:	f1c2 0620 	rsb	r6, r2, #32
   bd708:	6843      	ldr	r3, [r0, #4]
   bd70a:	6804      	ldr	r4, [r0, #0]
   bd70c:	fa03 f506 	lsl.w	r5, r3, r6
   bd710:	432c      	orrs	r4, r5
   bd712:	40d3      	lsrs	r3, r2
   bd714:	6004      	str	r4, [r0, #0]
   bd716:	f840 3f04 	str.w	r3, [r0, #4]!
   bd71a:	4288      	cmp	r0, r1
   bd71c:	d3f4      	bcc.n	bd708 <L_shift+0xc>
   bd71e:	bd70      	pop	{r4, r5, r6, pc}

000bd720 <__match>:
   bd720:	b530      	push	{r4, r5, lr}
   bd722:	6803      	ldr	r3, [r0, #0]
   bd724:	3301      	adds	r3, #1
   bd726:	f811 4b01 	ldrb.w	r4, [r1], #1
   bd72a:	b914      	cbnz	r4, bd732 <__match+0x12>
   bd72c:	6003      	str	r3, [r0, #0]
   bd72e:	2001      	movs	r0, #1
   bd730:	bd30      	pop	{r4, r5, pc}
   bd732:	f813 2b01 	ldrb.w	r2, [r3], #1
   bd736:	f1a2 0541 	sub.w	r5, r2, #65	; 0x41
   bd73a:	2d19      	cmp	r5, #25
   bd73c:	bf98      	it	ls
   bd73e:	3220      	addls	r2, #32
   bd740:	42a2      	cmp	r2, r4
   bd742:	d0f0      	beq.n	bd726 <__match+0x6>
   bd744:	2000      	movs	r0, #0
   bd746:	e7f3      	b.n	bd730 <__match+0x10>

000bd748 <__hexnan>:
   bd748:	e92d 4ff0 	stmdb	sp!, {r4, r5, r6, r7, r8, r9, sl, fp, lr}
   bd74c:	680b      	ldr	r3, [r1, #0]
   bd74e:	115e      	asrs	r6, r3, #5
   bd750:	eb02 0686 	add.w	r6, r2, r6, lsl #2
   bd754:	f013 031f 	ands.w	r3, r3, #31
   bd758:	b087      	sub	sp, #28
   bd75a:	bf18      	it	ne
   bd75c:	3604      	addne	r6, #4
   bd75e:	2500      	movs	r5, #0
   bd760:	1f37      	subs	r7, r6, #4
   bd762:	4690      	mov	r8, r2
   bd764:	6802      	ldr	r2, [r0, #0]
   bd766:	9301      	str	r3, [sp, #4]
   bd768:	4682      	mov	sl, r0
   bd76a:	f846 5c04 	str.w	r5, [r6, #-4]
   bd76e:	46b9      	mov	r9, r7
   bd770:	463c      	mov	r4, r7
   bd772:	9502      	str	r5, [sp, #8]
   bd774:	46ab      	mov	fp, r5
   bd776:	7851      	ldrb	r1, [r2, #1]
   bd778:	1c53      	adds	r3, r2, #1
   bd77a:	9303      	str	r3, [sp, #12]
   bd77c:	b341      	cbz	r1, bd7d0 <__hexnan+0x88>
   bd77e:	4608      	mov	r0, r1
   bd780:	9205      	str	r2, [sp, #20]
   bd782:	9104      	str	r1, [sp, #16]
   bd784:	f7ff fd5e 	bl	bd244 <__hexdig_fun>
   bd788:	2800      	cmp	r0, #0
   bd78a:	d14f      	bne.n	bd82c <__hexnan+0xe4>
   bd78c:	9904      	ldr	r1, [sp, #16]
   bd78e:	9a05      	ldr	r2, [sp, #20]
   bd790:	2920      	cmp	r1, #32
   bd792:	d818      	bhi.n	bd7c6 <__hexnan+0x7e>
   bd794:	9b02      	ldr	r3, [sp, #8]
   bd796:	459b      	cmp	fp, r3
   bd798:	dd13      	ble.n	bd7c2 <__hexnan+0x7a>
   bd79a:	454c      	cmp	r4, r9
   bd79c:	d206      	bcs.n	bd7ac <__hexnan+0x64>
   bd79e:	2d07      	cmp	r5, #7
   bd7a0:	dc04      	bgt.n	bd7ac <__hexnan+0x64>
   bd7a2:	462a      	mov	r2, r5
   bd7a4:	4649      	mov	r1, r9
   bd7a6:	4620      	mov	r0, r4
   bd7a8:	f7ff ffa8 	bl	bd6fc <L_shift>
   bd7ac:	4544      	cmp	r4, r8
   bd7ae:	d950      	bls.n	bd852 <__hexnan+0x10a>
   bd7b0:	2300      	movs	r3, #0
   bd7b2:	f1a4 0904 	sub.w	r9, r4, #4
   bd7b6:	f844 3c04 	str.w	r3, [r4, #-4]
   bd7ba:	f8cd b008 	str.w	fp, [sp, #8]
   bd7be:	464c      	mov	r4, r9
   bd7c0:	461d      	mov	r5, r3
   bd7c2:	9a03      	ldr	r2, [sp, #12]
   bd7c4:	e7d7      	b.n	bd776 <__hexnan+0x2e>
   bd7c6:	2929      	cmp	r1, #41	; 0x29
   bd7c8:	d156      	bne.n	bd878 <__hexnan+0x130>
   bd7ca:	3202      	adds	r2, #2
   bd7cc:	f8ca 2000 	str.w	r2, [sl]
   bd7d0:	f1bb 0f00 	cmp.w	fp, #0
   bd7d4:	d050      	beq.n	bd878 <__hexnan+0x130>
   bd7d6:	454c      	cmp	r4, r9
   bd7d8:	d206      	bcs.n	bd7e8 <__hexnan+0xa0>
   bd7da:	2d07      	cmp	r5, #7
   bd7dc:	dc04      	bgt.n	bd7e8 <__hexnan+0xa0>
   bd7de:	462a      	mov	r2, r5
   bd7e0:	4649      	mov	r1, r9
   bd7e2:	4620      	mov	r0, r4
   bd7e4:	f7ff ff8a 	bl	bd6fc <L_shift>
   bd7e8:	4544      	cmp	r4, r8
   bd7ea:	d934      	bls.n	bd856 <__hexnan+0x10e>
   bd7ec:	f1a8 0204 	sub.w	r2, r8, #4
   bd7f0:	4623      	mov	r3, r4
   bd7f2:	f853 1b04 	ldr.w	r1, [r3], #4
   bd7f6:	f842 1f04 	str.w	r1, [r2, #4]!
   bd7fa:	429f      	cmp	r7, r3
   bd7fc:	d2f9      	bcs.n	bd7f2 <__hexnan+0xaa>
   bd7fe:	1b3b      	subs	r3, r7, r4
   bd800:	f023 0303 	bic.w	r3, r3, #3
   bd804:	3304      	adds	r3, #4
   bd806:	3401      	adds	r4, #1
   bd808:	3e03      	subs	r6, #3
   bd80a:	42b4      	cmp	r4, r6
   bd80c:	bf88      	it	hi
   bd80e:	2304      	movhi	r3, #4
   bd810:	4443      	add	r3, r8
   bd812:	2200      	movs	r2, #0
   bd814:	f843 2b04 	str.w	r2, [r3], #4
   bd818:	429f      	cmp	r7, r3
   bd81a:	d2fb      	bcs.n	bd814 <__hexnan+0xcc>
   bd81c:	683b      	ldr	r3, [r7, #0]
   bd81e:	b91b      	cbnz	r3, bd828 <__hexnan+0xe0>
   bd820:	4547      	cmp	r7, r8
   bd822:	d127      	bne.n	bd874 <__hexnan+0x12c>
   bd824:	2301      	movs	r3, #1
   bd826:	603b      	str	r3, [r7, #0]
   bd828:	2005      	movs	r0, #5
   bd82a:	e026      	b.n	bd87a <__hexnan+0x132>
   bd82c:	3501      	adds	r5, #1
   bd82e:	2d08      	cmp	r5, #8
   bd830:	f10b 0b01 	add.w	fp, fp, #1
   bd834:	dd06      	ble.n	bd844 <__hexnan+0xfc>
   bd836:	4544      	cmp	r4, r8
   bd838:	d9c3      	bls.n	bd7c2 <__hexnan+0x7a>
   bd83a:	2300      	movs	r3, #0
   bd83c:	f844 3c04 	str.w	r3, [r4, #-4]
   bd840:	2501      	movs	r5, #1
   bd842:	3c04      	subs	r4, #4
   bd844:	6822      	ldr	r2, [r4, #0]
   bd846:	f000 000f 	and.w	r0, r0, #15
   bd84a:	ea40 1202 	orr.w	r2, r0, r2, lsl #4
   bd84e:	6022      	str	r2, [r4, #0]
   bd850:	e7b7      	b.n	bd7c2 <__hexnan+0x7a>
   bd852:	2508      	movs	r5, #8
   bd854:	e7b5      	b.n	bd7c2 <__hexnan+0x7a>
   bd856:	9b01      	ldr	r3, [sp, #4]
   bd858:	2b00      	cmp	r3, #0
   bd85a:	d0df      	beq.n	bd81c <__hexnan+0xd4>
   bd85c:	f04f 32ff 	mov.w	r2, #4294967295	; 0xffffffff
   bd860:	f1c3 0320 	rsb	r3, r3, #32
   bd864:	fa22 f303 	lsr.w	r3, r2, r3
   bd868:	f856 2c04 	ldr.w	r2, [r6, #-4]
   bd86c:	401a      	ands	r2, r3
   bd86e:	f846 2c04 	str.w	r2, [r6, #-4]
   bd872:	e7d3      	b.n	bd81c <__hexnan+0xd4>
   bd874:	3f04      	subs	r7, #4
   bd876:	e7d1      	b.n	bd81c <__hexnan+0xd4>
   bd878:	2004      	movs	r0, #4
   bd87a:	b007      	add	sp, #28
   bd87c:	e8bd 8ff0 	ldmia.w	sp!, {r4, r5, r6, r7, r8, r9, sl, fp, pc}

000bd880 <__retarget_lock_acquire_recursive>:
   bd880:	4770      	bx	lr

000bd882 <__retarget_lock_release>:
   bd882:	4770      	bx	lr

000bd884 <__retarget_lock_release_recursive>:
   bd884:	4770      	bx	lr

000bd886 <__ascii_mbtowc>:
   bd886:	b082      	sub	sp, #8
   bd888:	b901      	cbnz	r1, bd88c <__ascii_mbtowc+0x6>
   bd88a:	a901      	add	r1, sp, #4
   bd88c:	b142      	cbz	r2, bd8a0 <__ascii_mbtowc+0x1a>
   bd88e:	b14b      	cbz	r3, bd8a4 <__ascii_mbtowc+0x1e>
   bd890:	7813      	ldrb	r3, [r2, #0]
   bd892:	600b      	str	r3, [r1, #0]
   bd894:	7812      	ldrb	r2, [r2, #0]
   bd896:	1e10      	subs	r0, r2, #0
   bd898:	bf18      	it	ne
   bd89a:	2001      	movne	r0, #1
   bd89c:	b002      	add	sp, #8
   bd89e:	4770      	bx	lr
   bd8a0:	4610      	mov	r0, r2
   bd8a2:	e7fb      	b.n	bd89c <__ascii_mbtowc+0x16>
   bd8a4:	f06f 0001 	mvn.w	r0, #1
   bd8a8:	e7f8      	b.n	bd89c <__ascii_mbtowc+0x16>
	...

000bd8ac <_Balloc>:
   bd8ac:	b570      	push	{r4, r5, r6, lr}
   bd8ae:	6a46      	ldr	r6, [r0, #36]	; 0x24
   bd8b0:	4604      	mov	r4, r0
   bd8b2:	460d      	mov	r5, r1
   bd8b4:	b976      	cbnz	r6, bd8d4 <_Balloc+0x28>
   bd8b6:	2010      	movs	r0, #16
   bd8b8:	f7fb f8f0 	bl	b8a9c <malloc>
   bd8bc:	4602      	mov	r2, r0
   bd8be:	6260      	str	r0, [r4, #36]	; 0x24
   bd8c0:	b920      	cbnz	r0, bd8cc <_Balloc+0x20>
   bd8c2:	4b18      	ldr	r3, [pc, #96]	; (bd924 <_Balloc+0x78>)
   bd8c4:	4818      	ldr	r0, [pc, #96]	; (bd928 <_Balloc+0x7c>)
   bd8c6:	2166      	movs	r1, #102	; 0x66
   bd8c8:	f7fb f928 	bl	b8b1c <__assert_func>
   bd8cc:	e9c0 6601 	strd	r6, r6, [r0, #4]
   bd8d0:	6006      	str	r6, [r0, #0]
   bd8d2:	60c6      	str	r6, [r0, #12]
   bd8d4:	6a66      	ldr	r6, [r4, #36]	; 0x24
   bd8d6:	68f3      	ldr	r3, [r6, #12]
   bd8d8:	b183      	cbz	r3, bd8fc <_Balloc+0x50>
   bd8da:	6a63      	ldr	r3, [r4, #36]	; 0x24
   bd8dc:	68db      	ldr	r3, [r3, #12]
   bd8de:	f853 0025 	ldr.w	r0, [r3, r5, lsl #2]
   bd8e2:	b9b8      	cbnz	r0, bd914 <_Balloc+0x68>
   bd8e4:	2101      	movs	r1, #1
   bd8e6:	fa01 f605 	lsl.w	r6, r1, r5
   bd8ea:	1d72      	adds	r2, r6, #5
   bd8ec:	0092      	lsls	r2, r2, #2
   bd8ee:	4620      	mov	r0, r4
   bd8f0:	f000 fc9d 	bl	be22e <_calloc_r>
   bd8f4:	b160      	cbz	r0, bd910 <_Balloc+0x64>
   bd8f6:	e9c0 5601 	strd	r5, r6, [r0, #4]
   bd8fa:	e00e      	b.n	bd91a <_Balloc+0x6e>
   bd8fc:	2221      	movs	r2, #33	; 0x21
   bd8fe:	2104      	movs	r1, #4
   bd900:	4620      	mov	r0, r4
   bd902:	f000 fc94 	bl	be22e <_calloc_r>
   bd906:	6a63      	ldr	r3, [r4, #36]	; 0x24
   bd908:	60f0      	str	r0, [r6, #12]
   bd90a:	68db      	ldr	r3, [r3, #12]
   bd90c:	2b00      	cmp	r3, #0
   bd90e:	d1e4      	bne.n	bd8da <_Balloc+0x2e>
   bd910:	2000      	movs	r0, #0
   bd912:	bd70      	pop	{r4, r5, r6, pc}
   bd914:	6802      	ldr	r2, [r0, #0]
   bd916:	f843 2025 	str.w	r2, [r3, r5, lsl #2]
   bd91a:	2300      	movs	r3, #0
   bd91c:	e9c0 3303 	strd	r3, r3, [r0, #12]
   bd920:	e7f7      	b.n	bd912 <_Balloc+0x66>
   bd922:	bf00      	nop
   bd924:	000bed11 	.word	0x000bed11
   bd928:	000bef68 	.word	0x000bef68

000bd92c <_Bfree>:
   bd92c:	b570      	push	{r4, r5, r6, lr}
   bd92e:	6a46      	ldr	r6, [r0, #36]	; 0x24
   bd930:	4605      	mov	r5, r0
   bd932:	460c      	mov	r4, r1
   bd934:	b976      	cbnz	r6, bd954 <_Bfree+0x28>
   bd936:	2010      	movs	r0, #16
   bd938:	f7fb f8b0 	bl	b8a9c <malloc>
   bd93c:	4602      	mov	r2, r0
   bd93e:	6268      	str	r0, [r5, #36]	; 0x24
   bd940:	b920      	cbnz	r0, bd94c <_Bfree+0x20>
   bd942:	4b09      	ldr	r3, [pc, #36]	; (bd968 <_Bfree+0x3c>)
   bd944:	4809      	ldr	r0, [pc, #36]	; (bd96c <_Bfree+0x40>)
   bd946:	218a      	movs	r1, #138	; 0x8a
   bd948:	f7fb f8e8 	bl	b8b1c <__assert_func>
   bd94c:	e9c0 6601 	strd	r6, r6, [r0, #4]
   bd950:	6006      	str	r6, [r0, #0]
   bd952:	60c6      	str	r6, [r0, #12]
   bd954:	b13c      	cbz	r4, bd966 <_Bfree+0x3a>
   bd956:	6a6b      	ldr	r3, [r5, #36]	; 0x24
   bd958:	6862      	ldr	r2, [r4, #4]
   bd95a:	68db      	ldr	r3, [r3, #12]
   bd95c:	f853 1022 	ldr.w	r1, [r3, r2, lsl #2]
   bd960:	6021      	str	r1, [r4, #0]
   bd962:	f843 4022 	str.w	r4, [r3, r2, lsl #2]
   bd966:	bd70      	pop	{r4, r5, r6, pc}
   bd968:	000bed11 	.word	0x000bed11
   bd96c:	000bef68 	.word	0x000bef68

000bd970 <__multadd>:
   bd970:	e92d 41f0 	stmdb	sp!, {r4, r5, r6, r7, r8, lr}
   bd974:	690d      	ldr	r5, [r1, #16]
   bd976:	4607      	mov	r7, r0
   bd978:	460c      	mov	r4, r1
   bd97a:	461e      	mov	r6, r3
   bd97c:	f101 0c14 	add.w	ip, r1, #20
   bd980:	2000      	movs	r0, #0
   bd982:	f8dc 3000 	ldr.w	r3, [ip]
   bd986:	b299      	uxth	r1, r3
   bd988:	fb02 6101 	mla	r1, r2, r1, r6
   bd98c:	0c1e      	lsrs	r6, r3, #16
   bd98e:	0c0b      	lsrs	r3, r1, #16
   bd990:	fb02 3306 	mla	r3, r2, r6, r3
   bd994:	b289      	uxth	r1, r1
   bd996:	3001      	adds	r0, #1
   bd998:	eb01 4103 	add.w	r1, r1, r3, lsl #16
   bd99c:	4285      	cmp	r5, r0
   bd99e:	f84c 1b04 	str.w	r1, [ip], #4
   bd9a2:	ea4f 4613 	mov.w	r6, r3, lsr #16
   bd9a6:	dcec      	bgt.n	bd982 <__multadd+0x12>
   bd9a8:	b30e      	cbz	r6, bd9ee <__multadd+0x7e>
   bd9aa:	68a3      	ldr	r3, [r4, #8]
   bd9ac:	42ab      	cmp	r3, r5
   bd9ae:	dc19      	bgt.n	bd9e4 <__multadd+0x74>
   bd9b0:	6861      	ldr	r1, [r4, #4]
   bd9b2:	4638      	mov	r0, r7
   bd9b4:	3101      	adds	r1, #1
   bd9b6:	f7ff ff79 	bl	bd8ac <_Balloc>
   bd9ba:	4680      	mov	r8, r0
   bd9bc:	b928      	cbnz	r0, bd9ca <__multadd+0x5a>
   bd9be:	4602      	mov	r2, r0
   bd9c0:	4b0c      	ldr	r3, [pc, #48]	; (bd9f4 <__multadd+0x84>)
   bd9c2:	480d      	ldr	r0, [pc, #52]	; (bd9f8 <__multadd+0x88>)
   bd9c4:	21b5      	movs	r1, #181	; 0xb5
   bd9c6:	f7fb f8a9 	bl	b8b1c <__assert_func>
   bd9ca:	6922      	ldr	r2, [r4, #16]
   bd9cc:	3202      	adds	r2, #2
   bd9ce:	f104 010c 	add.w	r1, r4, #12
   bd9d2:	0092      	lsls	r2, r2, #2
   bd9d4:	300c      	adds	r0, #12
   bd9d6:	f7fe fbc7 	bl	bc168 <memcpy>
   bd9da:	4621      	mov	r1, r4
   bd9dc:	4638      	mov	r0, r7
   bd9de:	f7ff ffa5 	bl	bd92c <_Bfree>
   bd9e2:	4644      	mov	r4, r8
   bd9e4:	eb04 0385 	add.w	r3, r4, r5, lsl #2
   bd9e8:	3501      	adds	r5, #1
   bd9ea:	615e      	str	r6, [r3, #20]
   bd9ec:	6125      	str	r5, [r4, #16]
   bd9ee:	4620      	mov	r0, r4
   bd9f0:	e8bd 81f0 	ldmia.w	sp!, {r4, r5, r6, r7, r8, pc}
   bd9f4:	000beee1 	.word	0x000beee1
   bd9f8:	000bef68 	.word	0x000bef68

000bd9fc <__s2b>:
   bd9fc:	e92d 43f8 	stmdb	sp!, {r3, r4, r5, r6, r7, r8, r9, lr}
   bda00:	460c      	mov	r4, r1
   bda02:	4615      	mov	r5, r2
   bda04:	461f      	mov	r7, r3
   bda06:	2209      	movs	r2, #9
   bda08:	3308      	adds	r3, #8
   bda0a:	4606      	mov	r6, r0
   bda0c:	fb93 f3f2 	sdiv	r3, r3, r2
   bda10:	2100      	movs	r1, #0
   bda12:	2201      	movs	r2, #1
   bda14:	429a      	cmp	r2, r3
   bda16:	db09      	blt.n	bda2c <__s2b+0x30>
   bda18:	4630      	mov	r0, r6
   bda1a:	f7ff ff47 	bl	bd8ac <_Balloc>
   bda1e:	b940      	cbnz	r0, bda32 <__s2b+0x36>
   bda20:	4602      	mov	r2, r0
   bda22:	4b19      	ldr	r3, [pc, #100]	; (bda88 <__s2b+0x8c>)
   bda24:	4819      	ldr	r0, [pc, #100]	; (bda8c <__s2b+0x90>)
   bda26:	21ce      	movs	r1, #206	; 0xce
   bda28:	f7fb f878 	bl	b8b1c <__assert_func>
   bda2c:	0052      	lsls	r2, r2, #1
   bda2e:	3101      	adds	r1, #1
   bda30:	e7f0      	b.n	bda14 <__s2b+0x18>
   bda32:	9b08      	ldr	r3, [sp, #32]
   bda34:	6143      	str	r3, [r0, #20]
   bda36:	2d09      	cmp	r5, #9
   bda38:	f04f 0301 	mov.w	r3, #1
   bda3c:	6103      	str	r3, [r0, #16]
   bda3e:	dd16      	ble.n	bda6e <__s2b+0x72>
   bda40:	f104 0909 	add.w	r9, r4, #9
   bda44:	46c8      	mov	r8, r9
   bda46:	442c      	add	r4, r5
   bda48:	f818 3b01 	ldrb.w	r3, [r8], #1
   bda4c:	4601      	mov	r1, r0
   bda4e:	3b30      	subs	r3, #48	; 0x30
   bda50:	220a      	movs	r2, #10
   bda52:	4630      	mov	r0, r6
   bda54:	f7ff ff8c 	bl	bd970 <__multadd>
   bda58:	45a0      	cmp	r8, r4
   bda5a:	d1f5      	bne.n	bda48 <__s2b+0x4c>
   bda5c:	f1a5 0408 	sub.w	r4, r5, #8
   bda60:	444c      	add	r4, r9
   bda62:	1b2d      	subs	r5, r5, r4
   bda64:	1963      	adds	r3, r4, r5
   bda66:	42bb      	cmp	r3, r7
   bda68:	db04      	blt.n	bda74 <__s2b+0x78>
   bda6a:	e8bd 83f8 	ldmia.w	sp!, {r3, r4, r5, r6, r7, r8, r9, pc}
   bda6e:	340a      	adds	r4, #10
   bda70:	2509      	movs	r5, #9
   bda72:	e7f6      	b.n	bda62 <__s2b+0x66>
   bda74:	f814 3b01 	ldrb.w	r3, [r4], #1
   bda78:	4601      	mov	r1, r0
   bda7a:	3b30      	subs	r3, #48	; 0x30
   bda7c:	220a      	movs	r2, #10
   bda7e:	4630      	mov	r0, r6
   bda80:	f7ff ff76 	bl	bd970 <__multadd>
   bda84:	e7ee      	b.n	bda64 <__s2b+0x68>
   bda86:	bf00      	nop
   bda88:	000beee1 	.word	0x000beee1
   bda8c:	000bef68 	.word	0x000bef68

000bda90 <__hi0bits>:
   bda90:	0c03      	lsrs	r3, r0, #16
   bda92:	041b      	lsls	r3, r3, #16
   bda94:	b9d3      	cbnz	r3, bdacc <__hi0bits+0x3c>
   bda96:	0400      	lsls	r0, r0, #16
   bda98:	2310      	movs	r3, #16
   bda9a:	f010 4f7f 	tst.w	r0, #4278190080	; 0xff000000
   bda9e:	bf04      	itt	eq
   bdaa0:	0200      	lsleq	r0, r0, #8
   bdaa2:	3308      	addeq	r3, #8
   bdaa4:	f010 4f70 	tst.w	r0, #4026531840	; 0xf0000000
   bdaa8:	bf04      	itt	eq
   bdaaa:	0100      	lsleq	r0, r0, #4
   bdaac:	3304      	addeq	r3, #4
   bdaae:	f010 4f40 	tst.w	r0, #3221225472	; 0xc0000000
   bdab2:	bf04      	itt	eq
   bdab4:	0080      	lsleq	r0, r0, #2
   bdab6:	3302      	addeq	r3, #2
   bdab8:	2800      	cmp	r0, #0
   bdaba:	db05      	blt.n	bdac8 <__hi0bits+0x38>
   bdabc:	f010 4f80 	tst.w	r0, #1073741824	; 0x40000000
   bdac0:	f103 0301 	add.w	r3, r3, #1
   bdac4:	bf08      	it	eq
   bdac6:	2320      	moveq	r3, #32
   bdac8:	4618      	mov	r0, r3
   bdaca:	4770      	bx	lr
   bdacc:	2300      	movs	r3, #0
   bdace:	e7e4      	b.n	bda9a <__hi0bits+0xa>

000bdad0 <__lo0bits>:
   bdad0:	6803      	ldr	r3, [r0, #0]
   bdad2:	f013 0207 	ands.w	r2, r3, #7
   bdad6:	4601      	mov	r1, r0
   bdad8:	d00b      	beq.n	bdaf2 <__lo0bits+0x22>
   bdada:	07da      	lsls	r2, r3, #31
   bdadc:	d423      	bmi.n	bdb26 <__lo0bits+0x56>
   bdade:	0798      	lsls	r0, r3, #30
   bdae0:	bf49      	itett	mi
   bdae2:	085b      	lsrmi	r3, r3, #1
   bdae4:	089b      	lsrpl	r3, r3, #2
   bdae6:	2001      	movmi	r0, #1
   bdae8:	600b      	strmi	r3, [r1, #0]
   bdaea:	bf5c      	itt	pl
   bdaec:	600b      	strpl	r3, [r1, #0]
   bdaee:	2002      	movpl	r0, #2
   bdaf0:	4770      	bx	lr
   bdaf2:	b298      	uxth	r0, r3
   bdaf4:	b9a8      	cbnz	r0, bdb22 <__lo0bits+0x52>
   bdaf6:	0c1b      	lsrs	r3, r3, #16
   bdaf8:	2010      	movs	r0, #16
   bdafa:	b2da      	uxtb	r2, r3
   bdafc:	b90a      	cbnz	r2, bdb02 <__lo0bits+0x32>
   bdafe:	3008      	adds	r0, #8
   bdb00:	0a1b      	lsrs	r3, r3, #8
   bdb02:	071a      	lsls	r2, r3, #28
   bdb04:	bf04      	itt	eq
   bdb06:	091b      	lsreq	r3, r3, #4
   bdb08:	3004      	addeq	r0, #4
   bdb0a:	079a      	lsls	r2, r3, #30
   bdb0c:	bf04      	itt	eq
   bdb0e:	089b      	lsreq	r3, r3, #2
   bdb10:	3002      	addeq	r0, #2
   bdb12:	07da      	lsls	r2, r3, #31
   bdb14:	d403      	bmi.n	bdb1e <__lo0bits+0x4e>
   bdb16:	085b      	lsrs	r3, r3, #1
   bdb18:	f100 0001 	add.w	r0, r0, #1
   bdb1c:	d005      	beq.n	bdb2a <__lo0bits+0x5a>
   bdb1e:	600b      	str	r3, [r1, #0]
   bdb20:	4770      	bx	lr
   bdb22:	4610      	mov	r0, r2
   bdb24:	e7e9      	b.n	bdafa <__lo0bits+0x2a>
   bdb26:	2000      	movs	r0, #0
   bdb28:	4770      	bx	lr
   bdb2a:	2020      	movs	r0, #32
   bdb2c:	4770      	bx	lr
	...

000bdb30 <__i2b>:
   bdb30:	b510      	push	{r4, lr}
   bdb32:	460c      	mov	r4, r1
   bdb34:	2101      	movs	r1, #1
   bdb36:	f7ff feb9 	bl	bd8ac <_Balloc>
   bdb3a:	4602      	mov	r2, r0
   bdb3c:	b928      	cbnz	r0, bdb4a <__i2b+0x1a>
   bdb3e:	4b05      	ldr	r3, [pc, #20]	; (bdb54 <__i2b+0x24>)
   bdb40:	4805      	ldr	r0, [pc, #20]	; (bdb58 <__i2b+0x28>)
   bdb42:	f44f 71a0 	mov.w	r1, #320	; 0x140
   bdb46:	f7fa ffe9 	bl	b8b1c <__assert_func>
   bdb4a:	2301      	movs	r3, #1
   bdb4c:	6144      	str	r4, [r0, #20]
   bdb4e:	6103      	str	r3, [r0, #16]
   bdb50:	bd10      	pop	{r4, pc}
   bdb52:	bf00      	nop
   bdb54:	000beee1 	.word	0x000beee1
   bdb58:	000bef68 	.word	0x000bef68

000bdb5c <__multiply>:
   bdb5c:	e92d 4ff0 	stmdb	sp!, {r4, r5, r6, r7, r8, r9, sl, fp, lr}
   bdb60:	4691      	mov	r9, r2
   bdb62:	690a      	ldr	r2, [r1, #16]
   bdb64:	f8d9 3010 	ldr.w	r3, [r9, #16]
   bdb68:	429a      	cmp	r2, r3
   bdb6a:	bfb8      	it	lt
   bdb6c:	460b      	movlt	r3, r1
   bdb6e:	460c      	mov	r4, r1
   bdb70:	bfbc      	itt	lt
   bdb72:	464c      	movlt	r4, r9
   bdb74:	4699      	movlt	r9, r3
   bdb76:	6927      	ldr	r7, [r4, #16]
   bdb78:	f8d9 a010 	ldr.w	sl, [r9, #16]
   bdb7c:	68a3      	ldr	r3, [r4, #8]
   bdb7e:	6861      	ldr	r1, [r4, #4]
   bdb80:	eb07 060a 	add.w	r6, r7, sl
   bdb84:	42b3      	cmp	r3, r6
   bdb86:	b085      	sub	sp, #20
   bdb88:	bfb8      	it	lt
   bdb8a:	3101      	addlt	r1, #1
   bdb8c:	f7ff fe8e 	bl	bd8ac <_Balloc>
   bdb90:	b930      	cbnz	r0, bdba0 <__multiply+0x44>
   bdb92:	4602      	mov	r2, r0
   bdb94:	4b44      	ldr	r3, [pc, #272]	; (bdca8 <__multiply+0x14c>)
   bdb96:	4845      	ldr	r0, [pc, #276]	; (bdcac <__multiply+0x150>)
   bdb98:	f240 115d 	movw	r1, #349	; 0x15d
   bdb9c:	f7fa ffbe 	bl	b8b1c <__assert_func>
   bdba0:	f100 0514 	add.w	r5, r0, #20
   bdba4:	eb05 0886 	add.w	r8, r5, r6, lsl #2
   bdba8:	462b      	mov	r3, r5
   bdbaa:	2200      	movs	r2, #0
   bdbac:	4543      	cmp	r3, r8
   bdbae:	d321      	bcc.n	bdbf4 <__multiply+0x98>
   bdbb0:	f104 0314 	add.w	r3, r4, #20
   bdbb4:	eb03 0787 	add.w	r7, r3, r7, lsl #2
   bdbb8:	f109 0314 	add.w	r3, r9, #20
   bdbbc:	eb03 028a 	add.w	r2, r3, sl, lsl #2
   bdbc0:	9202      	str	r2, [sp, #8]
   bdbc2:	1b3a      	subs	r2, r7, r4
   bdbc4:	3a15      	subs	r2, #21
   bdbc6:	f022 0203 	bic.w	r2, r2, #3
   bdbca:	3204      	adds	r2, #4
   bdbcc:	f104 0115 	add.w	r1, r4, #21
   bdbd0:	428f      	cmp	r7, r1
   bdbd2:	bf38      	it	cc
   bdbd4:	2204      	movcc	r2, #4
   bdbd6:	9201      	str	r2, [sp, #4]
   bdbd8:	9a02      	ldr	r2, [sp, #8]
   bdbda:	9303      	str	r3, [sp, #12]
   bdbdc:	429a      	cmp	r2, r3
   bdbde:	d80c      	bhi.n	bdbfa <__multiply+0x9e>
   bdbe0:	2e00      	cmp	r6, #0
   bdbe2:	dd03      	ble.n	bdbec <__multiply+0x90>
   bdbe4:	f858 3d04 	ldr.w	r3, [r8, #-4]!
   bdbe8:	2b00      	cmp	r3, #0
   bdbea:	d05a      	beq.n	bdca2 <__multiply+0x146>
   bdbec:	6106      	str	r6, [r0, #16]
   bdbee:	b005      	add	sp, #20
   bdbf0:	e8bd 8ff0 	ldmia.w	sp!, {r4, r5, r6, r7, r8, r9, sl, fp, pc}
   bdbf4:	f843 2b04 	str.w	r2, [r3], #4
   bdbf8:	e7d8      	b.n	bdbac <__multiply+0x50>
   bdbfa:	f8b3 a000 	ldrh.w	sl, [r3]
   bdbfe:	f1ba 0f00 	cmp.w	sl, #0
   bdc02:	d024      	beq.n	bdc4e <__multiply+0xf2>
   bdc04:	f104 0e14 	add.w	lr, r4, #20
   bdc08:	46a9      	mov	r9, r5
   bdc0a:	f04f 0c00 	mov.w	ip, #0
   bdc0e:	f85e 2b04 	ldr.w	r2, [lr], #4
   bdc12:	f8d9 1000 	ldr.w	r1, [r9]
   bdc16:	fa1f fb82 	uxth.w	fp, r2
   bdc1a:	b289      	uxth	r1, r1
   bdc1c:	fb0a 110b 	mla	r1, sl, fp, r1
   bdc20:	ea4f 4b12 	mov.w	fp, r2, lsr #16
   bdc24:	f8d9 2000 	ldr.w	r2, [r9]
   bdc28:	4461      	add	r1, ip
   bdc2a:	ea4f 4c12 	mov.w	ip, r2, lsr #16
   bdc2e:	fb0a c20b 	mla	r2, sl, fp, ip
   bdc32:	eb02 4211 	add.w	r2, r2, r1, lsr #16
   bdc36:	b289      	uxth	r1, r1
   bdc38:	ea41 4102 	orr.w	r1, r1, r2, lsl #16
   bdc3c:	4577      	cmp	r7, lr
   bdc3e:	f849 1b04 	str.w	r1, [r9], #4
   bdc42:	ea4f 4c12 	mov.w	ip, r2, lsr #16
   bdc46:	d8e2      	bhi.n	bdc0e <__multiply+0xb2>
   bdc48:	9a01      	ldr	r2, [sp, #4]
   bdc4a:	f845 c002 	str.w	ip, [r5, r2]
   bdc4e:	9a03      	ldr	r2, [sp, #12]
   bdc50:	f8b2 9002 	ldrh.w	r9, [r2, #2]
   bdc54:	3304      	adds	r3, #4
   bdc56:	f1b9 0f00 	cmp.w	r9, #0
   bdc5a:	d020      	beq.n	bdc9e <__multiply+0x142>
   bdc5c:	6829      	ldr	r1, [r5, #0]
   bdc5e:	f104 0c14 	add.w	ip, r4, #20
   bdc62:	46ae      	mov	lr, r5
   bdc64:	f04f 0a00 	mov.w	sl, #0
   bdc68:	f8bc b000 	ldrh.w	fp, [ip]
   bdc6c:	f8be 2002 	ldrh.w	r2, [lr, #2]
   bdc70:	fb09 220b 	mla	r2, r9, fp, r2
   bdc74:	4492      	add	sl, r2
   bdc76:	b289      	uxth	r1, r1
   bdc78:	ea41 410a 	orr.w	r1, r1, sl, lsl #16
   bdc7c:	f84e 1b04 	str.w	r1, [lr], #4
   bdc80:	f85c 2b04 	ldr.w	r2, [ip], #4
   bdc84:	f8be 1000 	ldrh.w	r1, [lr]
   bdc88:	0c12      	lsrs	r2, r2, #16
   bdc8a:	fb09 1102 	mla	r1, r9, r2, r1
   bdc8e:	eb01 411a 	add.w	r1, r1, sl, lsr #16
   bdc92:	4567      	cmp	r7, ip
   bdc94:	ea4f 4a11 	mov.w	sl, r1, lsr #16
   bdc98:	d8e6      	bhi.n	bdc68 <__multiply+0x10c>
   bdc9a:	9a01      	ldr	r2, [sp, #4]
   bdc9c:	50a9      	str	r1, [r5, r2]
   bdc9e:	3504      	adds	r5, #4
   bdca0:	e79a      	b.n	bdbd8 <__multiply+0x7c>
   bdca2:	3e01      	subs	r6, #1
   bdca4:	e79c      	b.n	bdbe0 <__multiply+0x84>
   bdca6:	bf00      	nop
   bdca8:	000beee1 	.word	0x000beee1
   bdcac:	000bef68 	.word	0x000bef68

000bdcb0 <__pow5mult>:
   bdcb0:	e92d 43f8 	stmdb	sp!, {r3, r4, r5, r6, r7, r8, r9, lr}
   bdcb4:	4615      	mov	r5, r2
   bdcb6:	f012 0203 	ands.w	r2, r2, #3
   bdcba:	4606      	mov	r6, r0
   bdcbc:	460f      	mov	r7, r1
   bdcbe:	d007      	beq.n	bdcd0 <__pow5mult+0x20>
   bdcc0:	4c25      	ldr	r4, [pc, #148]	; (bdd58 <__pow5mult+0xa8>)
   bdcc2:	3a01      	subs	r2, #1
   bdcc4:	2300      	movs	r3, #0
   bdcc6:	f854 2022 	ldr.w	r2, [r4, r2, lsl #2]
   bdcca:	f7ff fe51 	bl	bd970 <__multadd>
   bdcce:	4607      	mov	r7, r0
   bdcd0:	10ad      	asrs	r5, r5, #2
   bdcd2:	d03d      	beq.n	bdd50 <__pow5mult+0xa0>
   bdcd4:	6a74      	ldr	r4, [r6, #36]	; 0x24
   bdcd6:	b97c      	cbnz	r4, bdcf8 <__pow5mult+0x48>
   bdcd8:	2010      	movs	r0, #16
   bdcda:	f7fa fedf 	bl	b8a9c <malloc>
   bdcde:	4602      	mov	r2, r0
   bdce0:	6270      	str	r0, [r6, #36]	; 0x24
   bdce2:	b928      	cbnz	r0, bdcf0 <__pow5mult+0x40>
   bdce4:	4b1d      	ldr	r3, [pc, #116]	; (bdd5c <__pow5mult+0xac>)
   bdce6:	481e      	ldr	r0, [pc, #120]	; (bdd60 <__pow5mult+0xb0>)
   bdce8:	f44f 71d7 	mov.w	r1, #430	; 0x1ae
   bdcec:	f7fa ff16 	bl	b8b1c <__assert_func>
   bdcf0:	e9c0 4401 	strd	r4, r4, [r0, #4]
   bdcf4:	6004      	str	r4, [r0, #0]
   bdcf6:	60c4      	str	r4, [r0, #12]
   bdcf8:	f8d6 8024 	ldr.w	r8, [r6, #36]	; 0x24
   bdcfc:	f8d8 4008 	ldr.w	r4, [r8, #8]
   bdd00:	b94c      	cbnz	r4, bdd16 <__pow5mult+0x66>
   bdd02:	f240 2171 	movw	r1, #625	; 0x271
   bdd06:	4630      	mov	r0, r6
   bdd08:	f7ff ff12 	bl	bdb30 <__i2b>
   bdd0c:	2300      	movs	r3, #0
   bdd0e:	f8c8 0008 	str.w	r0, [r8, #8]
   bdd12:	4604      	mov	r4, r0
   bdd14:	6003      	str	r3, [r0, #0]
   bdd16:	f04f 0900 	mov.w	r9, #0
   bdd1a:	07eb      	lsls	r3, r5, #31
   bdd1c:	d50a      	bpl.n	bdd34 <__pow5mult+0x84>
   bdd1e:	4639      	mov	r1, r7
   bdd20:	4622      	mov	r2, r4
   bdd22:	4630      	mov	r0, r6
   bdd24:	f7ff ff1a 	bl	bdb5c <__multiply>
   bdd28:	4639      	mov	r1, r7
   bdd2a:	4680      	mov	r8, r0
   bdd2c:	4630      	mov	r0, r6
   bdd2e:	f7ff fdfd 	bl	bd92c <_Bfree>
   bdd32:	4647      	mov	r7, r8
   bdd34:	106d      	asrs	r5, r5, #1
   bdd36:	d00b      	beq.n	bdd50 <__pow5mult+0xa0>
   bdd38:	6820      	ldr	r0, [r4, #0]
   bdd3a:	b938      	cbnz	r0, bdd4c <__pow5mult+0x9c>
   bdd3c:	4622      	mov	r2, r4
   bdd3e:	4621      	mov	r1, r4
   bdd40:	4630      	mov	r0, r6
   bdd42:	f7ff ff0b 	bl	bdb5c <__multiply>
   bdd46:	6020      	str	r0, [r4, #0]
   bdd48:	f8c0 9000 	str.w	r9, [r0]
   bdd4c:	4604      	mov	r4, r0
   bdd4e:	e7e4      	b.n	bdd1a <__pow5mult+0x6a>
   bdd50:	4638      	mov	r0, r7
   bdd52:	e8bd 83f8 	ldmia.w	sp!, {r3, r4, r5, r6, r7, r8, r9, pc}
   bdd56:	bf00      	nop
   bdd58:	000bf0b8 	.word	0x000bf0b8
   bdd5c:	000bed11 	.word	0x000bed11
   bdd60:	000bef68 	.word	0x000bef68

000bdd64 <__lshift>:
   bdd64:	e92d 47f0 	stmdb	sp!, {r4, r5, r6, r7, r8, r9, sl, lr}
   bdd68:	460c      	mov	r4, r1
   bdd6a:	6849      	ldr	r1, [r1, #4]
   bdd6c:	6923      	ldr	r3, [r4, #16]
   bdd6e:	eb03 1862 	add.w	r8, r3, r2, asr #5
   bdd72:	68a3      	ldr	r3, [r4, #8]
   bdd74:	4607      	mov	r7, r0
   bdd76:	4691      	mov	r9, r2
   bdd78:	ea4f 1a62 	mov.w	sl, r2, asr #5
   bdd7c:	f108 0601 	add.w	r6, r8, #1
   bdd80:	42b3      	cmp	r3, r6
   bdd82:	db0b      	blt.n	bdd9c <__lshift+0x38>
   bdd84:	4638      	mov	r0, r7
   bdd86:	f7ff fd91 	bl	bd8ac <_Balloc>
   bdd8a:	4605      	mov	r5, r0
   bdd8c:	b948      	cbnz	r0, bdda2 <__lshift+0x3e>
   bdd8e:	4602      	mov	r2, r0
   bdd90:	4b2a      	ldr	r3, [pc, #168]	; (bde3c <__lshift+0xd8>)
   bdd92:	482b      	ldr	r0, [pc, #172]	; (bde40 <__lshift+0xdc>)
   bdd94:	f240 11d9 	movw	r1, #473	; 0x1d9
   bdd98:	f7fa fec0 	bl	b8b1c <__assert_func>
   bdd9c:	3101      	adds	r1, #1
   bdd9e:	005b      	lsls	r3, r3, #1
   bdda0:	e7ee      	b.n	bdd80 <__lshift+0x1c>
   bdda2:	2300      	movs	r3, #0
   bdda4:	f100 0114 	add.w	r1, r0, #20
   bdda8:	f100 0210 	add.w	r2, r0, #16
   bddac:	4618      	mov	r0, r3
   bddae:	4553      	cmp	r3, sl
   bddb0:	db37      	blt.n	bde22 <__lshift+0xbe>
   bddb2:	6920      	ldr	r0, [r4, #16]
   bddb4:	ea2a 7aea 	bic.w	sl, sl, sl, asr #31
   bddb8:	f104 0314 	add.w	r3, r4, #20
   bddbc:	f019 091f 	ands.w	r9, r9, #31
   bddc0:	eb01 018a 	add.w	r1, r1, sl, lsl #2
   bddc4:	eb03 0080 	add.w	r0, r3, r0, lsl #2
   bddc8:	d02f      	beq.n	bde2a <__lshift+0xc6>
   bddca:	f1c9 0e20 	rsb	lr, r9, #32
   bddce:	468a      	mov	sl, r1
   bddd0:	f04f 0c00 	mov.w	ip, #0
   bddd4:	681a      	ldr	r2, [r3, #0]
   bddd6:	fa02 f209 	lsl.w	r2, r2, r9
   bddda:	ea42 020c 	orr.w	r2, r2, ip
   bddde:	f84a 2b04 	str.w	r2, [sl], #4
   bdde2:	f853 2b04 	ldr.w	r2, [r3], #4
   bdde6:	4298      	cmp	r0, r3
   bdde8:	fa22 fc0e 	lsr.w	ip, r2, lr
   bddec:	d8f2      	bhi.n	bddd4 <__lshift+0x70>
   bddee:	1b03      	subs	r3, r0, r4
   bddf0:	3b15      	subs	r3, #21
   bddf2:	f023 0303 	bic.w	r3, r3, #3
   bddf6:	3304      	adds	r3, #4
   bddf8:	f104 0215 	add.w	r2, r4, #21
   bddfc:	4290      	cmp	r0, r2
   bddfe:	bf38      	it	cc
   bde00:	2304      	movcc	r3, #4
   bde02:	f841 c003 	str.w	ip, [r1, r3]
   bde06:	f1bc 0f00 	cmp.w	ip, #0
   bde0a:	d001      	beq.n	bde10 <__lshift+0xac>
   bde0c:	f108 0602 	add.w	r6, r8, #2
   bde10:	3e01      	subs	r6, #1
   bde12:	4638      	mov	r0, r7
   bde14:	612e      	str	r6, [r5, #16]
   bde16:	4621      	mov	r1, r4
   bde18:	f7ff fd88 	bl	bd92c <_Bfree>
   bde1c:	4628      	mov	r0, r5
   bde1e:	e8bd 87f0 	ldmia.w	sp!, {r4, r5, r6, r7, r8, r9, sl, pc}
   bde22:	f842 0f04 	str.w	r0, [r2, #4]!
   bde26:	3301      	adds	r3, #1
   bde28:	e7c1      	b.n	bddae <__lshift+0x4a>
   bde2a:	3904      	subs	r1, #4
   bde2c:	f853 2b04 	ldr.w	r2, [r3], #4
   bde30:	f841 2f04 	str.w	r2, [r1, #4]!
   bde34:	4298      	cmp	r0, r3
   bde36:	d8f9      	bhi.n	bde2c <__lshift+0xc8>
   bde38:	e7ea      	b.n	bde10 <__lshift+0xac>
   bde3a:	bf00      	nop
   bde3c:	000beee1 	.word	0x000beee1
   bde40:	000bef68 	.word	0x000bef68

000bde44 <__mcmp>:
   bde44:	b530      	push	{r4, r5, lr}
   bde46:	6902      	ldr	r2, [r0, #16]
   bde48:	690c      	ldr	r4, [r1, #16]
   bde4a:	1b12      	subs	r2, r2, r4
   bde4c:	d10e      	bne.n	bde6c <__mcmp+0x28>
   bde4e:	f100 0314 	add.w	r3, r0, #20
   bde52:	3114      	adds	r1, #20
   bde54:	eb03 0084 	add.w	r0, r3, r4, lsl #2
   bde58:	eb01 0184 	add.w	r1, r1, r4, lsl #2
   bde5c:	f850 5d04 	ldr.w	r5, [r0, #-4]!
   bde60:	f851 4d04 	ldr.w	r4, [r1, #-4]!
   bde64:	42a5      	cmp	r5, r4
   bde66:	d003      	beq.n	bde70 <__mcmp+0x2c>
   bde68:	d305      	bcc.n	bde76 <__mcmp+0x32>
   bde6a:	2201      	movs	r2, #1
   bde6c:	4610      	mov	r0, r2
   bde6e:	bd30      	pop	{r4, r5, pc}
   bde70:	4283      	cmp	r3, r0
   bde72:	d3f3      	bcc.n	bde5c <__mcmp+0x18>
   bde74:	e7fa      	b.n	bde6c <__mcmp+0x28>
   bde76:	f04f 32ff 	mov.w	r2, #4294967295	; 0xffffffff
   bde7a:	e7f7      	b.n	bde6c <__mcmp+0x28>

000bde7c <__mdiff>:
   bde7c:	e92d 4ff8 	stmdb	sp!, {r3, r4, r5, r6, r7, r8, r9, sl, fp, lr}
   bde80:	460c      	mov	r4, r1
   bde82:	4606      	mov	r6, r0
   bde84:	4611      	mov	r1, r2
   bde86:	4620      	mov	r0, r4
   bde88:	4690      	mov	r8, r2
   bde8a:	f7ff ffdb 	bl	bde44 <__mcmp>
   bde8e:	1e05      	subs	r5, r0, #0
   bde90:	d110      	bne.n	bdeb4 <__mdiff+0x38>
   bde92:	4629      	mov	r1, r5
   bde94:	4630      	mov	r0, r6
   bde96:	f7ff fd09 	bl	bd8ac <_Balloc>
   bde9a:	b930      	cbnz	r0, bdeaa <__mdiff+0x2e>
   bde9c:	4b3a      	ldr	r3, [pc, #232]	; (bdf88 <__mdiff+0x10c>)
   bde9e:	4602      	mov	r2, r0
   bdea0:	f240 2132 	movw	r1, #562	; 0x232
   bdea4:	4839      	ldr	r0, [pc, #228]	; (bdf8c <__mdiff+0x110>)
   bdea6:	f7fa fe39 	bl	b8b1c <__assert_func>
   bdeaa:	2301      	movs	r3, #1
   bdeac:	e9c0 3504 	strd	r3, r5, [r0, #16]
   bdeb0:	e8bd 8ff8 	ldmia.w	sp!, {r3, r4, r5, r6, r7, r8, r9, sl, fp, pc}
   bdeb4:	bfa4      	itt	ge
   bdeb6:	4643      	movge	r3, r8
   bdeb8:	46a0      	movge	r8, r4
   bdeba:	4630      	mov	r0, r6
   bdebc:	f8d8 1004 	ldr.w	r1, [r8, #4]
   bdec0:	bfa6      	itte	ge
   bdec2:	461c      	movge	r4, r3
   bdec4:	2500      	movge	r5, #0
   bdec6:	2501      	movlt	r5, #1
   bdec8:	f7ff fcf0 	bl	bd8ac <_Balloc>
   bdecc:	b920      	cbnz	r0, bded8 <__mdiff+0x5c>
   bdece:	4b2e      	ldr	r3, [pc, #184]	; (bdf88 <__mdiff+0x10c>)
   bded0:	4602      	mov	r2, r0
   bded2:	f44f 7110 	mov.w	r1, #576	; 0x240
   bded6:	e7e5      	b.n	bdea4 <__mdiff+0x28>
   bded8:	f8d8 7010 	ldr.w	r7, [r8, #16]
   bdedc:	6926      	ldr	r6, [r4, #16]
   bdede:	60c5      	str	r5, [r0, #12]
   bdee0:	f104 0914 	add.w	r9, r4, #20
   bdee4:	f108 0514 	add.w	r5, r8, #20
   bdee8:	f100 0e14 	add.w	lr, r0, #20
   bdeec:	eb05 0c87 	add.w	ip, r5, r7, lsl #2
   bdef0:	eb09 0686 	add.w	r6, r9, r6, lsl #2
   bdef4:	f108 0210 	add.w	r2, r8, #16
   bdef8:	46f2      	mov	sl, lr
   bdefa:	2100      	movs	r1, #0
   bdefc:	f859 3b04 	ldr.w	r3, [r9], #4
   bdf00:	f852 bf04 	ldr.w	fp, [r2, #4]!
   bdf04:	fa1f f883 	uxth.w	r8, r3
   bdf08:	fa11 f18b 	uxtah	r1, r1, fp
   bdf0c:	0c1b      	lsrs	r3, r3, #16
   bdf0e:	eba1 0808 	sub.w	r8, r1, r8
   bdf12:	ebc3 431b 	rsb	r3, r3, fp, lsr #16
   bdf16:	eb03 4328 	add.w	r3, r3, r8, asr #16
   bdf1a:	fa1f f888 	uxth.w	r8, r8
   bdf1e:	1419      	asrs	r1, r3, #16
   bdf20:	454e      	cmp	r6, r9
   bdf22:	ea48 4303 	orr.w	r3, r8, r3, lsl #16
   bdf26:	f84a 3b04 	str.w	r3, [sl], #4
   bdf2a:	d8e7      	bhi.n	bdefc <__mdiff+0x80>
   bdf2c:	1b33      	subs	r3, r6, r4
   bdf2e:	3b15      	subs	r3, #21
   bdf30:	f023 0303 	bic.w	r3, r3, #3
   bdf34:	3304      	adds	r3, #4
   bdf36:	3415      	adds	r4, #21
   bdf38:	42a6      	cmp	r6, r4
   bdf3a:	bf38      	it	cc
   bdf3c:	2304      	movcc	r3, #4
   bdf3e:	441d      	add	r5, r3
   bdf40:	4473      	add	r3, lr
   bdf42:	469e      	mov	lr, r3
   bdf44:	462e      	mov	r6, r5
   bdf46:	4566      	cmp	r6, ip
   bdf48:	d30e      	bcc.n	bdf68 <__mdiff+0xec>
   bdf4a:	f10c 0203 	add.w	r2, ip, #3
   bdf4e:	1b52      	subs	r2, r2, r5
   bdf50:	f022 0203 	bic.w	r2, r2, #3
   bdf54:	3d03      	subs	r5, #3
   bdf56:	45ac      	cmp	ip, r5
   bdf58:	bf38      	it	cc
   bdf5a:	2200      	movcc	r2, #0
   bdf5c:	441a      	add	r2, r3
   bdf5e:	f852 3d04 	ldr.w	r3, [r2, #-4]!
   bdf62:	b17b      	cbz	r3, bdf84 <__mdiff+0x108>
   bdf64:	6107      	str	r7, [r0, #16]
   bdf66:	e7a3      	b.n	bdeb0 <__mdiff+0x34>
   bdf68:	f856 8b04 	ldr.w	r8, [r6], #4
   bdf6c:	fa11 f288 	uxtah	r2, r1, r8
   bdf70:	1414      	asrs	r4, r2, #16
   bdf72:	eb04 4418 	add.w	r4, r4, r8, lsr #16
   bdf76:	b292      	uxth	r2, r2
   bdf78:	ea42 4204 	orr.w	r2, r2, r4, lsl #16
   bdf7c:	f84e 2b04 	str.w	r2, [lr], #4
   bdf80:	1421      	asrs	r1, r4, #16
   bdf82:	e7e0      	b.n	bdf46 <__mdiff+0xca>
   bdf84:	3f01      	subs	r7, #1
   bdf86:	e7ea      	b.n	bdf5e <__mdiff+0xe2>
   bdf88:	000beee1 	.word	0x000beee1
   bdf8c:	000bef68 	.word	0x000bef68

000bdf90 <__ulp>:
   bdf90:	b082      	sub	sp, #8
   bdf92:	ed8d 0b00 	vstr	d0, [sp]
   bdf96:	9b01      	ldr	r3, [sp, #4]
   bdf98:	4912      	ldr	r1, [pc, #72]	; (bdfe4 <__ulp+0x54>)
   bdf9a:	4019      	ands	r1, r3
   bdf9c:	f1a1 7150 	sub.w	r1, r1, #54525952	; 0x3400000
   bdfa0:	2900      	cmp	r1, #0
   bdfa2:	dd05      	ble.n	bdfb0 <__ulp+0x20>
   bdfa4:	2200      	movs	r2, #0
   bdfa6:	460b      	mov	r3, r1
   bdfa8:	ec43 2b10 	vmov	d0, r2, r3
   bdfac:	b002      	add	sp, #8
   bdfae:	4770      	bx	lr
   bdfb0:	4249      	negs	r1, r1
   bdfb2:	f1b1 7fa0 	cmp.w	r1, #20971520	; 0x1400000
   bdfb6:	ea4f 5021 	mov.w	r0, r1, asr #20
   bdfba:	f04f 0200 	mov.w	r2, #0
   bdfbe:	f04f 0300 	mov.w	r3, #0
   bdfc2:	da04      	bge.n	bdfce <__ulp+0x3e>
   bdfc4:	f44f 2100 	mov.w	r1, #524288	; 0x80000
   bdfc8:	fa41 f300 	asr.w	r3, r1, r0
   bdfcc:	e7ec      	b.n	bdfa8 <__ulp+0x18>
   bdfce:	f1a0 0114 	sub.w	r1, r0, #20
   bdfd2:	291e      	cmp	r1, #30
   bdfd4:	bfda      	itte	le
   bdfd6:	f04f 4000 	movle.w	r0, #2147483648	; 0x80000000
   bdfda:	fa20 f101 	lsrle.w	r1, r0, r1
   bdfde:	2101      	movgt	r1, #1
   bdfe0:	460a      	mov	r2, r1
   bdfe2:	e7e1      	b.n	bdfa8 <__ulp+0x18>
   bdfe4:	7ff00000 	.word	0x7ff00000

000bdfe8 <__b2d>:
   bdfe8:	b5f8      	push	{r3, r4, r5, r6, r7, lr}
   bdfea:	6905      	ldr	r5, [r0, #16]
   bdfec:	f100 0714 	add.w	r7, r0, #20
   bdff0:	eb07 0585 	add.w	r5, r7, r5, lsl #2
   bdff4:	1f2e      	subs	r6, r5, #4
   bdff6:	f855 4c04 	ldr.w	r4, [r5, #-4]
   bdffa:	4620      	mov	r0, r4
   bdffc:	f7ff fd48 	bl	bda90 <__hi0bits>
   be000:	f1c0 0320 	rsb	r3, r0, #32
   be004:	280a      	cmp	r0, #10
   be006:	f8df c07c 	ldr.w	ip, [pc, #124]	; be084 <__b2d+0x9c>
   be00a:	600b      	str	r3, [r1, #0]
   be00c:	dc14      	bgt.n	be038 <__b2d+0x50>
   be00e:	f1c0 0e0b 	rsb	lr, r0, #11
   be012:	fa24 f10e 	lsr.w	r1, r4, lr
   be016:	42b7      	cmp	r7, r6
   be018:	ea41 030c 	orr.w	r3, r1, ip
   be01c:	bf34      	ite	cc
   be01e:	f855 1c08 	ldrcc.w	r1, [r5, #-8]
   be022:	2100      	movcs	r1, #0
   be024:	3015      	adds	r0, #21
   be026:	fa04 f000 	lsl.w	r0, r4, r0
   be02a:	fa21 f10e 	lsr.w	r1, r1, lr
   be02e:	ea40 0201 	orr.w	r2, r0, r1
   be032:	ec43 2b10 	vmov	d0, r2, r3
   be036:	bdf8      	pop	{r3, r4, r5, r6, r7, pc}
   be038:	42b7      	cmp	r7, r6
   be03a:	bf3a      	itte	cc
   be03c:	f855 1c08 	ldrcc.w	r1, [r5, #-8]
   be040:	f1a5 0608 	subcc.w	r6, r5, #8
   be044:	2100      	movcs	r1, #0
   be046:	380b      	subs	r0, #11
   be048:	d017      	beq.n	be07a <__b2d+0x92>
   be04a:	f1c0 0c20 	rsb	ip, r0, #32
   be04e:	fa04 f500 	lsl.w	r5, r4, r0
   be052:	42be      	cmp	r6, r7
   be054:	fa21 f40c 	lsr.w	r4, r1, ip
   be058:	ea45 0504 	orr.w	r5, r5, r4
   be05c:	bf8c      	ite	hi
   be05e:	f856 4c04 	ldrhi.w	r4, [r6, #-4]
   be062:	2400      	movls	r4, #0
   be064:	f045 537f 	orr.w	r3, r5, #1069547520	; 0x3fc00000
   be068:	fa01 f000 	lsl.w	r0, r1, r0
   be06c:	fa24 f40c 	lsr.w	r4, r4, ip
   be070:	f443 1340 	orr.w	r3, r3, #3145728	; 0x300000
   be074:	ea40 0204 	orr.w	r2, r0, r4
   be078:	e7db      	b.n	be032 <__b2d+0x4a>
   be07a:	ea44 030c 	orr.w	r3, r4, ip
   be07e:	460a      	mov	r2, r1
   be080:	e7d7      	b.n	be032 <__b2d+0x4a>
   be082:	bf00      	nop
   be084:	3ff00000 	.word	0x3ff00000

000be088 <__d2b>:
   be088:	e92d 43f7 	stmdb	sp!, {r0, r1, r2, r4, r5, r6, r7, r8, r9, lr}
   be08c:	4689      	mov	r9, r1
   be08e:	2101      	movs	r1, #1
   be090:	ec57 6b10 	vmov	r6, r7, d0
   be094:	4690      	mov	r8, r2
   be096:	f7ff fc09 	bl	bd8ac <_Balloc>
   be09a:	4604      	mov	r4, r0
   be09c:	b930      	cbnz	r0, be0ac <__d2b+0x24>
   be09e:	4602      	mov	r2, r0
   be0a0:	4b25      	ldr	r3, [pc, #148]	; (be138 <__d2b+0xb0>)
   be0a2:	4826      	ldr	r0, [pc, #152]	; (be13c <__d2b+0xb4>)
   be0a4:	f240 310a 	movw	r1, #778	; 0x30a
   be0a8:	f7fa fd38 	bl	b8b1c <__assert_func>
   be0ac:	f3c7 550a 	ubfx	r5, r7, #20, #11
   be0b0:	f3c7 0313 	ubfx	r3, r7, #0, #20
   be0b4:	bb35      	cbnz	r5, be104 <__d2b+0x7c>
   be0b6:	2e00      	cmp	r6, #0
   be0b8:	9301      	str	r3, [sp, #4]
   be0ba:	d028      	beq.n	be10e <__d2b+0x86>
   be0bc:	4668      	mov	r0, sp
   be0be:	9600      	str	r6, [sp, #0]
   be0c0:	f7ff fd06 	bl	bdad0 <__lo0bits>
   be0c4:	9900      	ldr	r1, [sp, #0]
   be0c6:	b300      	cbz	r0, be10a <__d2b+0x82>
   be0c8:	9a01      	ldr	r2, [sp, #4]
   be0ca:	f1c0 0320 	rsb	r3, r0, #32
   be0ce:	fa02 f303 	lsl.w	r3, r2, r3
   be0d2:	430b      	orrs	r3, r1
   be0d4:	40c2      	lsrs	r2, r0
   be0d6:	6163      	str	r3, [r4, #20]
   be0d8:	9201      	str	r2, [sp, #4]
   be0da:	9b01      	ldr	r3, [sp, #4]
   be0dc:	61a3      	str	r3, [r4, #24]
   be0de:	2b00      	cmp	r3, #0
   be0e0:	bf14      	ite	ne
   be0e2:	2202      	movne	r2, #2
   be0e4:	2201      	moveq	r2, #1
   be0e6:	6122      	str	r2, [r4, #16]
   be0e8:	b1d5      	cbz	r5, be120 <__d2b+0x98>
   be0ea:	f2a5 4533 	subw	r5, r5, #1075	; 0x433
   be0ee:	4405      	add	r5, r0
   be0f0:	f8c9 5000 	str.w	r5, [r9]
   be0f4:	f1c0 0035 	rsb	r0, r0, #53	; 0x35
   be0f8:	f8c8 0000 	str.w	r0, [r8]
   be0fc:	4620      	mov	r0, r4
   be0fe:	b003      	add	sp, #12
   be100:	e8bd 83f0 	ldmia.w	sp!, {r4, r5, r6, r7, r8, r9, pc}
   be104:	f443 1380 	orr.w	r3, r3, #1048576	; 0x100000
   be108:	e7d5      	b.n	be0b6 <__d2b+0x2e>
   be10a:	6161      	str	r1, [r4, #20]
   be10c:	e7e5      	b.n	be0da <__d2b+0x52>
   be10e:	a801      	add	r0, sp, #4
   be110:	f7ff fcde 	bl	bdad0 <__lo0bits>
   be114:	9b01      	ldr	r3, [sp, #4]
   be116:	6163      	str	r3, [r4, #20]
   be118:	2201      	movs	r2, #1
   be11a:	6122      	str	r2, [r4, #16]
   be11c:	3020      	adds	r0, #32
   be11e:	e7e3      	b.n	be0e8 <__d2b+0x60>
   be120:	eb04 0382 	add.w	r3, r4, r2, lsl #2
   be124:	f2a0 4032 	subw	r0, r0, #1074	; 0x432
   be128:	f8c9 0000 	str.w	r0, [r9]
   be12c:	6918      	ldr	r0, [r3, #16]
   be12e:	f7ff fcaf 	bl	bda90 <__hi0bits>
   be132:	ebc0 1042 	rsb	r0, r0, r2, lsl #5
   be136:	e7df      	b.n	be0f8 <__d2b+0x70>
   be138:	000beee1 	.word	0x000beee1
   be13c:	000bef68 	.word	0x000bef68

000be140 <__ratio>:
   be140:	e92d 4ff7 	stmdb	sp!, {r0, r1, r2, r4, r5, r6, r7, r8, r9, sl, fp, lr}
   be144:	4688      	mov	r8, r1
   be146:	4669      	mov	r1, sp
   be148:	4681      	mov	r9, r0
   be14a:	f7ff ff4d 	bl	bdfe8 <__b2d>
   be14e:	a901      	add	r1, sp, #4
   be150:	4640      	mov	r0, r8
   be152:	ec55 4b10 	vmov	r4, r5, d0
   be156:	f7ff ff47 	bl	bdfe8 <__b2d>
   be15a:	f8d9 3010 	ldr.w	r3, [r9, #16]
   be15e:	f8d8 2010 	ldr.w	r2, [r8, #16]
   be162:	eba3 0c02 	sub.w	ip, r3, r2
   be166:	e9dd 3200 	ldrd	r3, r2, [sp]
   be16a:	1a9b      	subs	r3, r3, r2
   be16c:	eb03 134c 	add.w	r3, r3, ip, lsl #5
   be170:	ec51 0b10 	vmov	r0, r1, d0
   be174:	2b00      	cmp	r3, #0
   be176:	bfd6      	itet	le
   be178:	460a      	movle	r2, r1
   be17a:	462a      	movgt	r2, r5
   be17c:	ebc3 3303 	rsble	r3, r3, r3, lsl #12
   be180:	468b      	mov	fp, r1
   be182:	462f      	mov	r7, r5
   be184:	bfd4      	ite	le
   be186:	eb02 5b03 	addle.w	fp, r2, r3, lsl #20
   be18a:	eb02 5703 	addgt.w	r7, r2, r3, lsl #20
   be18e:	4620      	mov	r0, r4
   be190:	ee10 2a10 	vmov	r2, s0
   be194:	465b      	mov	r3, fp
   be196:	4639      	mov	r1, r7
   be198:	f7fd fdb8 	bl	bbd0c <__aeabi_ddiv>
   be19c:	ec41 0b10 	vmov	d0, r0, r1
   be1a0:	b003      	add	sp, #12
   be1a2:	e8bd 8ff0 	ldmia.w	sp!, {r4, r5, r6, r7, r8, r9, sl, fp, pc}

000be1a6 <__copybits>:
   be1a6:	3901      	subs	r1, #1
   be1a8:	b570      	push	{r4, r5, r6, lr}
   be1aa:	1149      	asrs	r1, r1, #5
   be1ac:	6914      	ldr	r4, [r2, #16]
   be1ae:	3101      	adds	r1, #1
   be1b0:	f102 0314 	add.w	r3, r2, #20
   be1b4:	eb00 0181 	add.w	r1, r0, r1, lsl #2
   be1b8:	eb03 0484 	add.w	r4, r3, r4, lsl #2
   be1bc:	1f05      	subs	r5, r0, #4
   be1be:	42a3      	cmp	r3, r4
   be1c0:	d30c      	bcc.n	be1dc <__copybits+0x36>
   be1c2:	1aa3      	subs	r3, r4, r2
   be1c4:	3b11      	subs	r3, #17
   be1c6:	f023 0303 	bic.w	r3, r3, #3
   be1ca:	3211      	adds	r2, #17
   be1cc:	42a2      	cmp	r2, r4
   be1ce:	bf88      	it	hi
   be1d0:	2300      	movhi	r3, #0
   be1d2:	4418      	add	r0, r3
   be1d4:	2300      	movs	r3, #0
   be1d6:	4288      	cmp	r0, r1
   be1d8:	d305      	bcc.n	be1e6 <__copybits+0x40>
   be1da:	bd70      	pop	{r4, r5, r6, pc}
   be1dc:	f853 6b04 	ldr.w	r6, [r3], #4
   be1e0:	f845 6f04 	str.w	r6, [r5, #4]!
   be1e4:	e7eb      	b.n	be1be <__copybits+0x18>
   be1e6:	f840 3b04 	str.w	r3, [r0], #4
   be1ea:	e7f4      	b.n	be1d6 <__copybits+0x30>

000be1ec <__any_on>:
   be1ec:	f100 0214 	add.w	r2, r0, #20
   be1f0:	6900      	ldr	r0, [r0, #16]
   be1f2:	114b      	asrs	r3, r1, #5
   be1f4:	4298      	cmp	r0, r3
   be1f6:	b510      	push	{r4, lr}
   be1f8:	db11      	blt.n	be21e <__any_on+0x32>
   be1fa:	dd0a      	ble.n	be212 <__any_on+0x26>
   be1fc:	f011 011f 	ands.w	r1, r1, #31
   be200:	d007      	beq.n	be212 <__any_on+0x26>
   be202:	f852 4023 	ldr.w	r4, [r2, r3, lsl #2]
   be206:	fa24 f001 	lsr.w	r0, r4, r1
   be20a:	fa00 f101 	lsl.w	r1, r0, r1
   be20e:	428c      	cmp	r4, r1
   be210:	d10b      	bne.n	be22a <__any_on+0x3e>
   be212:	eb02 0383 	add.w	r3, r2, r3, lsl #2
   be216:	4293      	cmp	r3, r2
   be218:	d803      	bhi.n	be222 <__any_on+0x36>
   be21a:	2000      	movs	r0, #0
   be21c:	bd10      	pop	{r4, pc}
   be21e:	4603      	mov	r3, r0
   be220:	e7f7      	b.n	be212 <__any_on+0x26>
   be222:	f853 1d04 	ldr.w	r1, [r3, #-4]!
   be226:	2900      	cmp	r1, #0
   be228:	d0f5      	beq.n	be216 <__any_on+0x2a>
   be22a:	2001      	movs	r0, #1
   be22c:	e7f6      	b.n	be21c <__any_on+0x30>

000be22e <_calloc_r>:
   be22e:	b513      	push	{r0, r1, r4, lr}
   be230:	434a      	muls	r2, r1
   be232:	4611      	mov	r1, r2
   be234:	9201      	str	r2, [sp, #4]
   be236:	f7fa fc61 	bl	b8afc <_malloc_r>
   be23a:	4604      	mov	r4, r0
   be23c:	b118      	cbz	r0, be246 <_calloc_r+0x18>
   be23e:	9a01      	ldr	r2, [sp, #4]
   be240:	2100      	movs	r1, #0
   be242:	f7fd ffb9 	bl	bc1b8 <memset>
   be246:	4620      	mov	r0, r4
   be248:	b002      	add	sp, #8
   be24a:	bd10      	pop	{r4, pc}
   be24c:	0000      	movs	r0, r0
	...

000be250 <nan>:
   be250:	ed9f 0b01 	vldr	d0, [pc, #4]	; be258 <nan+0x8>
   be254:	4770      	bx	lr
   be256:	bf00      	nop
   be258:	00000000 	.word	0x00000000
   be25c:	7ff80000 	.word	0x7ff80000

000be260 <nanf>:
   be260:	ed9f 0a01 	vldr	s0, [pc, #4]	; be268 <nanf+0x8>
   be264:	4770      	bx	lr
   be266:	bf00      	nop
   be268:	7fc00000 	.word	0x7fc00000

000be26c <__ascii_wctomb>:
   be26c:	b149      	cbz	r1, be282 <__ascii_wctomb+0x16>
   be26e:	2aff      	cmp	r2, #255	; 0xff
   be270:	bf85      	ittet	hi
   be272:	238a      	movhi	r3, #138	; 0x8a
   be274:	6003      	strhi	r3, [r0, #0]
   be276:	700a      	strbls	r2, [r1, #0]
   be278:	f04f 30ff 	movhi.w	r0, #4294967295	; 0xffffffff
   be27c:	bf98      	it	ls
   be27e:	2001      	movls	r0, #1
   be280:	4770      	bx	lr
   be282:	4608      	mov	r0, r1
   be284:	4770      	bx	lr
	...

000be288 <__aeabi_d2lz>:
   be288:	b538      	push	{r3, r4, r5, lr}
   be28a:	2200      	movs	r2, #0
   be28c:	2300      	movs	r3, #0
   be28e:	4604      	mov	r4, r0
   be290:	460d      	mov	r5, r1
   be292:	f7fd fe83 	bl	bbf9c <__aeabi_dcmplt>
   be296:	b928      	cbnz	r0, be2a4 <__aeabi_d2lz+0x1c>
   be298:	4620      	mov	r0, r4
   be29a:	4629      	mov	r1, r5
   be29c:	e8bd 4038 	ldmia.w	sp!, {r3, r4, r5, lr}
   be2a0:	f7fd bf2a 	b.w	bc0f8 <__aeabi_d2ulz>
   be2a4:	4620      	mov	r0, r4
   be2a6:	f105 4100 	add.w	r1, r5, #2147483648	; 0x80000000
   be2aa:	f7fd ff25 	bl	bc0f8 <__aeabi_d2ulz>
   be2ae:	4240      	negs	r0, r0
   be2b0:	eb61 0141 	sbc.w	r1, r1, r1, lsl #1
   be2b4:	bd38      	pop	{r3, r4, r5, pc}
   be2b6:	bf00      	nop

000be2b8 <dynalib_user>:
   be2b8:	4021 000b 405d 000b 4085 000b 4089 000b     !@..]@...@...@..
   be2c8:	0000 0000 6162 6973 5f63 7473 6972 676e     ....basic_string
   be2d8:	3a3a 4d5f 635f 6e6f 7473 7572 7463 6e20     ::_M_construct n
   be2e8:	6c75 206c 6f6e 2074 6176 696c 0064 720a     ull not valid..r
   be2f8:	7165 6575 7473 6320 646f 2065 2c31 6120     equest code 1, a
   be308:	6464 6572 7373 203a 7400 6172 736e 696d     ddress: .transmi
   be318:	7373 6f69 206e 6572 6963 7665 6465 6620     ssion recieved f
   be328:	6f72 3a6d 0020 6564 6976 6563 6920 3a64     rom: .device id:
   be338:	0020 7274 6e61 6d73 7369 6973 6e6f 7320      .transmission s
   be348:	6e65 2074 6f74 203a 7200 7165 6575 7473     ent to: .request
   be358:	6320 646f 2065 2c32 6120 6464 6572 7373      code 2, address
   be368:	203a 6300 6e6f 6c66 6369 2074 6576 6972     : .conflict veri
   be378:	6966 6163 6974 6e6f 203a 0a00 6f43 6e6e     fication: ..Conn
   be388:	6365 6574 2064 6f74 203a 6300 6e61 6f6e     ected to: .canno
   be398:	2074 7263 6165 6574 7320 6474 3a3a 6576     t create std::ve
   be3a8:	7463 726f 6c20 7261 6567 2072 6874 6e61     ctor larger than
   be3b8:	6d20 7861 735f 7a69 2865 0029 6b6f 7700      max_size().ok.w
   be3c8:	6669 3a69 2c00 5300 4953 3a44 2520 2c73     ifi:.,.SSID: %s,
   be3d8:	7020 7361 7773 726f 3a64 2520 0073 6963      password: %s.ci
   be3e8:	7974 003a 6e69 6f63 7272 6365 2074 6963     ty:.incorrect ci
   be3f8:	7974 6e20 6d61 0065 6c73 7661 2065 6461     ty name.slave ad
   be408:	7264 7365 6573 2073 6f73 7472 6465 6300     dresses sorted.c
   be418:	7469 3a79 2520 0073 6f63 6f6c 3a72 6300     ity: %s.color:.c
   be428:	7469 2079 6f6e 2074 6573 0074 7267 6565     ity not set.gree
   be438:	316e 6700 6572 6e65 6700 6572 6e65 0032     n1.green.green2.
   be448:	6172 6c69 6177 2079 6e69 6564 3a78 2520     railway index: %
   be458:	0069 6e69 6f63 7272 6365 2074 6172 6c69     i.incorrect rail
   be468:	6177 2079 6f63 6f6c 0072 4c42 2045 6966     way color.BLE fi
   be478:	696e 6873 6465 7200 7365 7465 7400 7275     nished.reset.tur
   be488:	696e 676e 6f20 6666 203a 6925 7200 7365     ning off: %i.res
   be498:	7465 6420 6e6f 0065 6572 0064 4646 3030     et done.red.FF00
   be4a8:	3030 3000 3041 3030 0030 6c62 6575 3000     00.0A0000.blue.0
   be4b8:	3030 4630 0046 3030 3030 4130 6200 6f72     000FF.00000A.bro
   be4c8:	6e77 4600 4646 3046 0030 4130 4130 3030     wn.FFFF00.0A0A00
   be4d8:	3000 4630 3046 0030 3030 4130 3030 6f00     .00FF00.000A00.o
   be4e8:	6172 676e 0065 4646 3038 3030 3000 3041     range.FF8000.0A0
   be4f8:	3035 0030 7570 7072 656c 3200 3030 4630     500.purple.2000F
   be508:	0046 3230 3030 4130 7000 6e69 006b 4646     F.02000A.pink.FF
   be518:	3038 3038 3000 3041 3035 0035 3761 6233     8080.0A0505.a73b
   be528:	3161 3130 382d 3931 2d32 6134 3135 622d     a101-8192-4a51-b
   be538:	3234 2d64 6561 6339 3164 6234 3431 3561     42d-ae9cd14b14a5
   be548:	3600 3445 3030 3030 2d32 3542 3341 462d     .6E400002-B5A3-F
   be558:	3933 2d33 3045 3941 452d 3035 3245 4434     393-E0A9-E50E24D
   be568:	4343 3941 0045 4536 3034 3030 3330 422d     CCA9E.6E400003-B
   be578:	4135 2d33 3346 3339 452d 4130 2d39 3545     5A3-F393-E0A9-E5
   be588:	4530 3432 4344 4143 4539 7400 0078 7872     0E24DCCA9E.tx.rx
   be598:	7400 6572 2e6b 6874 7765 6c63 632e 6d6f     .trek.thewcl.com
   be5a8:	6300 6174 6d00 7462 0061 6f6c 706f 7320     .cta.mbta.loop s
   be5b8:	6174 7472 2500 2c69 0020 6c2f 6f6f 2d70     tart.%i, ./loop-
   be5c8:	7274 6361 736b 002f 6c3f 6e69 7365 003d     tracks/.?lines=.
   be5d8:	4547 0054 6170 7372 6e69 0067 6170 7372     GET.parsing.pars
   be5e8:	6e69 2067 6166 6c69 6465 6c00 6e69 7365     ing failed.lines
   be5f8:	7400 6172 6e69 0073 656e 7478 735f 6f74     .trains.next_sto
   be608:	0070 6564 7473 6e69 7461 6f69 006e 6964     p.destination.di
   be618:	6572 7463 6f69 006e 616c 6974 7574 6564     rection.latitude
   be628:	6c00 6e6f 6967 7574 6564 6200 6572 6b61     .longitude.break
   be638:	2500 2073 6172 6c69 7020 7261 2074 6925     .%s rail part %i
   be648:	203a 0000                                   : ..

000be64c <_ZTV16JsonParserStaticILj10000ELj1000EE>:
	...
   be654:	40b9 000b 40cd 000b 6341 6563 7470 2f00     .@...@..Accept./
   be664:	2f2a 0000 0019 0000 0003 0000 0007 0000     */..............
   be674:	0005 0000 000c 0000 0008 0000 0005 0000     ................
   be684:	0005 0000 0005 0000 0019 0000 0005 0000     ................
   be694:	000f 0000 000a 0000 000a 0000 000a 0000     ................
   be6a4:	000a 0000 0014 0000 0000 0000 0028 0000     ............(...
   be6b4:	0000 0000 0002 0000 0006 0000 0000 0000     ................
   be6c4:	0000 0000 000f 0000 000a 0000 000a 0000     ................
   be6d4:	000f 0000 000f 0000 000f 0000 0014 0000     ................
   be6e4:	0000 0000 0001 0000 0003 0000 0000 0000     ................
   be6f4:	0000 0000 000c 0000 0007 0000 0001 0000     ................
   be704:	000a 0000 000a 0000 000a 0000 000a 0000     ................
   be714:	000c 0000 0000 0000 0028 0000 0008 0000     ........(.......
   be724:	0003 0000 0007 0000 0001 0000 0003 0000     ................
   be734:	0007 0000 0007 0000 0006 0000 000a 0000     ................
   be744:	000a 0000 000a 0000 000a 0000 000e 0000     ................
   be754:	0000 0000 0028 0000 0006 0000 0003 0000     ....(...........
   be764:	0007 0000 0002 0000 0003 0000 0005 0000     ................
   be774:	000a 0000 0005 0000 000a 0000 000a 0000     ................
   be784:	000a 0000 0014 0000 000a 0000 000a 0000     ................
   be794:	000a 0000 0005 0000 000a 0000 000a 0000     ................
   be7a4:	000a 0000 000a 0000 000a 0000 000a 0000     ................
   be7b4:	000a 0000 000a 0000 000a 0000 000a 0000     ................
   be7c4:	4820 5454 2f50 2e31 0d30 000a 6c63 736f      HTTP/1.0...clos
   be7d4:	0065 6f43 6e6e 6365 6974 6e6f 4800 534f     e.Connection.HOS
   be7e4:	0054 6f43 746e 6e65 2d74 654c 676e 6874     T.Content-Length
   be7f4:	5000 534f 0054 0a0d 0a0d 2500 3430 0078     .POST......%04x.

000be804 <_ZTV10JsonBuffer>:
	...
   be80c:	7c69 000b 7c85 000b                         i|...|..

000be814 <_ZTV10JsonParser>:
	...
   be81c:	7c99 000b 7cbd 000b                         .|...|..

000be824 <_ZTV13JsonReference>:
	...
   be82c:	7c59 000b 7c5b 000b 7341 6573 7472 6f69     Y|..[|..Assertio
   be83c:	466e 6961 756c 6572 6620 6c61 6573 7700     nFailure false.w
   be84c:	7269 6e69 2e67 6c62 0065 7453 7261 2074     iring.ble.Start 
   be85c:	6964 6373 766f 7265 6e69 2067 6573 7672     discovering serv
   be86c:	6369 7365 002e 7341 6573 7472 6f69 466e     ices..AssertionF
   be87c:	6961 756c 6572 6820 6c61 625f 656c 735f     ailure hal_ble_s
   be88c:	6174 6b63 695f 696e 2874 756e 6c6c 7470     tack_init(nullpt
   be89c:	2972 3d20 203d 5953 5453 4d45 455f 5252     r) == SYSTEM_ERR
   be8ac:	524f 4e5f 4e4f 0045 6550 7265 6420 7665     OR_NONE.Peer dev
   be8bc:	6369 2065 7369 6d20 7369 6973 676e 0021     ice is missing!.
   be8cc:	6146 6c69 6465 7420 206f 7061 6570 646e     Failed to append
   be8dc:	7020 6565 2072 6543 746e 6172 206c 6564      peer Central de
   be8ec:	6976 6563 002e 6f43 6e6e 6365 6574 2064     vice..Connected 
   be8fc:	7962 4320 6e65 7274 6c61 6420 7665 6369     by Central devic
   be90c:	2e65 4400 7369 6f63 6e6e 6365 6574 2064     e..Disconnected 
   be91c:	7962 7220 6d65 746f 2065 6564 6976 6563     by remote device
   be92c:	002e 7544 6c70 6369 7461 6465 6320 6168     ..Duplicated cha
   be93c:	6172 7463 7265 7369 6974 2063 6163 6e6e     racteristic cann
   be94c:	746f 6220 2065 6461 6564 2e64 4600 6961     ot be added..Fai
   be95c:	656c 2064 6f74 6120 7070 6e65 2064 6f6c     led to append lo
   be96c:	6163 206c 6863 7261 6361 6574 6972 7473     cal characterist
   be97c:	6369 002e                                   ic..

000be980 <_ZTVSt23_Sp_counted_ptr_inplaceIN8particle21BleCharacteristicImplESaIS1_ELN9__gnu_cxx12_Lock_policyE0EE>:
	...
   be988:	8b49 000b 8bad 000b 8c93 000b 8bd7 000b     I...............
   be998:	8b4d 000b                                   M...

000be99c <_ZTVSt23_Sp_counted_ptr_inplaceIN8particle14BleServiceImplESaIS1_ELN9__gnu_cxx12_Lock_policyE0EE>:
	...
   be9a4:	8b45 000b 8bbb 000b 8b47 000b 8bdd 000b     E.......G.......
   be9b4:	8b6d 000b                                   m...

000be9b8 <_ZTVSt23_Sp_counted_ptr_inplaceIN8particle17BlePeerDeviceImplESaIS1_ELN9__gnu_cxx12_Lock_policyE0EE>:
	...
   be9c0:	8b43 000b 8bc9 000b 944d 000b 8be3 000b     C.......M.......
   be9d0:	8b8d 000b                                   ....

000be9d4 <_ZZNSt19_Sp_make_shared_tag5_S_tiEvE5__tag>:
	...
   be9e0:	0000 34fb 5f9b 0080 8000 1000 0000 0000     ...4._..........
	...

000be9f2 <_ZN8particle12_GLOBAL__N_1L29PARTICLE_DEFAULT_BLE_SVC_UUIDE>:
   be9f2:	e37b 7427 f87b ac15 49dd 13a9 0000 f572     {.'t{....I....r.

000bea02 <_ZN8particle7BleUuid9BASE_UUIDE>:
   bea02:	34fb 5f9b 0080 8000 1000 0000 0000 0000     .4._............
	...

000bea14 <_ZTVN5spark13EthernetClassE>:
	...
   bea1c:	9efb 000b 9ef1 000b 9ee7 000b 9edd 000b     ................
   bea2c:	9ed1 000b 9ec5 000b a181 000b a189 000b     ................
   bea3c:	9eb9 000b 9eb1 000b 9ea7 000b 9e9d 000b     ................
   bea4c:	a1b9 000b                                   ....

000bea50 <_ZTV7TwoWire>:
	...
   bea58:	9f19 000b 9f63 000b 9f3b 000b 9f1b 000b     ....c...;.......
   bea68:	9f43 000b 9f4b 000b 9f53 000b 9f5b 000b     C...K...S...[...

000bea78 <_ZTV9IPAddress>:
	...
   bea80:	a025 000b a015 000b a017 000b 7061 0070     %...........app.

000bea90 <_ZTVN5spark12NetworkClassE>:
	...
   bea98:	a141 000b a14b 000b a155 000b a15f 000b     A...K...U..._...
   beaa8:	a169 000b a175 000b a181 000b a189 000b     i...u...........
   beab8:	a191 000b a19d 000b a1a5 000b a1af 000b     ................
   beac8:	a1b9 000b 6977 6972 676e 7200 6365 2076     ....wiring.recv 
   bead8:	7265 6f72 2072 203d 6425 0000               error = %d..

000beae4 <_ZTVSt23_Sp_counted_ptr_inplaceIN9TCPClient4DataESaIS1_ELN9__gnu_cxx12_Lock_policyE0EE>:
	...
   beaec:	a761 000b a785 000b acb7 000b a793 000b     a...............
   beafc:	a765 000b                                   e...

000beb00 <_ZTV9TCPClient>:
	...
   beb08:	a811 000b a845 000b a6dd 000b a6f7 000b     ....E...........
   beb18:	ab4d 000b a721 000b a9c3 000b a755 000b     M...!.......U...
   beb28:	aa55 000b a895 000b a9f1 000b ac01 000b     U...............
   beb38:	a991 000b a757 000b a709 000b a799 000b     ....W...........
   beb48:	a875 000b 5925 252d 2d6d 6425 2554 3a48     u...%Y-%m-%dT%H:
   beb58:	4d25 253a 2553 007a 7361 7463 6d69 0065     %M:%S%z.asctime.

000beb68 <_ZTV11USARTSerial>:
	...
   beb70:	acd1 000b ad3d 000b ad15 000b a2a5 000b     ....=...........
   beb80:	ace5 000b ad01 000b acf3 000b ad0f 000b     ................
   beb90:	acd3 000b acd7 000b                         ........

000beb98 <_ZTV9USBSerial>:
	...
   beba0:	ad7b 000b ade3 000b adb9 000b a2a5 000b     {...............
   bebb0:	adab 000b ad7d 000b ad8d 000b addd 000b     ....}...........
   bebc0:	ad9d 000b ad75 000b                         ....u...

000bebc8 <_ZTVN5spark9WiFiClassE>:
	...
   bebd0:	aedb 000b aed1 000b aec7 000b ae7d 000b     ............}...
   bebe0:	aebb 000b aeaf 000b a181 000b a189 000b     ................
   bebf0:	aea3 000b ae9b 000b ae91 000b ae87 000b     ................
   bec00:	a1b9 000b                                   ....

000bec04 <_ZSt7nothrow>:
	...

000bec05 <_ZTSSt19_Sp_make_shared_tag>:
   bec05:	7453 3931 535f 5f70 616d 656b 735f 6168     St19_Sp_make_sha
   bec15:	6572 5f64 6174 0067 0000                     red_tag....

000bec20 <_ZTISt19_Sp_make_shared_tag>:
   bec20:	ec78 000b ec05 000b 6162 6973 5f63 7473     x.......basic_st
   bec30:	6972 676e 3a3a 4d5f 635f 6572 7461 0065     ring::_M_create.

000bec40 <_ZTIN10__cxxabiv117__class_type_infoE>:
   bec40:	ecd8 000b ec4c 000b ecfc 000b               ....L.......

000bec4c <_ZTSN10__cxxabiv117__class_type_infoE>:
   bec4c:	314e 5f30 635f 7878 6261 7669 3131 5f37     N10__cxxabiv117_
   bec5c:	635f 616c 7373 745f 7079 5f65 6e69 6f66     _class_type_info
   bec6c:	0045 0000                                   E...

000bec70 <_ZTVN10__cxxabiv117__class_type_infoE>:
   bec70:	0000 0000 ec40 000b b2d1 000b b2e5 000b     ....@...........
   bec80:	b479 000b b479 000b b34f 000b b291 000b     y...y...O.......
   bec90:	b337 000b b2f9 000b b2c3 000b               7...........

000bec9c <_ZTIN10__cxxabiv120__si_class_type_infoE>:
   bec9c:	ecd8 000b eca8 000b ec40 000b               ........@...

000beca8 <_ZTSN10__cxxabiv120__si_class_type_infoE>:
   beca8:	314e 5f30 635f 7878 6261 7669 3231 5f30     N10__cxxabiv120_
   becb8:	735f 5f69 6c63 7361 5f73 7974 6570 695f     _si_class_type_i
   becc8:	666e 456f 0000 0000                         nfoE....

000becd0 <_ZTVN10__cxxabiv120__si_class_type_infoE>:
   becd0:	0000 0000 ec9c 000b b379 000b b38d 000b     ........y.......
   bece0:	b479 000b b479 000b b34f 000b b291 000b     y...y...O.......
   becf0:	b44d 000b b3d9 000b b3a1 000b               M...........

000becfc <_ZTISt9type_info>:
   becfc:	ec78 000b ed04 000b                         x.......

000bed04 <_ZTSSt9type_info>:
   bed04:	7453 7439 7079 5f65 6e69 6f66 5200 4545     St9type_info.REE
   bed14:	544e 6d20 6c61 6f6c 2063 7573 6363 6565     NT malloc succee
   bed24:	6564 0064 742f 706d 6a2f 6e65 696b 736e     ded./tmp/jenkins
   bed34:	472d 4343 312d 2d30 6970 6570 696c 656e     -GCC-10-pipeline
   bed44:	342d 5f38 3032 3032 3131 3432 315f 3036     -48_20201124_160
   bed54:	3136 3038 3336 2f39 7273 2f63 656e 6c77     6180639/src/newl
   bed64:	6269 6e2f 7765 696c 2f62 696c 6362 732f     ib/newlib/libc/s
   bed74:	6474 696c 2f62 6172 646e 632e 6e00 0066     tdlib/rand.c.nf.
   bed84:	6e69 7469 0079 6e61 0000 0000               inity.an....

000bed90 <fpi.1>:
   bed90:	0035 0000 fbce ffff 03cb 0000 0001 0000     5...............
   beda0:	0000 0000                                   ....

000beda4 <fpinan.0>:
   beda4:	0034 0000 fbce ffff 03cb 0000 0001 0000     4...............
   bedb4:	0000 0000                                   ....

000bedb8 <tinytens>:
   bedb8:	89bc 97d8 d2b2 3c9c a733 d5a8 f623 3949     .......<3...#.I9
   bedc8:	a73d 44f4 0ffd 32a5 979d cf8c ba08 255b     =..D...2......[%
   bedd8:	6f43 64ac 0628 1168                         Co.d(.h.

000bede0 <_ctype_>:
   bede0:	2000 2020 2020 2020 2020 2828 2828 2028     .         ((((( 
   bedf0:	2020 2020 2020 2020 2020 2020 2020 2020                     
   bee00:	8820 1010 1010 1010 1010 1010 1010 1010      ...............
   bee10:	0410 0404 0404 0404 0404 1004 1010 1010     ................
   bee20:	1010 4141 4141 4141 0101 0101 0101 0101     ..AAAAAA........
   bee30:	0101 0101 0101 0101 0101 0101 1010 1010     ................
   bee40:	1010 4242 4242 4242 0202 0202 0202 0202     ..BBBBBB........
   bee50:	0202 0202 0202 0202 0202 0202 1010 1010     ................
   bee60:	0020 0000 0000 0000 0000 0000 0000 0000      ...............
	...
   beee0:	4200 6c61 6f6c 2063 7573 6363 6565 6564     .Balloc succeede
   beef0:	0064 742f 706d 6a2f 6e65 696b 736e 472d     d./tmp/jenkins-G
   bef00:	4343 312d 2d30 6970 6570 696c 656e 342d     CC-10-pipeline-4
   bef10:	5f38 3032 3032 3131 3432 315f 3036 3136     8_20201124_16061
   bef20:	3038 3336 2f39 7273 2f63 656e 6c77 6269     80639/src/newlib
   bef30:	6e2f 7765 696c 2f62 696c 6362 732f 6474     /newlib/libc/std
   bef40:	696c 2f62 6467 6f74 2d61 6567 6874 7865     lib/gdtoa-gethex
   bef50:	632e 0000                                   .c..

000bef54 <_C_numeric_locale>:
   bef54:	e97e 000b e7fe 000b 5130 2003 0043 4f50     ~.......0Q. C.PO
   bef64:	4953 0058 742f 706d 6a2f 6e65 696b 736e     SIX./tmp/jenkins
   bef74:	472d 4343 312d 2d30 6970 6570 696c 656e     -GCC-10-pipeline
   bef84:	342d 5f38 3032 3032 3131 3432 315f 3036     -48_20201124_160
   bef94:	3136 3038 3336 2f39 7273 2f63 656e 6c77     6180639/src/newl
   befa4:	6269 6e2f 7765 696c 2f62 696c 6362 732f     ib/newlib/libc/s
   befb4:	6474 696c 2f62 706d 6572 2e63 0063 0000     tdlib/mprec.c...
   befc4:	0000 0000                                   ....

000befc8 <__mprec_bigtens>:
   befc8:	8000 37e0 c379 4341 6e17 b505 b8b5 4693     ...7y.AC.n.....F
   befd8:	f9f5 e93f 4f03 4d38 1d32 f930 7748 5a82     ..?..O8M2.0.Hw.Z
   befe8:	bf3c 7f73 4fdd 7515                         <.s..O.u

000beff0 <__mprec_tens>:
   beff0:	0000 0000 0000 3ff0 0000 0000 0000 4024     .......?......$@
   bf000:	0000 0000 0000 4059 0000 0000 4000 408f     ......Y@.....@.@
   bf010:	0000 0000 8800 40c3 0000 0000 6a00 40f8     .......@.....j.@
   bf020:	0000 0000 8480 412e 0000 0000 12d0 4163     .......A......cA
   bf030:	0000 0000 d784 4197 0000 0000 cd65 41cd     .......A....e..A
   bf040:	0000 2000 a05f 4202 0000 e800 4876 4237     ... _..B....vH7B
   bf050:	0000 a200 1a94 426d 0000 e540 309c 42a2     ......mB..@..0.B
   bf060:	0000 1e90 bcc4 42d6 0000 2634 6bf5 430c     .......B..4&.k.C
   bf070:	8000 37e0 c379 4341 a000 85d8 3457 4376     ...7y.AC....W4vC
   bf080:	c800 674e c16d 43ab 3d00 6091 58e4 43e1     ..Ngm..C.=.`.X.C
   bf090:	8c40 78b5 af1d 4415 ef50 d6e2 1ae4 444b     @..x...DP.....KD
   bf0a0:	d592 064d f0cf 4480 4af6 c7e1 2d02 44b5     ..M....D.J...-.D
   bf0b0:	9db4 79d9 7843 44ea                         ...yCx.D

000bf0b8 <p05.0>:
   bf0b8:	0005 0000 0019 0000 007d 0000               ........}...

000bf0c4 <link_const_variable_data_end>:
   bf0c4:	000b6f41 	.word	0x000b6f41
   bf0c8:	000b9e8d 	.word	0x000b9e8d
   bf0cc:	000b9f05 	.word	0x000b9f05
   bf0d0:	000ba131 	.word	0x000ba131
   bf0d4:	000ba291 	.word	0x000ba291
   bf0d8:	000ba3cd 	.word	0x000ba3cd
   bf0dc:	000ba6b9 	.word	0x000ba6b9
   bf0e0:	000bacbd 	.word	0x000bacbd
   bf0e4:	000baee5 	.word	0x000baee5

000bf0e8 <link_constructors_end>:
	...
